**disassemble... roms/Basic2.rom
8000   C9 01             CMP #&01
8002   F0 1F             BEQ .L01
8004   60                RTS
8005   EA                NOP
8006   60                RTS                "`"
8007   0E 01 42          ASL &4201
800A   41 53             EOR (&53,X)        "AS"
800C   49 43             EOR #&43           "IC"
800E   00                BRK
800F   28                PLP                "("
8010   43                                   "C"
8011   29 31             AND #&31           ")1"
8013   39 38 32          AND &3238,Y        "982"
8016   20 41 63          JSR &6341          " Ac"
8019   6F                                   "o"
801A   72                                   "r"
801B   6E 0A 0D          ROR &0D0A
801E   00                BRK
801F   00                BRK
8020   80
8021   00                BRK
8022   00                BRK
8023   A9 84      .L01   LDA #&84
8025   20 F4 FF          JSR .L642
8028   86 06             STX &06
802A   84 07             STY &07
802C   A9 83             LDA #&83
802E   20 F4 FF          JSR .L642
8031   84 18             STY &18
8033   A2 00             LDX #&00
8035   86 1F             STX &1F
8037   8E 02 04          STX &0402
803A   8E 03 04          STX &0403
803D   CA                DEX
803E   86 23             STX &23
8040   A2 0A             LDX #&0A
8042   8E 00 04          STX &0400
8045   CA                DEX
8046   8E 01 04          STX &0401
8049   A9 01             LDA #&01
804B   25 11             AND &11
804D   05 0D             ORA &0D
804F   05 0E             ORA &0E
8051   05 0F             ORA &0F
8053   05 10             ORA &10
8055   D0 0C             BNE .L02
8057   A9 41             LDA #&41
8059   85 0D             STA &0D
805B   A9 52             LDA #&52
805D   85 0E             STA &0E
805F   A9 57             LDA #&57
8061   85 0F             STA &0F
8063   A9 02      .L02   LDA #&02
8065   8D 02 02          STA &0202
8068   A9 B4             LDA #&B4
806A   8D 03 02          STA &0203
806D   58                CLI
806E   4C DD 8A          JMP .L137
8071   41 4E             EOR (&4E,X)        "AN"
8073   44                                   "D"
8074   80
8075   00                BRK
8076   41 42             EOR (&42,X)        "AB"
8078   53                                   "S"
8079   94 00             STY &00,X
807B   41 43             EOR (&43,X)        "AC"
807D   53                                   "S"
807E   95 00             STA &00,X
8080   41 44             EOR (&44,X)        "AD"
8082   56 41             LSR &41,X          "VA"
8084   4C 96 00          JMP &0096
8087   41 53             EOR (&53,X)        "AS"
8089   43                                   "C"
808A   97
808B   00                BRK
808C   41 53             EOR (&53,X)        "AS"
808E   4E 98 00          LSR &0098
8091   41 54             EOR (&54,X)        "AT"
8093   4E 99 00          LSR &0099
8096   41 55             EOR (&55,X)        "AU"
8098   54                                   "T"
8099   4F                                   "O"
809A   C6 10             DEC &10
809C   42                                   "B"
809D   47                                   "G"
809E   45 54             EOR &54            "ET"
80A0   9A                TXS
80A1   01 42             ORA (&42,X)
80A3   50 55             BVC &80FA          "PU"
80A5   54                                   "T"
80A6   D5 03             CMP &03,X
80A8   43                                   "C"
80A9   4F                                   "O"
80AA   4C 4F 55          JMP &554F          "LOU"
80AD   52                                   "R"
80AE   FB
80AF   02
80B0   43                                   "C"
80B1   41 4C             EOR (&4C,X)        "AL"
80B3   4C D6 02          JMP &02D6
80B6   43                                   "C"
80B7   48                PHA                "H"
80B8   41 49             EOR (&49,X)        "AI"
80BA   4E D7 02          LSR &02D7
80BD   43                                   "C"
80BE   48                PHA                "H"
80BF   52                                   "R"
80C0   24 BD             BIT &BD
80C2   00                BRK
80C3   43                                   "C"
80C4   4C 45 41          JMP &4145          "LEA"
80C7   52                                   "R"
80C8   D8                CLD
80C9   01 43             ORA (&43,X)
80CB   4C 4F 53          JMP &534F          "LOS"
80CE   45 D9             EOR &D9
80D0   03
80D1   43                                   "C"
80D2   4C 47 DA          JMP &DA47
80D5   01 43             ORA (&43,X)
80D7   4C 53 DB          JMP &DB53
80DA   01 43             ORA (&43,X)
80DC   4F                                   "O"
80DD   53                                   "S"
80DE   9B
80DF   00                BRK
80E0   43                                   "C"
80E1   4F                                   "O"
80E2   55 4E             EOR &4E,X          "UN"
80E4   54                                   "T"
80E5   9C
80E6   01 44             ORA (&44,X)
80E8   41 54             EOR (&54,X)        "AT"
80EA   41 DC             EOR (&DC,X)
80EC   20 44 45          JSR &4544          " DE"
80EF   47                                   "G"
80F0   9D 00 44          STA &4400,X
80F3   45 46             EOR &46            "EF"
80F5   DD 00 44          CMP &4400,X
80F8   45 4C             EOR &4C            "EL"
80FA   45 54             EOR &54            "ET"
80FC   45 C7             EOR &C7
80FE   10 44             BPL &8144
8100   49 56             EOR #&56           "IV"
8102   81 00             STA (&00,X)
8104   44                                   "D"
8105   49 4D             EOR #&4D           "IM"
8107   DE 02 44          DEC &4402,X
810A   52                                   "R"
810B   41 57             EOR (&57,X)        "AW"
810D   DF
810E   02
810F   45 4E             EOR &4E            "EN"
8111   44                                   "D"
8112   50 52             BVC &8166          "PR"
8114   4F                                   "O"
8115   43                                   "C"
8116   E1 01             SBC (&01,X)
8118   45 4E             EOR &4E            "EN"
811A   44                                   "D"
811B   E0 01             CPX #&01
811D   45 4E             EOR &4E            "EN"
811F   56 45             LSR &45,X          "VE"
8121   4C 4F 50          JMP &504F          "LOP"
8124   45 E2             EOR &E2
8126   02
8127   45 4C             EOR &4C            "EL"
8129   53                                   "S"
812A   45 8B             EOR &8B
812C   14
812D   45 56             EOR &56            "EV"
812F   41 4C             EOR (&4C,X)        "AL"
8131   A0 00             LDY #&00
8133   45 52             EOR &52            "ER"
8135   4C 9E 01          JMP &019E
8138   45 52             EOR &52            "ER"
813A   52                                   "R"
813B   4F                                   "O"
813C   52                                   "R"
813D   85 04             STA &04
813F   45 4F             EOR &4F            "EO"
8141   46 C5             LSR &C5
8143   01 45             ORA (&45,X)
8145   4F                                   "O"
8146   52                                   "R"
8147   82
8148   00                BRK
8149   45 52             EOR &52            "ER"
814B   52                                   "R"
814C   9F
814D   01 45             ORA (&45,X)
814F   58                CLI                "X"
8150   50 A1             BVC &80F3
8152   00                BRK
8153   45 58             EOR &58            "EX"
8155   54                                   "T"
8156   A2 01             LDX #&01
8158   46 4F             LSR &4F            "FO"
815A   52                                   "R"
815B   E3
815C   02
815D   46 41             LSR &41            "FA"
815F   4C 53 45          JMP &4553          "LSE"
8162   A3
8163   01 46             ORA (&46,X)
8165   4E A4 08          LSR &08A4
8168   47                                   "G"
8169   4F                                   "O"
816A   54                                   "T"
816B   4F                                   "O"
816C   E5 12             SBC &12
816E   47                                   "G"
816F   45 54             EOR &54            "ET"
8171   24 BE             BIT &BE
8173   00                BRK
8174   47                                   "G"
8175   45 54             EOR &54            "ET"
8177   A5 00             LDA &00
8179   47                                   "G"
817A   4F                                   "O"
817B   53                                   "S"
817C   55 42             EOR &42,X          "UB"
817E   E4 12             CPX &12
8180   47                                   "G"
8181   43                                   "C"
8182   4F                                   "O"
8183   4C E6 02          JMP &02E6
8186   48                PHA                "H"
8187   49 4D             EOR #&4D           "IM"
8189   45 4D             EOR &4D            "EM"
818B   93
818C   43                                   "C"
818D   49 4E             EOR #&4E           "IN"
818F   50 55             BVC &81E6          "PU"
8191   54                                   "T"
8192   E8                INX
8193   02
8194   49 46             EOR #&46           "IF"
8196   E7
8197   02
8198   49 4E             EOR #&4E           "IN"
819A   4B                                   "K"
819B   45 59             EOR &59            "EY"
819D   24 BF             BIT &BF
819F   00                BRK
81A0   49 4E             EOR #&4E           "IN"
81A2   4B                                   "K"
81A3   45 59             EOR &59            "EY"
81A5   A6 00             LDX &00
81A7   49 4E             EOR #&4E           "IN"
81A9   54                                   "T"
81AA   A8                TAY
81AB   00                BRK
81AC   49 4E             EOR #&4E           "IN"
81AE   53                                   "S"
81AF   54                                   "T"
81B0   52                                   "R"
81B1   28                PLP                "("
81B2   A7
81B3   00                BRK
81B4   4C 49 53          JMP &5349          "LIS"
81B7   54                                   "T"
81B8   C9 10             CMP #&10
81BA   4C 49 4E          JMP &4E49          "LIN"
81BD   45 86             EOR &86
81BF   00                BRK
81C0   4C 4F 41          JMP &414F          "LOA"
81C3   44                                   "D"
81C4   C8                INY
81C5   02
81C6   4C 4F 4D          JMP &4D4F          "LOM"
81C9   45 4D             EOR &4D            "EM"
81CB   92
81CC   43                                   "C"
81CD   4C 4F 43          JMP &434F          "LOC"
81D0   41 4C             EOR (&4C,X)        "AL"
81D2   EA                NOP
81D3   02
81D4   4C 45 46          JMP &4645          "LEF"
81D7   54                                   "T"
81D8   24 28             BIT &28            "$("
81DA   C0 00             CPY #&00
81DC   4C 45 4E          JMP &4E45          "LEN"
81DF   A9 00             LDA #&00
81E1   4C 45 54          JMP &5445          "LET"
81E4   E9 04             SBC #&04
81E6   4C 4F 47          JMP &474F          "LOG"
81E9   AB
81EA   00                BRK
81EB   4C 4E AA          JMP &AA4E
81EE   00                BRK
81EF   4D 49 44          EOR &4449          "MID"
81F2   24 28             BIT &28            "$("
81F4   C1 00             CMP (&00,X)
81F6   4D 4F 44          EOR &444F          "MOD"
81F9   45 EB             EOR &EB
81FB   02
81FC   4D 4F 44          EOR &444F          "MOD"
81FF   83
8200   00                BRK
8201   4D 4F 56          EOR &564F          "MOV"
8204   45 EC             EOR &EC
8206   02
8207   4E 45 58          LSR &5845          "NEX"
820A   54                                   "T"
820B   ED 02 4E          SBC &4E02
820E   45 57             EOR &57            "EW"
8210   CA                DEX
8211   01 4E             ORA (&4E,X)
8213   4F                                   "O"
8214   54                                   "T"
8215   AC 00 4F          LDY &4F00
8218   4C 44 CB          JMP &CB44
821B   01 4F             ORA (&4F,X)
821D   4E EE 02          LSR &02EE
8220   4F                                   "O"
8221   46 46             LSR &46            "FF"
8223   87
8224   00                BRK
8225   4F                                   "O"
8226   52                                   "R"
8227   84 00             STY &00
8229   4F                                   "O"
822A   50 45             BVC &8271          "PE"
822C   4E 49 4E          LSR &4E49          "NIN"
822F   8E 00 4F          STX &4F00
8232   50 45             BVC &8279          "PE"
8234   4E 4F 55          LSR &554F          "NOU"
8237   54                                   "T"
8238   AE 00 4F          LDX &4F00
823B   50 45             BVC &8282          "PE"
823D   4E 55 50          LSR &5055          "NUP"
8240   AD 00 4F          LDA &4F00
8243   53                                   "S"
8244   43                                   "C"
8245   4C 49 FF          JMP &FF49
8248   02
8249   50 52             BVC &829D          "PR"
824B   49 4E             EOR #&4E           "IN"
824D   54                                   "T"
824E   F1 02             SBC (&02),Y
8250   50 41             BVC &8293          "PA"
8252   47                                   "G"
8253   45 90             EOR &90
8255   43                                   "C"
8256   50 54             BVC &82AC          "PT"
8258   52                                   "R"
8259   8F
825A   43                                   "C"
825B   50 49             BVC &82A6          "PI"
825D   AF
825E   01 50             ORA (&50,X)
8260   4C 4F 54          JMP &544F          "LOT"
8263   F0 02             BEQ &8267
8265   50 4F             BVC &82B6          "PO"
8267   49 4E             EOR #&4E           "IN"
8269   54                                   "T"
826A   28                PLP                "("
826B   B0 00             BCS &826D
826D   50 52             BVC &82C1          "PR"
826F   4F                                   "O"
8270   43                                   "C"
8271   F2
8272   0A                ASL A
8273   50 4F             BVC &82C4          "PO"
8275   53                                   "S"
8276   B1 01             LDA (&01),Y
8278   52                                   "R"
8279   45 54             EOR &54            "ET"
827B   55 52             EOR &52,X          "UR"
827D   4E F8 01          LSR &01F8
8280   52                                   "R"
8281   45 50             EOR &50            "EP"
8283   45 41             EOR &41            "EA"
8285   54                                   "T"
8286   F5 00             SBC &00,X
8288   52                                   "R"
8289   45 50             EOR &50            "EP"
828B   4F                                   "O"
828C   52                                   "R"
828D   54                                   "T"
828E   F6 01             INC &01,X
8290   52                                   "R"
8291   45 41             EOR &41            "EA"
8293   44                                   "D"
8294   F3
8295   02
8296   52                                   "R"
8297   45 4D             EOR &4D            "EM"
8299   F4
829A   20 52 55          JSR &5552          " RU"
829D   4E F9 01          LSR &01F9
82A0   52                                   "R"
82A1   41 44             EOR (&44,X)        "AD"
82A3   B2
82A4   00                BRK
82A5   52                                   "R"
82A6   45 53             EOR &53            "ES"
82A8   54                                   "T"
82A9   4F                                   "O"
82AA   52                                   "R"
82AB   45 F7             EOR &F7
82AD   12
82AE   52                                   "R"
82AF   49 47             EOR #&47           "IG"
82B1   48                PHA                "H"
82B2   54                                   "T"
82B3   24 28             BIT &28            "$("
82B5   C2
82B6   00                BRK
82B7   52                                   "R"
82B8   4E 44 B3          LSR &B344
82BB   01 52             ORA (&52,X)
82BD   45 4E             EOR &4E            "EN"
82BF   55 4D             EOR &4D,X          "UM"
82C1   42                                   "B"
82C2   45 52             EOR &52            "ER"
82C4   CC 10 53          CPY &5310
82C7   54                                   "T"
82C8   45 50             EOR &50            "EP"
82CA   88                DEY
82CB   00                BRK
82CC   53                                   "S"
82CD   41 56             EOR (&56,X)        "AV"
82CF   45 CD             EOR &CD
82D1   02
82D2   53                                   "S"
82D3   47                                   "G"
82D4   4E B4 00          LSR &00B4
82D7   53                                   "S"
82D8   49 4E             EOR #&4E           "IN"
82DA   B5 00             LDA &00,X
82DC   53                                   "S"
82DD   51 52             EOR (&52),Y        "QR"
82DF   B6 00             LDX &00,Y
82E1   53                                   "S"
82E2   50 43             BVC &8327          "PC"
82E4   89
82E5   00                BRK
82E6   53                                   "S"
82E7   54                                   "T"
82E8   52                                   "R"
82E9   24 C3             BIT &C3
82EB   00                BRK
82EC   53                                   "S"
82ED   54                                   "T"
82EE   52                                   "R"
82EF   49 4E             EOR #&4E           "IN"
82F1   47                                   "G"
82F2   24 28             BIT &28            "$("
82F4   C4 00             CPY &00
82F6   53                                   "S"
82F7   4F                                   "O"
82F8   55 4E             EOR &4E,X          "UN"
82FA   44                                   "D"
82FB   D4
82FC   02
82FD   53                                   "S"
82FE   54                                   "T"
82FF   4F                                   "O"
8300   50 FA             BVC &82FC
8302   01 54             ORA (&54,X)
8304   41 4E             EOR (&4E,X)        "AN"
8306   B7
8307   00                BRK
8308   54                                   "T"
8309   48                PHA                "H"
830A   45 4E             EOR &4E            "EN"
830C   8C 14 54          STY &5414
830F   4F                                   "O"
8310   B8                CLV
8311   00                BRK
8312   54                                   "T"
8313   41 42             EOR (&42,X)        "AB"
8315   28                PLP                "("
8316   8A                TXA
8317   00                BRK
8318   54                                   "T"
8319   52                                   "R"
831A   41 43             EOR (&43,X)        "AC"
831C   45 FC             EOR &FC
831E   12
831F   54                                   "T"
8320   49 4D             EOR #&4D           "IM"
8322   45 91             EOR &91
8324   43                                   "C"
8325   54                                   "T"
8326   52                                   "R"
8327   55 45             EOR &45,X          "UE"
8329   B9 01 55          LDA &5501,Y
832C   4E 54 49          LSR &4954          "NTI"
832F   4C FD 02          JMP &02FD
8332   55 53             EOR &53,X          "US"
8334   52                                   "R"
8335   BA                TSX
8336   00                BRK
8337   56 44             LSR &44,X          "VD"
8339   55 EF             EOR &EF,X
833B   02
833C   56 41             LSR &41,X          "VA"
833E   4C BB 00          JMP &00BB
8341   56 50             LSR &50,X          "VP"
8343   4F                                   "O"
8344   53                                   "S"
8345   BC 01 57          LDY &5701,X
8348   49 44             EOR #&44           "ID"
834A   54                                   "T"
834B   48                PHA                "H"
834C   FE 02 50          INC &5002,X
834F   41 47             EOR (&47,X)        "AG"
8351   45 D0             EOR &D0
8353   00                BRK
8354   50 54             BVC &83AA          "PT"
8356   52                                   "R"
8357   CF
8358   00                BRK
8359   54                                   "T"
835A   49 4D             EOR #&4D           "IM"
835C   45 D1             EOR &D1
835E   00                BRK
835F   4C 4F 4D          JMP &4D4F          "LOM"
8362   45 4D             EOR &4D            "EM"
8364   D2
8365   00                BRK
8366   48                PHA                "H"
8367   49 4D             EOR #&4D           "IM"
8369   45 4D             EOR &4D            "EM"
836B   D3
836C   00                BRK
836D   78                SEI                "x"
836E   47                                   "G"
836F   C0 B4             CPY #&B4
8371   FC
8372   03
8373   6A                ROR A              "j"
8374   D4
8375   33                                   "3"
8376   9E
8377   DA
8378   07
8379   6F                                   "o"
837A   8D F7 C2          STA &C2F7
837D   9F
837E   A6 E9             LDX &E9
8380   91 46             STA (&46),Y
8382   CA                DEX
8383   95 B9             STA &B9,X
8385   AD E2 78          LDA &78E2
8388   D1 FE             CMP (&FE),Y
838A   A8                TAY
838B   D1 80             CMP (&80),Y
838D   7C                                   "|"
838E   CB
838F   41 6D             EOR (&6D,X)        "Am"
8391   B1 49             LDA (&49),Y
8393   88                DEY
8394   98                TYA
8395   B4 BE             LDY &BE,X
8397   DC
8398   C4 D2             CPY &D2
839A   2F                                   "/"
839B   76 BD             ROR &BD,X
839D   BF
839E   26 CC             ROL &CC
83A0   39 EE 94          AND &94EE,Y
83A3   C2
83A4   B8                CLV
83A5   AC 31 24          LDY &2431
83A8   9C
83A9   DA
83AA   B6 A3             LDX &A3,Y
83AC   F3
83AD   2A                ROL A              "*"
83AE   30 83             BMI &8333
83B0   C9 6F             CMP #&6F
83B2   5D 4C 58          EOR &584C,X        "]LX"
83B5   D2
83B6   2A                ROL A              "*"
83B7   8D 99 BD          STA &BD99
83BA   C4 7D             CPY &7D
83BC   7D 2F E8          ADC &E82F,X
83BF   C8                INY
83C0   56 72             LSR &72,X          "Vr"
83C2   C4 88             CPY &88
83C4   CC 7A C2          CPY &C27A
83C7   44                                   "D"
83C8   E4 23             CPX &23
83CA   9A                TXS
83CB   E4 95             CPX &95
83CD   15 2F             ORA &2F,X
83CF   F1 9A             SBC (&9A),Y
83D1   04
83D2   1F
83D3   7D E4 E4          ADC &E4E4,X
83D6   E6 B6             INC &B6
83D8   11 D0             ORA (&D0),Y
83DA   8E 95 B1          STX &B195
83DD   A0 C2             LDY #&C2
83DF   BF
83E0   BF
83E1   AE AE AE          LDX &AEAE
83E4   AF
83E5   AD A8 AB          LDA &ABA8
83E8   AC A8 A9          LDY &A9A8
83EB   BF
83EC   A9 AE             LDA #&AE
83EE   AB
83EF   AF
83F0   AF
83F1   AB
83F2   AA                TAX
83F3   BF
83F4   AE B1 AF          LDX &AFB1
83F7   AC AC AC          LDY &ACAC
83FA   AE A7 AB          LDX &ABA7
83FD   AC BF BF          LDY &BFBF
8400   AB
8401   AB
8402   AB
8403   AB
8404   AF
8405   AB
8406   A9 A7             LDA #&A7
8408   A6 AE             LDX &AE
840A   AC AB AC          LDY &ACAB
840D   AB
840E   B3
840F   AF
8410   B0 AF             BCS &83C1
8412   B0 AF             BCS &83C3
8414   B0 B0             BCS &83C6
8416   AC 90 8F          LDY &8F90
8419   BF
841A   B5 8A             LDA &8A,X
841C   8A                TXA
841D   8F
841E   BE 98 BF          LDX &BF98,Y
8421   92
8422   92
8423   92
8424   92
8425   B4 BF             LDY &BF,X
8427   8E BF 92          STX &92BF
842A   BF
842B   8E 8E 8B          STX &8B8E
842E   8B
842F   91 93             STA (&93),Y
8431   8A                TXA
8432   93
8433   B4 B7             LDY &B7,X
8435   B8                CLV
8436   B8                CLV
8437   93
8438   98                TYA
8439   BA                TSX
843A   8B
843B   93
843C   93
843D   93
843E   B6 B9             LDX &B9,Y
8440   94 93             STY &93,X
8442   8D 93 BB          STA &BB93
8445   8B
8446   BB
8447   BF
8448   BA                TSX
8449   B8                CLV
844A   BD 8A 93          LDA &938A,X
844D   92
844E   BB
844F   B4 BE             LDY &BE,X
8451   4B                                   "K"
8452   83
8453   84 89             STY &89
8455   96 B8             STX &B8,Y
8457   B9 D8 D9          LDA &D9D8,Y
845A   F0 01             BEQ &845D
845C   10 81             BPL &83DF
845E   90 89             BCC &83E9
8460   93
8461   A3
8462   A4 A9             LDY &A9
8464   38                SEC                "8"
8465   39 78 01          AND &0178,Y
8468   13
8469   21 63             AND (&63,X)        "!c"
846B   73                                   "s"
846C   B1 A9             LDA (&A9),Y
846E   C5 0C             CMP &0C
8470   C3
8471   D3
8472   C4 F2             CPY &F2
8474   41 83             EOR (&83,X)
8476   B0 81             BCS &83F9
8478   43                                   "C"
8479   6C 72 EC          JMP (&EC72)
847C   F2
847D   A3
847E   C3
847F   18                CLC
8480   19 34 B0          ORA &B034,Y
8483   72                                   "r"
8484   98                TYA
8485   99 81 98          STA &9881,Y
8488   99 14 35          STA &3514,Y
848B   0A                ASL A
848C   0D 0D 0D          ORA &0D0D
848F   0D 10 10          ORA &1010
8492   25 25             AND &25            "%%"
8494   39 41 41          AND &4141,Y        "9AA"
8497   41 41             EOR (&41,X)        "AA"
8499   4A                LSR A              "J"
849A   4A                LSR A              "J"
849B   4C 4C 4C          JMP &4C4C          "LLL"
849E   50 50             BVC &84F0          "PP"
84A0   52                                   "R"
84A1   53                                   "S"
84A2   53                                   "S"
84A3   53                                   "S"
84A4   08                PHP
84A5   08                PHP
84A6   08                PHP
84A7   09 09             ORA #&09
84A9   0A                ASL A
84AA   0A                ASL A
84AB   0A                ASL A
84AC   05 15             ORA &15
84AE   3E 04 0D          ROL &0D04,X
84B1   30 4C             BMI &84FF          "0L"
84B3   06 32             ASL &32
84B5   49 49             EOR #&49           "II"
84B7   10 25             BPL &84DE
84B9   0E 0E 09          ASL &090E
84BC   29 2A             AND #&2A           ")*"
84BE   30 30             BMI &84F0          "00"
84C0   4E 4E 4E          LSR &4E4E          "NNN"
84C3   3E 16 00          ROL &0016,X
84C6   18                CLC
84C7   D8                CLD
84C8   58                CLI                "X"
84C9   B8                CLV
84CA   CA                DEX
84CB   88                DEY
84CC   E8                INX
84CD   C8                INY
84CE   EA                NOP
84CF   48                PHA                "H"
84D0   08                PHP
84D1   68                PLA                "h"
84D2   28                PLP                "("
84D3   40                RTI                "@"
84D4   60                RTS                "`"
84D5   38                SEC                "8"
84D6   F8                SED
84D7   78                SEI                "x"
84D8   AA                TAX
84D9   A8                TAY
84DA   BA                TSX
84DB   8A                TXA
84DC   9A                TXS
84DD   98                TYA
84DE   90 B0             BCC &8490
84E0   F0 30             BEQ &8512
84E2   D0 10             BNE &84F4
84E4   50 70             BVC .L10           "Pp"
84E6   21 41             AND (&41,X)        "!A"
84E8   01 61             ORA (&61,X)
84EA   C1 A1             CMP (&A1,X)
84EC   E1 06             SBC (&06,X)
84EE   46 26             LSR &26            "F&"
84F0   66 C6             ROR &C6
84F2   E6 E0             INC &E0
84F4   C0 20             CPY #&20
84F6   4C 20 A2          JMP &A220
84F9   A0 81             LDY #&81
84FB   86 84             STX &84
84FD   A9 FF      .L03   LDA #&FF
84FF   85 28             STA &28
8501   4C A3 8B          JMP .L152
8504   A9 03      .L04   LDA #&03
8506   85 28             STA &28
8508   20 97 8A   .L05   JSR .L136
850B   C9 5D             CMP #&5D
850D   F0 EE             BEQ .L03
850F   20 6D 98          JSR .L258
8512   C6 0A             DEC &0A
8514   20 BA 85          JSR .L22
8517   C6 0A             DEC &0A
8519   A5 28             LDA &28
851B   4A                LSR A
851C   90 60             BCC .L16
851E   A5 1E             LDA &1E
8520   69 04             ADC #&04
8522   85 3F             STA &3F
8524   A5 38             LDA &38
8526   20 45 B5          JSR .L575
8529   A5 37             LDA &37
852B   20 62 B5          JSR .L579
852E   A2 FC             LDX #&FC
8530   A4 39             LDY &39
8532   10 02             BPL .L06
8534   A4 36             LDY &36
8536   84 38      .L06   STY &38
8538   F0 1C             BEQ .L10
853A   A0 00             LDY #&00
853C   E8         .L07   INX
853D   D0 0D             BNE .L09
853F   20 25 BC          JSR .L584
8542   A6 3F             LDX &3F
8544   20 65 B5   .L08   JSR .L580
8547   CA                DEX
8548   D0 FA             BNE .L08
854A   A2 FD             LDX #&FD
854C   B1 3A      .L09   LDA (&3A),Y
854E   20 62 B5          JSR .L579
8551   C8                INY
8552   C6 38             DEC &38
8554   D0 E6             BNE .L07
8556   E8         .L10   INX
8557   10 0C             BPL .L11
8559   20 65 B5          JSR .L580
855C   20 58 B5          JSR .L578
855F   20 58 B5          JSR .L578
8562   4C 56 85          JMP .L10
8565   A0 00      .L11   LDY #&00
8567   B1 0B      .L12   LDA (&0B),Y
8569   C9 3A             CMP #&3A
856B   F0 0A             BEQ .L14
856D   C9 0D             CMP #&0D
856F   F0 0A             BEQ .L15
8571   20 0E B5   .L13   JSR .L569
8574   C8                INY
8575   D0 F0             BNE .L12
8577   C4 0A      .L14   CPY &0A
8579   90 F6             BCC .L13
857B   20 25 BC   .L15   JSR .L584
857E   A4 0A      .L16   LDY &0A
8580   88                DEY
8581   C8         .L17   INY
8582   B1 0B             LDA (&0B),Y
8584   C9 3A             CMP #&3A
8586   F0 04             BEQ .L18
8588   C9 0D             CMP #&0D
858A   D0 F5             BNE .L17
858C   20 59 98   .L18   JSR .L255
858F   88                DEY
8590   B1 0B             LDA (&0B),Y
8592   C9 3A             CMP #&3A
8594   F0 0C             BEQ .L20
8596   A5 0C             LDA &0C
8598   C9 07             CMP #&07
859A   D0 03             BNE .L19
859C   4C F6 8A          JMP .L139
859F   20 90 98   .L19   JSR .L260
85A2   4C 08 85   .L20   JMP .L05
85A5   20 82 95   .L21   JSR .L205
85A8   F0 5A             BEQ .L28
85AA   B0 58             BCS .L28
85AC   20 94 BD          JSR .L608
85AF   20 3A AE          JSR .L537
85B2   85 27             STA &27
85B4   20 B4 B4          JSR .L564
85B7   20 27 88          JSR .L76
85BA   A2 03      .L22   LDX #&03
85BC   20 97 8A          JSR .L136
85BF   A0 00             LDY #&00
85C1   84 3D             STY &3D
85C3   C9 3A             CMP #&3A
85C5   F0 64             BEQ .L31
85C7   C9 0D             CMP #&0D
85C9   F0 60             BEQ .L31
85CB   C9 5C             CMP #&5C
85CD   F0 5C             BEQ .L31
85CF   C9 2E             CMP #&2E
85D1   F0 D2             BEQ .L21
85D3   C6 0A             DEC &0A
85D5   A4 0A      .L23   LDY &0A
85D7   E6 0A             INC &0A
85D9   B1 0B             LDA (&0B),Y
85DB   30 2A             BMI .L29
85DD   C9 20             CMP #&20
85DF   F0 10             BEQ .L25
85E1   A0 05             LDY #&05
85E3   0A                ASL A
85E4   0A                ASL A
85E5   0A                ASL A
85E6   0A         .L24   ASL A
85E7   26 3D             ROL &3D
85E9   26 3E             ROL &3E
85EB   88                DEY
85EC   D0 F8             BNE .L24
85EE   CA                DEX
85EF   D0 E4             BNE .L23
85F1   A2 3A      .L25   LDX #&3A
85F3   A5 3D             LDA &3D
85F5   DD 50 84   .L26   CMP &8450,X
85F8   D0 07             BNE .L27
85FA   BC 8A 84          LDY &848A,X
85FD   C4 3E             CPY &3E
85FF   F0 1F             BEQ .L30
8601   CA         .L27   DEX
8602   D0 F1             BNE .L26
8604   4C 2A 98   .L28   JMP .L249
8607   A2 22      .L29   LDX #&22
8609   C9 80             CMP #&80
860B   F0 13             BEQ .L30
860D   E8                INX
860E   C9 82             CMP #&82
8610   F0 0E             BEQ .L30
8612   E8                INX
8613   C9 84             CMP #&84
8615   D0 ED             BNE .L28
8617   E6 0A             INC &0A
8619   C8                INY
861A   B1 0B             LDA (&0B),Y
861C   C9 41             CMP #&41
861E   D0 E4             BNE .L28
8620   BD C4 84   .L30   LDA &84C4,X
8623   85 29             STA &29
8625   A0 01             LDY #&01
8627   E0 1A             CPX #&1A
8629   B0 48             BCS .L38
862B   AD 40 04   .L31   LDA &0440
862E   85 37             STA &37
8630   84 39             STY &39
8632   A6 28             LDX &28
8634   E0 04             CPX #&04
8636   AE 41 04          LDX &0441
8639   86 38             STX &38
863B   90 06             BCC .L32
863D   AD 3C 04          LDA &043C
8640   AE 3D 04          LDX &043D
8643   85 3A      .L32   STA &3A
8645   86 3B             STX &3B
8647   98                TYA
8648   F0 28             BEQ .L37
864A   10 04             BPL .L33
864C   A4 36             LDY &36
864E   F0 22             BEQ .L37
8650   88         .L33   DEY
8651   B9 29 00          LDA &0029,Y
8654   24 39             BIT &39
8656   10 03             BPL .L34
8658   B9 00 06          LDA &0600,Y
865B   91 3A      .L34   STA (&3A),Y
865D   EE 40 04          INC &0440
8660   D0 03             BNE .L35
8662   EE 41 04          INC &0441
8665   90 08      .L35   BCC .L36
8667   EE 3C 04          INC &043C
866A   D0 03             BNE .L36
866C   EE 3D 04          INC &043D
866F   98         .L36   TYA
8670   D0 DE             BNE .L33
8672   60         .L37   RTS
8673   E0 22      .L38   CPX #&22
8675   B0 40             BCS .L45
8677   20 21 88          JSR .L75
867A   18                CLC
867B   A5 2A             LDA &2A
867D   ED 40 04          SBC &0440
8680   A8                TAY
8681   A5 2B             LDA &2B
8683   ED 41 04          SBC &0441
8686   C0 01             CPY #&01
8688   88                DEY
8689   E9 00             SBC #&00
868B   F0 25             BEQ .L44
868D   C9 FF             CMP #&FF
868F   F0 1C             BEQ .L43
8691   A5 28      .L39   LDA &28
8693   4A                LSR A
8694   F0 0F             BEQ .L40
8696   00                BRK
8697   01 4F             ORA (&4F,X)
8699   75 74             ADC &74,X          "ut"
869B   20 6F 66          JSR &666F          " of"
869E   20 72 61          JSR &6172          " ra"
86A1   6E 67 65          ROR &6567          "nge"
86A4   00                BRK
86A5   A8         .L40   TAY
86A6   84 2A      .L41   STY &2A
86A8   A0 02      .L42   LDY #&02
86AA   4C 2B 86          JMP .L31
86AD   98         .L43   TYA
86AE   30 F6             BMI .L41
86B0   10 DF             BPL .L39
86B2   98         .L44   TYA
86B3   10 F1             BPL .L41
86B5   30 DA             BMI .L39
86B7   E0 29      .L45   CPX #&29
86B9   B0 18             BCS .L49
86BB   20 97 8A          JSR .L136
86BE   C9 23             CMP #&23
86C0   D0 18             BNE .L50
86C2   20 2F 88          JSR .L78
86C5   20 21 88   .L46   JSR .L75
86C8   A5 2B      .L47   LDA &2B
86CA   F0 DC             BEQ .L42
86CC   00         .L48   BRK
86CD   02
86CE   42                                   "B"
86CF   79 74 65          ADC &6574,Y        "yte"
86D2   00                BRK
86D3   E0 36      .L49   CPX #&36
86D5   D0 68             BNE .L57
86D7   20 97 8A          JSR .L136
86DA   C9 28      .L50   CMP #&28
86DC   D0 37             BNE .L53
86DE   20 21 88          JSR .L75
86E1   20 97 8A          JSR .L136
86E4   C9 29             CMP #&29
86E6   D0 13             BNE .L51
86E8   20 97 8A          JSR .L136
86EB   C9 2C             CMP #&2C
86ED   D0 1E             BNE .L52
86EF   20 2C 88          JSR .L77
86F2   20 97 8A          JSR .L136
86F5   C9 59             CMP #&59
86F7   D0 14             BNE .L52
86F9   F0 CD             BEQ .L47
86FB   C9 2C      .L51   CMP #&2C
86FD   D0 0E             BNE .L52
86FF   20 97 8A          JSR .L136
8702   C9 58             CMP #&58
8704   D0 07             BNE .L52
8706   20 97 8A          JSR .L136
8709   C9 29             CMP #&29
870B   F0 BB             BEQ .L47
870D   00         .L52   BRK
870E   03
870F   49 6E             EOR #&6E           "In"
8711   64                                   "d"
8712   65 78             ADC &78            "ex"
8714   00                BRK
8715   C6 0A      .L53   DEC &0A
8717   20 21 88          JSR .L75
871A   20 97 8A          JSR .L136
871D   C9 2C             CMP #&2C
871F   D0 14             BNE .L55
8721   20 2C 88          JSR .L77
8724   20 97 8A          JSR .L136
8727   C9 58             CMP #&58
8729   F0 0A             BEQ .L55
872B   C9 59             CMP #&59
872D   D0 DE             BNE .L52
872F   20 2F 88   .L54   JSR .L78
8732   4C 9A 87          JMP .L65
8735   20 32 88   .L55   JSR .L79
8738   A5 2B      .L56   LDA &2B
873A   D0 F3             BNE .L54
873C   4C A8 86          JMP .L42
873F   E0 2F      .L57   CPX #&2F
8741   B0 2B             BCS .L60
8743   E0 2D             CPX #&2D
8745   B0 09             BCS .L58
8747   20 97 8A          JSR .L136
874A   C9 41             CMP #&41
874C   F0 19             BEQ .L59
874E   C6 0A             DEC &0A
8750   20 21 88   .L58   JSR .L75
8753   20 97 8A          JSR .L136
8756   C9 2C             CMP #&2C
8758   D0 DE             BNE .L56
875A   20 2C 88          JSR .L77
875D   20 97 8A          JSR .L136
8760   C9 58             CMP #&58
8762   F0 D4             BEQ .L56
8764   4C 0D 87          JMP .L52
8767   20 32 88   .L59   JSR .L79
876A   A0 01             LDY #&01
876C   D0 2E             BNE .L66
876E   E0 32      .L60   CPX #&32
8770   B0 16             BCS .L63
8772   E0 31             CPX #&31
8774   F0 0C             BEQ .L62
8776   20 97 8A          JSR .L136
8779   C9 23             CMP #&23
877B   D0 03             BNE .L61
877D   4C C5 86          JMP .L46
8780   C6 0A      .L61   DEC &0A
8782   20 21 88   .L62   JSR .L75
8785   4C 35 87          JMP .L55
8788   E0 33      .L63   CPX #&33
878A   F0 0B             BEQ .L64
878C   B0 24             BCS .L68
878E   20 97 8A          JSR .L136
8791   C9 28             CMP #&28
8793   F0 0A             BEQ .L67
8795   C6 0A             DEC &0A
8797   20 21 88   .L64   JSR .L75
879A   A0 03      .L65   LDY #&03
879C   4C 2B 86   .L66   JMP .L31
879F   20 2C 88   .L67   JSR .L77
87A2   20 2C 88          JSR .L77
87A5   20 21 88          JSR .L75
87A8   20 97 8A          JSR .L136
87AB   C9 29             CMP #&29
87AD   F0 EB             BEQ .L65
87AF   4C 0D 87          JMP .L52
87B2   E0 39      .L68   CPX #&39
87B4   B0 5D             BCS .L74
87B6   A5 3D             LDA &3D
87B8   49 01             EOR #&01
87BA   29 1F             AND #&1F
87BC   48                PHA
87BD   E0 37             CPX #&37
87BF   B0 2F             BCS .L72
87C1   20 97 8A          JSR .L136
87C4   C9 23             CMP #&23
87C6   D0 04             BNE .L69
87C8   68                PLA
87C9   4C C5 86          JMP .L46
87CC   C6 0A      .L69   DEC &0A
87CE   20 21 88          JSR .L75
87D1   68                PLA
87D2   85 37             STA &37
87D4   20 97 8A          JSR .L136
87D7   C9 2C             CMP #&2C
87D9   F0 03             BEQ .L70
87DB   4C 35 87          JMP .L55
87DE   20 97 8A   .L70   JSR .L136
87E1   29 1F             AND #&1F
87E3   C5 37             CMP &37
87E5   D0 06             BNE .L71
87E7   20 2C 88          JSR .L77
87EA   4C 35 87          JMP .L55
87ED   4C 0D 87   .L71   JMP .L52
87F0   20 21 88   .L72   JSR .L75
87F3   68                PLA
87F4   85 37             STA &37
87F6   20 97 8A          JSR .L136
87F9   C9 2C             CMP #&2C
87FB   D0 13             BNE .L73
87FD   20 97 8A          JSR .L136
8800   29 1F             AND #&1F
8802   C5 37             CMP &37
8804   D0 E7             BNE .L71
8806   20 2C 88          JSR .L77
8809   A5 2B             LDA &2B
880B   F0 03             BEQ .L73
880D   4C CC 86          JMP .L48
8810   4C 38 87   .L73   JMP .L56
8813   D0 25      .L74   BNE .L80
8815   20 21 88          JSR .L75
8818   A5 2A             LDA &2A
881A   85 28             STA &28
881C   A0 00             LDY #&00
881E   4C 2B 86          JMP .L31
8821   20 1D 9B   .L75   JSR .L297
8824   20 F0 92          JSR .L179
8827   A4 1B      .L76   LDY &1B
8829   84 0A             STY &0A
882B   60                RTS
882C   20 2F 88   .L77   JSR .L78
882F   20 32 88   .L78   JSR .L79
8832   A5 29      .L79   LDA &29
8834   18                CLC
8835   69 04             ADC #&04
8837   85 29             STA &29
8839   60                RTS
883A   A2 01      .L80   LDX #&01
883C   A4 0A             LDY &0A
883E   E6 0A             INC &0A
8840   B1 0B             LDA (&0B),Y
8842   C9 42             CMP #&42
8844   F0 12             BEQ .L81
8846   E8                INX
8847   C9 57             CMP #&57
8849   F0 0D             BEQ .L81
884B   A2 04             LDX #&04
884D   C9 44             CMP #&44
884F   F0 07             BEQ .L81
8851   C9 53             CMP #&53
8853   F0 15             BEQ .L84
8855   4C 2A 98          JMP .L249
8858   8A         .L81   TXA
8859   48                PHA
885A   20 21 88          JSR .L75
885D   A2 29             LDX #&29
885F   20 44 BE          JSR .L624
8862   68                PLA
8863   A8                TAY
8864   4C 2B 86   .L82   JMP .L31
8867   4C 0E 8C   .L83   JMP .L159
886A   A5 28      .L84   LDA &28
886C   48                PHA
886D   20 1D 9B          JSR .L297
8870   D0 F5             BNE .L83
8872   68                PLA
8873   85 28             STA &28
8875   20 27 88          JSR .L76
8878   A0 FF             LDY #&FF
887A   D0 E8             BNE .L82
887C   48         .L85   PHA
887D   18                CLC
887E   98                TYA
887F   65 37             ADC &37
8881   85 39             STA &39
8883   A0 00             LDY #&00
8885   98                TYA
8886   65 38             ADC &38
8888   85 3A             STA &3A
888A   68                PLA
888B   91 37             STA (&37),Y
888D   C8         .L86   INY
888E   B1 39             LDA (&39),Y
8890   91 37             STA (&37),Y
8892   C9 0D             CMP #&0D
8894   D0 F7             BNE .L86
8896   60                RTS
8897   29 0F      .L87   AND #&0F
8899   85 3D             STA &3D
889B   84 3E             STY &3E
889D   C8         .L88   INY
889E   B1 37             LDA (&37),Y
88A0   C9 3A             CMP #&3A
88A2   B0 36             BCS .L90
88A4   C9 30             CMP #&30
88A6   90 32             BCC .L90
88A8   29 0F             AND #&0F
88AA   48                PHA
88AB   A6 3E             LDX &3E
88AD   A5 3D             LDA &3D
88AF   0A                ASL A
88B0   26 3E             ROL &3E
88B2   30 21             BMI .L89
88B4   0A                ASL A
88B5   26 3E             ROL &3E
88B7   30 1C             BMI .L89
88B9   65 3D             ADC &3D
88BB   85 3D             STA &3D
88BD   8A                TXA
88BE   65 3E             ADC &3E
88C0   06 3D             ASL &3D
88C2   2A                ROL A
88C3   30 10             BMI .L89
88C5   B0 0E             BCS .L89
88C7   85 3E             STA &3E
88C9   68                PLA
88CA   65 3D             ADC &3D
88CC   85 3D             STA &3D
88CE   90 CD             BCC .L88
88D0   E6 3E             INC &3E
88D2   10 C9             BPL .L88
88D4   48                PHA
88D5   68         .L89   PLA
88D6   A0 00             LDY #&00
88D8   38                SEC
88D9   60                RTS
88DA   88         .L90   DEY
88DB   A9 8D             LDA #&8D
88DD   20 7C 88          JSR .L85
88E0   A5 37             LDA &37
88E2   69 02             ADC #&02
88E4   85 39             STA &39
88E6   A5 38             LDA &38
88E8   69 00             ADC #&00
88EA   85 3A             STA &3A
88EC   B1 37      .L91   LDA (&37),Y
88EE   91 39             STA (&39),Y
88F0   88                DEY
88F1   D0 F9             BNE .L91
88F3   A0 03             LDY #&03
88F5   A5 3E             LDA &3E
88F7   09 40             ORA #&40
88F9   91 37             STA (&37),Y
88FB   88                DEY
88FC   A5 3D             LDA &3D
88FE   29 3F             AND #&3F
8900   09 40             ORA #&40
8902   91 37             STA (&37),Y
8904   88                DEY
8905   A5 3D             LDA &3D
8907   29 C0             AND #&C0
8909   85 3D             STA &3D
890B   A5 3E             LDA &3E
890D   29 C0             AND #&C0
890F   4A                LSR A
8910   4A                LSR A
8911   05 3D             ORA &3D
8913   4A                LSR A
8914   4A                LSR A
8915   49 54             EOR #&54
8917   91 37             STA (&37),Y
8919   20 44 89          JSR .L97
891C   20 44 89          JSR .L97
891F   20 44 89          JSR .L97
8922   A0 00             LDY #&00
8924   18         .L92   CLC
8925   60                RTS
8926   C9 7B      .L93   CMP #&7B
8928   B0 FA             BCS .L92
892A   C9 5F             CMP #&5F
892C   B0 0E             BCS .L95
892E   C9 5B             CMP #&5B
8930   B0 F2             BCS .L92
8932   C9 41             CMP #&41
8934   B0 06             BCS .L95
8936   C9 3A      .L94   CMP #&3A
8938   B0 EA             BCS .L92
893A   C9 30             CMP #&30
893C   60         .L95   RTS
893D   C9 2E      .L96   CMP #&2E
893F   D0 F5             BNE .L94
8941   60                RTS
8942   B1 37             LDA (&37),Y
8944   E6 37      .L97   INC &37
8946   D0 02             BNE .L98
8948   E6 38             INC &38
894A   60         .L98   RTS
894B   20 44 89   .L99   JSR .L97
894E   B1 37             LDA (&37),Y
8950   60                RTS
8951   A0 00             LDY #&00
8953   84 3B             STY &3B
8955   84 3C             STY &3C
8957   B1 37      .L100  LDA (&37),Y
8959   C9 0D             CMP #&0D
895B   F0 ED             BEQ .L98
895D   C9 20             CMP #&20
895F   D0 05             BNE .L102
8961   20 44 89   .L101  JSR .L97
8964   D0 F1             BNE .L100
8966   C9 26      .L102  CMP #&26
8968   D0 12             BNE .L104
896A   20 4B 89   .L103  JSR .L99
896D   20 36 89          JSR .L94
8970   B0 F8             BCS .L103
8972   C9 41             CMP #&41
8974   90 E1             BCC .L100
8976   C9 47             CMP #&47
8978   90 F0             BCC .L103
897A   B0 DB             BCS .L100
897C   C9 22      .L104  CMP #&22
897E   D0 0C             BNE .L106
8980   20 4B 89   .L105  JSR .L99
8983   C9 22             CMP #&22
8985   F0 DA             BEQ .L101
8987   C9 0D             CMP #&0D
8989   D0 F5             BNE .L105
898B   60                RTS
898C   C9 3A      .L106  CMP #&3A
898E   D0 06             BNE .L107
8990   84 3B             STY &3B
8992   84 3C             STY &3C
8994   F0 CB             BEQ .L101
8996   C9 2C      .L107  CMP #&2C
8998   F0 C7             BEQ .L101
899A   C9 2A             CMP #&2A
899C   D0 05             BNE .L108
899E   A5 3B             LDA &3B
89A0   D0 41             BNE .L115
89A2   60                RTS
89A3   C9 2E      .L108  CMP #&2E
89A5   F0 0E             BEQ .L109
89A7   20 36 89          JSR .L94
89AA   90 33             BCC .L114
89AC   A6 3C             LDX &3C
89AE   F0 05             BEQ .L109
89B0   20 97 88          JSR .L87
89B3   90 34             BCC .L116
89B5   B1 37      .L109  LDA (&37),Y
89B7   20 3D 89          JSR .L96
89BA   90 06             BCC .L110
89BC   20 44 89          JSR .L97
89BF   4C B5 89          JMP .L109
89C2   A2 FF      .L110  LDX #&FF
89C4   86 3B             STX &3B
89C6   84 3C             STY &3C
89C8   4C 57 89          JMP .L100
89CB   20 26 89   .L111  JSR .L93
89CE   90 13             BCC .L115
89D0   A0 00      .L112  LDY #&00
89D2   B1 37      .L113  LDA (&37),Y
89D4   20 26 89          JSR .L93
89D7   90 E9             BCC .L110
89D9   20 44 89          JSR .L97
89DC   4C D2 89          JMP .L113
89DF   C9 41      .L114  CMP #&41
89E1   B0 09             BCS .L117
89E3   A2 FF      .L115  LDX #&FF
89E5   86 3B             STX &3B
89E7   84 3C             STY &3C
89E9   4C 61 89   .L116  JMP .L101
89EC   C9 58      .L117  CMP #&58
89EE   B0 DB             BCS .L111
89F0   A2 71             LDX #&71
89F2   86 39             STX &39
89F4   A2 80             LDX #&80
89F6   86 3A             STX &3A
89F8   D1 39      .L118  CMP (&39),Y
89FA   90 D6             BCC .L113
89FC   D0 0F             BNE .L120
89FE   C8         .L119  INY
89FF   B1 39             LDA (&39),Y
8A01   30 34             BMI .L125
8A03   D1 37             CMP (&37),Y
8A05   F0 F7             BEQ .L119
8A07   B1 37             LDA (&37),Y
8A09   C9 2E             CMP #&2E
8A0B   F0 0B             BEQ .L121
8A0D   C8         .L120  INY
8A0E   B1 39             LDA (&39),Y
8A10   10 FB             BPL .L120
8A12   C9 FE             CMP #&FE
8A14   D0 0F             BNE .L123
8A16   B0 B8             BCS .L112
8A18   C8         .L121  INY
8A19   B1 39      .L122  LDA (&39),Y
8A1B   30 1A             BMI .L125
8A1D   E6 39             INC &39
8A1F   D0 F8             BNE .L122
8A21   E6 3A             INC &3A
8A23   D0 F4             BNE .L122
8A25   38         .L123  SEC
8A26   C8                INY
8A27   98                TYA
8A28   65 39             ADC &39
8A2A   85 39             STA &39
8A2C   90 02             BCC .L124
8A2E   E6 3A             INC &3A
8A30   A0 00      .L124  LDY #&00
8A32   B1 37             LDA (&37),Y
8A34   4C F8 89          JMP .L118
8A37   AA         .L125  TAX
8A38   C8                INY
8A39   B1 39             LDA (&39),Y
8A3B   85 3D             STA &3D
8A3D   88                DEY
8A3E   4A                LSR A
8A3F   90 07             BCC .L126
8A41   B1 37             LDA (&37),Y
8A43   20 26 89          JSR .L93
8A46   B0 88             BCS .L112
8A48   8A         .L126  TXA
8A49   24 3D             BIT &3D
8A4B   50 07             BVC .L127
8A4D   A6 3B             LDX &3B
8A4F   D0 03             BNE .L127
8A51   18                CLC
8A52   69 40             ADC #&40
8A54   88         .L127  DEY
8A55   20 7C 88          JSR .L85
8A58   A0 00             LDY #&00
8A5A   A2 FF             LDX #&FF
8A5C   A5 3D             LDA &3D
8A5E   4A                LSR A
8A5F   4A                LSR A
8A60   90 04             BCC .L128
8A62   86 3B             STX &3B
8A64   84 3C             STY &3C
8A66   4A         .L128  LSR A
8A67   90 04             BCC .L129
8A69   84 3B             STY &3B
8A6B   84 3C             STY &3C
8A6D   4A         .L129  LSR A
8A6E   90 11             BCC .L132
8A70   48                PHA
8A71   C8                INY
8A72   B1 37      .L130  LDA (&37),Y
8A74   20 26 89          JSR .L93
8A77   90 06             BCC .L131
8A79   20 44 89          JSR .L97
8A7C   4C 72 8A          JMP .L130
8A7F   88         .L131  DEY
8A80   68                PLA
8A81   4A         .L132  LSR A
8A82   90 02             BCC .L133
8A84   86 3C             STX &3C
8A86   4A         .L133  LSR A
8A87   B0 0D             BCS .L135
8A89   4C 61 89          JMP .L101
8A8C   A4 1B      .L134  LDY &1B
8A8E   E6 1B             INC &1B
8A90   B1 19             LDA (&19),Y
8A92   C9 20             CMP #&20
8A94   F0 F6             BEQ .L134
8A96   60         .L135  RTS
8A97   A4 0A      .L136  LDY &0A
8A99   E6 0A             INC &0A
8A9B   B1 0B             LDA (&0B),Y
8A9D   C9 20             CMP #&20
8A9F   F0 F6             BEQ .L136
8AA1   60                RTS
8AA2   00                BRK
8AA3   05 4D             ORA &4D
8AA5   69 73             ADC #&73           "is"
8AA7   73                                   "s"
8AA8   69 6E             ADC #&6E           "in"
8AAA   67                                   "g"
8AAB   20 2C 00          JSR &002C
8AAE   20 8C 8A          JSR .L134
8AB1   C9 2C             CMP #&2C
8AB3   D0 ED             BNE &8AA2
8AB5   60                RTS                "`"
8AB6   20 57 98          JSR .L254
8AB9   A5 18             LDA &18
8ABB   85 38             STA &38
8ABD   A9 00             LDA #&00
8ABF   85 37             STA &37
8AC1   91 37             STA (&37),Y
8AC3   20 6F BE          JSR .L627
8AC6   D0 2B             BNE .L138
8AC8   20 57 98          JSR .L254
8ACB   20 6F BE          JSR .L627
8ACE   D0 26             BNE .L139
8AD0   20 57 98          JSR .L254
8AD3   00                BRK
8AD4   00                BRK
8AD5   53                                   "S"
8AD6   54                                   "T"
8AD7   4F                                   "O"
8AD8   50 00             BVC &8ADA
8ADA   20 57 98          JSR .L254
8ADD   A9 0D      .L137  LDA #&0D
8ADF   A4 18             LDY &18
8AE1   84 13             STY &13
8AE3   A0 00             LDY #&00
8AE5   84 12             STY &12
8AE7   84 20             STY &20
8AE9   91 12             STA (&12),Y
8AEB   A9 FF             LDA #&FF
8AED   C8                INY
8AEE   91 12             STA (&12),Y
8AF0   C8                INY
8AF1   84 12             STY &12
8AF3   20 20 BD   .L138  JSR .L603
8AF6   A0 07      .L139  LDY #&07
8AF8   84 0C             STY &0C
8AFA   A0 00             LDY #&00
8AFC   84 0B             STY &0B
8AFE   A9 33             LDA #&33
8B00   85 16             STA &16
8B02   A9 B4             LDA #&B4
8B04   85 17             STA &17
8B06   A9 3E             LDA #&3E
8B08   20 02 BC          JSR .L583
8B0B   A9 33             LDA #&33
8B0D   85 16             STA &16
8B0F   A9 B4             LDA #&B4
8B11   85 17             STA &17
8B13   A2 FF             LDX #&FF
8B15   86 28             STX &28
8B17   86 3C             STX &3C
8B19   9A                TXS
8B1A   20 3A BD          JSR .L605
8B1D   A8                TAY
8B1E   A5 0B             LDA &0B
8B20   85 37             STA &37
8B22   A5 0C             LDA &0C
8B24   85 38             STA &38
8B26   84 3B             STY &3B
8B28   84 0A             STY &0A
8B2A   20 57 89          JSR .L100
8B2D   20 DF 97          JSR .L245
8B30   90 06             BCC .L140
8B32   20 8D BC          JSR .L596
8B35   4C F3 8A          JMP .L138
8B38   20 97 8A   .L140  JSR .L136
8B3B   C9 C6             CMP #&C6
8B3D   B0 72             BCS .L153
8B3F   90 7E             BCC .L154
8B41   4C F6 8A   .L141  JMP .L139
8B44   4C 04 85   .L142  JMP .L04
8B47   BA         .L143  TSX
8B48   E0 FC             CPX #&FC
8B4A   B0 0D             BCS .L144
8B4C   AD FF 01          LDA &01FF
8B4F   C9 A4             CMP #&A4
8B51   D0 06             BNE .L144
8B53   20 1D 9B          JSR .L297
8B56   4C 4C 98          JMP .L253
8B59   00         .L144  BRK
8B5A   07
8B5B   4E 6F 20          LSR &206F          "No "
8B5E   A4 00             LDY &00
8B60   A4 0A      .L145  LDY &0A
8B62   88                DEY
8B63   B1 0B             LDA (&0B),Y
8B65   C9 3D             CMP #&3D
8B67   F0 DE             BEQ .L143
8B69   C9 2A             CMP #&2A
8B6B   F0 06             BEQ .L146
8B6D   C9 5B             CMP #&5B
8B6F   F0 D3             BEQ .L142
8B71   D0 23             BNE .L150
8B73   20 6D 98   .L146  JSR .L258
8B76   A6 0B             LDX &0B
8B78   A4 0C             LDY &0C
8B7A   20 F7 FF          JSR .L643
8B7D   A9 0D      .L147  LDA #&0D
8B7F   A4 0A             LDY &0A
8B81   88                DEY
8B82   C8         .L148  INY
8B83   D1 0B             CMP (&0B),Y
8B85   D0 FB             BNE .L148
8B87   C9 8B      .L149  CMP #&8B
8B89   F0 F2             BEQ .L147
8B8B   A5 0C             LDA &0C
8B8D   C9 07             CMP #&07
8B8F   F0 B0             BEQ .L141
8B91   20 90 98          JSR .L260
8B94   D0 0D             BNE .L152
8B96   C6 0A      .L150  DEC &0A
8B98   20 57 98          JSR .L254
8B9B   A0 00      .L151  LDY #&00
8B9D   B1 0B             LDA (&0B),Y
8B9F   C9 3A             CMP #&3A
8BA1   D0 E4             BNE .L149
8BA3   A4 0A      .L152  LDY &0A
8BA5   E6 0A             INC &0A
8BA7   B1 0B             LDA (&0B),Y
8BA9   C9 20             CMP #&20
8BAB   F0 F6             BEQ .L152
8BAD   C9 CF             CMP #&CF
8BAF   90 0E             BCC .L154
8BB1   AA         .L153  TAX
8BB2   BD DF 82          LDA &82DF,X
8BB5   85 37             STA &37
8BB7   BD 51 83          LDA &8351,X
8BBA   85 38             STA &38
8BBC   6C 37 00          JMP (&0037)
8BBF   A6 0B      .L154  LDX &0B
8BC1   86 19             STX &19
8BC3   A6 0C             LDX &0C
8BC5   86 1A             STX &1A
8BC7   84 1B             STY &1B
8BC9   20 DD 95          JSR .L214
8BCC   D0 1B             BNE .L156
8BCE   B0 90             BCS .L145
8BD0   86 1B             STX &1B
8BD2   20 41 98          JSR .L251
8BD5   20 FC 94          JSR .L194
8BD8   A2 05             LDX #&05
8BDA   E4 2C             CPX &2C
8BDC   D0 01             BNE .L155
8BDE   E8                INX
8BDF   20 31 95   .L155  JSR .L198
8BE2   C6 0A             DEC &0A
8BE4   20 82 95          JSR .L205
8BE7   F0 22             BEQ .L158
8BE9   90 10      .L156  BCC .L157
8BEB   20 94 BD          JSR .L608
8BEE   20 13 98          JSR .L247
8BF1   A5 27             LDA &27
8BF3   D0 19             BNE .L159
8BF5   20 1E 8C          JSR .L160
8BF8   4C 9B 8B          JMP .L151
8BFB   20 94 BD   .L157  JSR .L608
8BFE   20 13 98          JSR .L247
8C01   A5 27             LDA &27
8C03   F0 09             BEQ .L159
8C05   20 B4 B4          JSR .L564
8C08   4C 9B 8B          JMP .L151
8C0B   4C 2A 98   .L158  JMP .L249
8C0E   00         .L159  BRK
8C0F   06 54             ASL &54
8C11   79 70 65          ADC &6570,Y        "ype"
8C14   20 6D 69          JSR &696D          " mi"
8C17   73                                   "s"
8C18   6D 61 74          ADC &7461          "mat"
8C1B   63                                   "c"
8C1C   68                PLA                "h"
8C1D   00                BRK
8C1E   20 EA BD   .L160  JSR .L615
8C21   A5 2C             LDA &2C
8C23   C9 80             CMP #&80
8C25   F0 7B             BEQ .L166
8C27   A0 02             LDY #&02
8C29   B1 2A             LDA (&2A),Y
8C2B   C5 36             CMP &36
8C2D   B0 55             BCS .L163
8C2F   A5 02             LDA &02
8C31   85 2C             STA &2C
8C33   A5 03             LDA &03
8C35   85 2D             STA &2D
8C37   A5 36             LDA &36
8C39   C9 08             CMP #&08
8C3B   90 06             BCC .L161
8C3D   69 07             ADC #&07
8C3F   90 02             BCC .L161
8C41   A9 FF             LDA #&FF
8C43   18         .L161  CLC
8C44   48                PHA
8C45   AA                TAX
8C46   B1 2A             LDA (&2A),Y
8C48   A0 00             LDY #&00
8C4A   71 2A             ADC (&2A),Y
8C4C   45 02             EOR &02
8C4E   D0 0F             BNE .L162
8C50   C8                INY
8C51   71 2A             ADC (&2A),Y
8C53   45 03             EOR &03
8C55   D0 08             BNE .L162
8C57   85 2D             STA &2D
8C59   8A                TXA
8C5A   C8                INY
8C5B   38                SEC
8C5C   F1 2A             SBC (&2A),Y
8C5E   AA                TAX
8C5F   8A         .L162  TXA
8C60   18                CLC
8C61   65 02             ADC &02
8C63   A8                TAY
8C64   A5 03             LDA &03
8C66   69 00             ADC #&00
8C68   C4 04             CPY &04
8C6A   AA                TAX
8C6B   E5 05             SBC &05
8C6D   B0 48             BCS .L169
8C6F   84 02             STY &02
8C71   86 03             STX &03
8C73   68                PLA
8C74   A0 02             LDY #&02
8C76   91 2A             STA (&2A),Y
8C78   88                DEY
8C79   A5 2D             LDA &2D
8C7B   F0 07             BEQ .L163
8C7D   91 2A             STA (&2A),Y
8C7F   88                DEY
8C80   A5 2C             LDA &2C
8C82   91 2A             STA (&2A),Y
8C84   A0 03      .L163  LDY #&03
8C86   A5 36             LDA &36
8C88   91 2A             STA (&2A),Y
8C8A   F0 15             BEQ .L165
8C8C   88                DEY
8C8D   88                DEY
8C8E   B1 2A             LDA (&2A),Y
8C90   85 2D             STA &2D
8C92   88                DEY
8C93   B1 2A             LDA (&2A),Y
8C95   85 2C             STA &2C
8C97   B9 00 06   .L164  LDA &0600,Y
8C9A   91 2C             STA (&2C),Y
8C9C   C8                INY
8C9D   C4 36             CPY &36
8C9F   D0 F6             BNE .L164
8CA1   60         .L165  RTS
8CA2   20 BA BE   .L166  JSR .L634
8CA5   C0 00             CPY #&00
8CA7   F0 0B             BEQ .L168
8CA9   B9 00 06   .L167  LDA &0600,Y
8CAC   91 2A             STA (&2A),Y
8CAE   88                DEY
8CAF   D0 F8             BNE .L167
8CB1   AD 00 06          LDA &0600
8CB4   91 2A      .L168  STA (&2A),Y
8CB6   60                RTS
8CB7   00         .L169  BRK
8CB8   00                BRK
8CB9   4E 6F 20          LSR &206F          "No "
8CBC   72                                   "r"
8CBD   6F                                   "o"
8CBE   6F                                   "o"
8CBF   6D 00 A5          ADC .L448
8CC2   39 C9 80          AND &80C9,Y
8CC5   F0 27             BEQ &8CEE
8CC7   90 3A             BCC &8D03
8CC9   A0 00             LDY #&00
8CCB   B1 04             LDA (&04),Y
8CCD   AA                TAX
8CCE   F0 15             BEQ &8CE5
8CD0   B1 37             LDA (&37),Y
8CD2   E9 01             SBC #&01
8CD4   85 39             STA &39
8CD6   C8                INY
8CD7   B1 37             LDA (&37),Y
8CD9   E9 00             SBC #&00
8CDB   85 3A             STA &3A
8CDD   B1 04             LDA (&04),Y
8CDF   91 39             STA (&39),Y
8CE1   C8                INY
8CE2   CA                DEX
8CE3   D0 F8             BNE &8CDD
8CE5   A1 04             LDA (&04,X)
8CE7   A0 03             LDY #&03
8CE9   91 37             STA (&37),Y
8CEB   4C DC BD          JMP .L614
8CEE   A0 00             LDY #&00
8CF0   B1 04             LDA (&04),Y
8CF2   AA                TAX
8CF3   F0 0A             BEQ &8CFF
8CF5   C8                INY
8CF6   B1 04             LDA (&04),Y
8CF8   88                DEY
8CF9   91 37             STA (&37),Y
8CFB   C8                INY
8CFC   CA                DEX
8CFD   D0 F6             BNE &8CF5
8CFF   A9 0D             LDA #&0D
8D01   D0 E6             BNE &8CE9
8D03   A0 00             LDY #&00
8D05   B1 04             LDA (&04),Y
8D07   91 37             STA (&37),Y
8D09   C8                INY
8D0A   C4 39             CPY &39
8D0C   B0 18             BCS &8D26
8D0E   B1 04             LDA (&04),Y
8D10   91 37             STA (&37),Y
8D12   C8                INY
8D13   B1 04             LDA (&04),Y
8D15   91 37             STA (&37),Y
8D17   C8                INY
8D18   B1 04             LDA (&04),Y
8D1A   91 37             STA (&37),Y
8D1C   C8                INY
8D1D   C4 39             CPY &39
8D1F   B0 05             BCS &8D26
8D21   B1 04             LDA (&04),Y
8D23   91 37             STA (&37),Y
8D25   C8                INY
8D26   98                TYA
8D27   18                CLC
8D28   4C E1 BD          JMP &BDE1
8D2B   C6 0A             DEC &0A
8D2D   20 A9 BF          JSR &BFA9
8D30   98                TYA
8D31   48                PHA                "H"
8D32   20 8C 8A          JSR .L134
8D35   C9 2C             CMP #&2C
8D37   D0 3E             BNE &8D77
8D39   20 29 9B          JSR .L298
8D3C   20 85 A3          JSR .L423
8D3F   68                PLA                "h"
8D40   A8                TAY
8D41   A5 27             LDA &27
8D43   20 D4 FF          JSR &FFD4
8D46   AA                TAX
8D47   F0 1B             BEQ &8D64
8D49   30 0C             BMI &8D57
8D4B   A2 03             LDX #&03
8D4D   B5 2A             LDA &2A,X
8D4F   20 D4 FF          JSR &FFD4
8D52   CA                DEX
8D53   10 F8             BPL &8D4D
8D55   30 D9             BMI &8D30
8D57   A2 04             LDX #&04
8D59   BD 6C 04          LDA &046C,X
8D5C   20 D4 FF          JSR &FFD4
8D5F   CA                DEX
8D60   10 F7             BPL &8D59
8D62   30 CC             BMI &8D30
8D64   A5 36             LDA &36
8D66   20 D4 FF          JSR &FFD4
8D69   AA                TAX
8D6A   F0 C4             BEQ &8D30
8D6C   BD FF 05          LDA &05FF,X
8D6F   20 D4 FF          JSR &FFD4
8D72   CA                DEX
8D73   D0 F7             BNE &8D6C
8D75   F0 B9             BEQ &8D30
8D77   68                PLA                "h"
8D78   84 0A             STY &0A
8D7A   4C 98 8B          JMP &8B98
8D7D   20 25 BC          JSR .L584
8D80   4C 96 8B          JMP .L150
8D83   A9 00             LDA #&00
8D85   85 14             STA &14
8D87   85 15             STA &15
8D89   20 97 8A          JSR .L136
8D8C   C9 3A             CMP #&3A
8D8E   F0 F0             BEQ &8D80
8D90   C9 0D             CMP #&0D
8D92   F0 EC             BEQ &8D80
8D94   C9 8B             CMP #&8B
8D96   F0 E8             BEQ &8D80
8D98   D0 38             BNE &8DD2
8D9A   20 97 8A          JSR .L136
8D9D   C9 23             CMP #&23
8D9F   F0 8A             BEQ &8D2B
8DA1   C6 0A             DEC &0A
8DA3   4C BB 8D          JMP &8DBB
8DA6   AD 00 04          LDA &0400
8DA9   F0 10             BEQ &8DBB
8DAB   A5 1E             LDA &1E
8DAD   F0 0C             BEQ &8DBB
8DAF   ED 00 04          SBC &0400
8DB2   B0 F9             BCS &8DAD
8DB4   A8                TAY
8DB5   20 65 B5          JSR .L580
8DB8   C8                INY
8DB9   D0 FA             BNE &8DB5
8DBB   18                CLC
8DBC   AD 00 04          LDA &0400
8DBF   85 14             STA &14
8DC1   66 15             ROR &15
8DC3   20 97 8A          JSR .L136
8DC6   C9 3A             CMP #&3A
8DC8   F0 B3             BEQ &8D7D
8DCA   C9 0D             CMP #&0D
8DCC   F0 AF             BEQ &8D7D
8DCE   C9 8B             CMP #&8B
8DD0   F0 AB             BEQ &8D7D
8DD2   C9 7E             CMP #&7E
8DD4   F0 EB             BEQ &8DC1
8DD6   C9 2C             CMP #&2C
8DD8   F0 CC             BEQ &8DA6
8DDA   C9 3B             CMP #&3B
8DDC   F0 A5             BEQ &8D83
8DDE   20 70 8E          JSR &8E70
8DE1   90 E0             BCC &8DC3
8DE3   A5 14             LDA &14
8DE5   48                PHA                "H"
8DE6   A5 15             LDA &15
8DE8   48                PHA                "H"
8DE9   C6 1B             DEC &1B
8DEB   20 29 9B          JSR .L298
8DEE   68                PLA                "h"
8DEF   85 15             STA &15
8DF1   68                PLA                "h"
8DF2   85 14             STA &14
8DF4   A5 1B             LDA &1B
8DF6   85 0A             STA &0A
8DF8   98                TYA
8DF9   F0 13             BEQ &8E0E
8DFB   20 DF 9E          JSR &9EDF
8DFE   A5 14             LDA &14
8E00   38                SEC                "8"
8E01   E5 36             SBC &36
8E03   90 09             BCC &8E0E
8E05   F0 07             BEQ &8E0E
8E07   A8                TAY
8E08   20 65 B5          JSR .L580
8E0B   88                DEY
8E0C   D0 FA             BNE &8E08
8E0E   A5 36             LDA &36
8E10   F0 B1             BEQ &8DC3
8E12   A0 00             LDY #&00
8E14   B9 00 06          LDA &0600,Y
8E17   20 58 B5          JSR .L578
8E1A   C8                INY
8E1B   C4 36             CPY &36
8E1D   D0 F5             BNE &8E14
8E1F   F0 A2             BEQ &8DC3
8E21   4C A2 8A          JMP &8AA2
8E24   C9 2C             CMP #&2C
8E26   D0 F9             BNE &8E21
8E28   A5 2A             LDA &2A
8E2A   48                PHA                "H"
8E2B   20 56 AE          JSR .L539
8E2E   20 F0 92          JSR .L179
8E31   A9 1F             LDA #&1F
8E33   20 EE FF          JSR .L640
8E36   68                PLA                "h"
8E37   20 EE FF          JSR .L640
8E3A   20 56 94          JSR &9456
8E3D   4C 6A 8E          JMP &8E6A
8E40   20 DD 92          JSR .L176
8E43   20 8C 8A          JSR .L134
8E46   C9 29             CMP #&29
8E48   D0 DA             BNE &8E24
8E4A   A5 2A             LDA &2A
8E4C   E5 1E             SBC &1E
8E4E   F0 1A             BEQ &8E6A
8E50   A8                TAY
8E51   B0 0C             BCS &8E5F
8E53   20 25 BC          JSR .L584
8E56   F0 03             BEQ &8E5B
8E58   20 E3 92          JSR .L177
8E5B   A4 2A             LDY &2A
8E5D   F0 0B             BEQ &8E6A
8E5F   20 65 B5          JSR .L580
8E62   88                DEY
8E63   D0 FA             BNE &8E5F
8E65   F0 03             BEQ &8E6A
8E67   20 25 BC          JSR .L584
8E6A   18                CLC
8E6B   A4 1B             LDY &1B
8E6D   84 0A             STY &0A
8E6F   60                RTS                "`"
8E70   A6 0B             LDX &0B
8E72   86 19             STX &19
8E74   A6 0C             LDX &0C
8E76   86 1A             STX &1A
8E78   A6 0A             LDX &0A
8E7A   86 1B             STX &1B
8E7C   C9 27             CMP #&27
8E7E   F0 E7             BEQ &8E67
8E80   C9 8A             CMP #&8A
8E82   F0 BC             BEQ &8E40
8E84   C9 89             CMP #&89
8E86   F0 D0             BEQ &8E58
8E88   38                SEC                "8"
8E89   60                RTS                "`"
8E8A   20 97 8A          JSR .L136
8E8D   20 70 8E          JSR &8E70
8E90   90 F7             BCC &8E89
8E92   C9 22             CMP #&22
8E94   F0 11             BEQ &8EA7
8E96   38                SEC                "8"
8E97   60                RTS                "`"
8E98   00         .L170  BRK
8E99   09 4D             ORA #&4D
8E9B   69 73             ADC #&73           "is"
8E9D   73                                   "s"
8E9E   69 6E             ADC #&6E           "in"
8EA0   67                                   "g"
8EA1   20 22 00          JSR &0022
8EA4   20 58 B5          JSR .L578
8EA7   C8                INY
8EA8   B1 19             LDA (&19),Y
8EAA   C9 0D             CMP #&0D
8EAC   F0 EA             BEQ .L170
8EAE   C9 22             CMP #&22
8EB0   D0 F2             BNE &8EA4
8EB2   C8                INY
8EB3   84 1B             STY &1B
8EB5   B1 19             LDA (&19),Y
8EB7   C9 22             CMP #&22
8EB9   D0 AF             BNE &8E6A
8EBB   F0 E7             BEQ &8EA4
8EBD   20 57 98          JSR .L254
8EC0   A9 10             LDA #&10
8EC2   D0 08             BNE &8ECC
8EC4   20 57 98          JSR .L254
8EC7   20 28 BC          JSR .L585
8ECA   A9 0C             LDA #&0C
8ECC   20 EE FF          JSR .L640
8ECF   4C 9B 8B          JMP .L151
8ED2   20 1D 9B          JSR .L297
8ED5   20 EE 92          JSR &92EE
8ED8   20 94 BD          JSR .L608
8EDB   A0 00             LDY #&00
8EDD   8C 00 06          STY &0600
8EE0   8C FF 06          STY &06FF
8EE3   20 8C 8A          JSR .L134
8EE6   C9 2C             CMP #&2C
8EE8   D0 22             BNE &8F0C
8EEA   A4 1B             LDY &1B
8EEC   20 D5 95          JSR &95D5
8EEF   F0 2A             BEQ &8F1B
8EF1   AC FF 06          LDY &06FF
8EF4   C8                INY
8EF5   A5 2A             LDA &2A
8EF7   99 00 06          STA &0600,Y
8EFA   C8                INY
8EFB   A5 2B             LDA &2B
8EFD   99 00 06          STA &0600,Y
8F00   C8                INY
8F01   A5 2C             LDA &2C
8F03   99 00 06          STA &0600,Y
8F06   EE 00 06          INC &0600
8F09   4C E0 8E          JMP &8EE0
8F0C   C6 1B             DEC &1B
8F0E   20 52 98          JSR &9852
8F11   20 EA BD          JSR .L615
8F14   20 1E 8F          JSR &8F1E
8F17   D8                CLD
8F18   4C 9B 8B          JMP .L151
8F1B   4C 43 AE          JMP .L538
8F1E   AD 0C 04          LDA &040C
8F21   4A                LSR A              "J"
8F22   AD 04 04          LDA &0404
8F25   AE 60 04          LDX &0460
8F28   AC 64 04          LDY &0464
8F2B   6C 2A 00          JMP (&002A)
8F2E   4C 2A 98          JMP .L249
8F31   20 DF 97          JSR .L245
8F34   90 F8             BCC &8F2E
8F36   20 94 BD          JSR .L608
8F39   20 97 8A          JSR .L136
8F3C   C9 2C             CMP #&2C
8F3E   D0 EE             BNE &8F2E
8F40   20 DF 97          JSR .L245
8F43   90 E9             BCC &8F2E
8F45   20 57 98          JSR .L254
8F48   A5 2A             LDA &2A
8F4A   85 39             STA &39
8F4C   A5 2B             LDA &2B
8F4E   85 3A             STA &3A
8F50   20 EA BD          JSR .L615
8F53   20 2D BC          JSR .L586
8F56   20 7B 98          JSR &987B
8F59   20 22 92          JSR &9222
8F5C   A5 39             LDA &39
8F5E   C5 2A             CMP &2A
8F60   A5 3A             LDA &3A
8F62   E5 2B             SBC &2B
8F64   B0 ED             BCS &8F53
8F66   4C F3 8A          JMP .L138
8F69   A9 0A             LDA #&0A
8F6B   20 D8 AE          JSR .L548
8F6E   20 DF 97          JSR .L245
8F71   20 94 BD          JSR .L608
8F74   A9 0A             LDA #&0A
8F76   20 D8 AE          JSR .L548
8F79   20 97 8A          JSR .L136
8F7C   C9 2C             CMP #&2C
8F7E   D0 0D             BNE &8F8D
8F80   20 DF 97          JSR .L245
8F83   A5 2B             LDA &2B
8F85   D0 58             BNE &8FDF
8F87   A5 2A             LDA &2A
8F89   F0 54             BEQ &8FDF
8F8B   E6 0A             INC &0A
8F8D   C6 0A             DEC &0A
8F8F   4C 57 98          JMP .L254
8F92   A5 12             LDA &12
8F94   85 3B             STA &3B
8F96   A5 13             LDA &13
8F98   85 3C             STA &3C
8F9A   A5 18             LDA &18
8F9C   85 38             STA &38
8F9E   A9 01             LDA #&01
8FA0   85 37             STA &37
8FA2   60                RTS                "`"
8FA3   20 69 8F          JSR &8F69
8FA6   A2 39             LDX #&39
8FA8   20 0D BE          JSR .L619
8FAB   20 6F BE          JSR .L627
8FAE   20 92 8F          JSR &8F92
8FB1   A0 00             LDY #&00
8FB3   B1 37             LDA (&37),Y
8FB5   30 30             BMI &8FE7          "00"
8FB7   91 3B             STA (&3B),Y
8FB9   C8                INY
8FBA   B1 37             LDA (&37),Y
8FBC   91 3B             STA (&3B),Y
8FBE   38                SEC                "8"
8FBF   98                TYA
8FC0   65 3B             ADC &3B            "e;"
8FC2   85 3B             STA &3B
8FC4   AA                TAX
8FC5   A5 3C             LDA &3C
8FC7   69 00             ADC #&00
8FC9   85 3C             STA &3C
8FCB   E4 06             CPX &06
8FCD   E5 07             SBC &07
8FCF   B0 05             BCS &8FD6
8FD1   20 9F 90          JSR &909F
8FD4   90 DB             BCC &8FB1
8FD6   00                BRK
8FD7   00                BRK
8FD8   CC 20 73          CPY &7320
8FDB   70 61             BVS &903E          "pa"
8FDD   63                                   "c"
8FDE   65 00             ADC &00
8FE0   00                BRK
8FE1   53                                   "S"
8FE2   69 6C             ADC #&6C           "il"
8FE4   6C 79 00          JMP (&0079)
8FE7   20 9A 8F          JSR &8F9A
8FEA   A0 00             LDY #&00
8FEC   B1 37             LDA (&37),Y
8FEE   30 1D             BMI &900D
8FF0   A5 3A             LDA &3A
8FF2   91 37             STA (&37),Y
8FF4   A5 39             LDA &39
8FF6   C8                INY
8FF7   91 37             STA (&37),Y
8FF9   18                CLC
8FFA   A5 2A             LDA &2A
8FFC   65 39             ADC &39            "e9"
8FFE   85 39             STA &39
9000   A9 00             LDA #&00
9002   65 3A             ADC &3A            "e:"
9004   29 7F             AND #&7F
9006   85 3A             STA &3A
9008   20 9F 90          JSR &909F
900B   90 DD             BCC &8FEA
900D   A5 18             LDA &18
900F   85 0C             STA &0C
9011   A0 00             LDY #&00
9013   84 0B             STY &0B
9015   C8                INY
9016   B1 0B             LDA (&0B),Y
9018   30 20             BMI &903A          "0 "
901A   A0 04             LDY #&04
901C   B1 0B             LDA (&0B),Y
901E   C9 8D             CMP #&8D
9020   F0 1B             BEQ &903D
9022   C8                INY
9023   C9 0D             CMP #&0D
9025   D0 F5             BNE &901C
9027   B1 0B             LDA (&0B),Y
9029   30 0F             BMI &903A
902B   A0 03             LDY #&03
902D   B1 0B             LDA (&0B),Y
902F   18                CLC
9030   65 0B             ADC &0B
9032   85 0B             STA &0B
9034   90 E4             BCC &901A
9036   E6 0C             INC &0C
9038   B0 E0             BCS &901A
903A   4C F3 8A          JMP .L138
903D   20 EB 97          JSR &97EB
9040   20 92 8F          JSR &8F92
9043   A0 00             LDY #&00
9045   B1 37             LDA (&37),Y
9047   30 37             BMI &9080          "07"
9049   B1 3B             LDA (&3B),Y
904B   C8                INY
904C   C5 2B             CMP &2B
904E   D0 21             BNE &9071
9050   B1 3B             LDA (&3B),Y
9052   C5 2A             CMP &2A
9054   D0 1B             BNE &9071
9056   B1 37             LDA (&37),Y
9058   85 3D             STA &3D
905A   88                DEY
905B   B1 37             LDA (&37),Y
905D   85 3E             STA &3E
905F   A4 0A             LDY &0A
9061   88                DEY
9062   A5 0B             LDA &0B
9064   85 37             STA &37
9066   A5 0C             LDA &0C
9068   85 38             STA &38
906A   20 F5 88          JSR &88F5
906D   A4 0A             LDY &0A
906F   D0 AB             BNE &901C
9071   20 9F 90          JSR &909F
9074   A5 3B             LDA &3B
9076   69 02             ADC #&02
9078   85 3B             STA &3B
907A   90 C7             BCC &9043
907C   E6 3C             INC &3C
907E   B0 C3             BCS &9043
9080   20 CF BF          JSR .L635
9083   46 61             LSR &61            "Fa"
9085   69 6C             ADC #&6C           "il"
9087   65 64             ADC &64            "ed"
9089   20 61 74          JSR &7461          " at"
908C   20 C8 B1          JSR &B1C8
908F   0B
9090   85 2B             STA &2B
9092   C8                INY
9093   B1 0B             LDA (&0B),Y
9095   85 2A             STA &2A
9097   20 1F 99          JSR .L266
909A   20 25 BC          JSR .L584
909D   F0 CE             BEQ &906D
909F   C8                INY
90A0   B1 37             LDA (&37),Y
90A2   65 37             ADC &37            "e7"
90A4   85 37             STA &37
90A6   90 03             BCC &90AB
90A8   E6 38             INC &38
90AA   18                CLC
90AB   60                RTS                "`"
90AC   20 69 8F          JSR &8F69
90AF   A5 2A             LDA &2A
90B1   48                PHA                "H"
90B2   20 EA BD          JSR .L615
90B5   20 94 BD          JSR .L608
90B8   20 23 99          JSR &9923
90BB   A9 20             LDA #&20
90BD   20 02 BC          JSR .L583
90C0   20 EA BD          JSR .L615
90C3   20 51 89          JSR &8951
90C6   20 8D BC          JSR .L596
90C9   20 20 BD          JSR .L603
90CC   68                PLA                "h"
90CD   48                PHA                "H"
90CE   18                CLC
90CF   65 2A             ADC &2A            "e*"
90D1   85 2A             STA &2A
90D3   90 E0             BCC &90B5
90D5   E6 2B             INC &2B
90D7   10 DC             BPL &90B5
90D9   4C F3 8A          JMP .L138
90DC   4C 18 92          JMP &9218
90DF   C6 0A             DEC &0A
90E1   20 82 95          JSR .L205
90E4   F0 41             BEQ .L171
90E6   B0 3F             BCS .L171
90E8   20 94 BD          JSR .L608
90EB   20 DD 92          JSR .L176
90EE   20 22 92          JSR &9222
90F1   A5 2D             LDA &2D
90F3   05 2C             ORA &2C
90F5   D0 30             BNE .L171
90F7   18                CLC
90F8   A5 2A             LDA &2A
90FA   65 02             ADC &02
90FC   A8                TAY
90FD   A5 2B             LDA &2B
90FF   65 03             ADC &03
9101   AA                TAX
9102   C4 04             CPY &04
9104   E5 05             SBC &05
9106   B0 D4             BCS &90DC
9108   A5 02             LDA &02
910A   85 2A             STA &2A
910C   A5 03             LDA &03
910E   85 2B             STA &2B
9110   84 02             STY &02
9112   86 03             STX &03
9114   A9 00             LDA #&00
9116   85 2C             STA &2C
9118   85 2D             STA &2D
911A   A9 40             LDA #&40
911C   85 27             STA &27
911E   20 B4 B4          JSR .L564
9121   20 27 88          JSR .L76
9124   4C 0B 92          JMP &920B
9127   00         .L171  BRK
9128   0A                ASL A
9129   42                                   "B"
912A   61 64             ADC (&64,X)        "ad"
912C   20 DE 00          JSR &00DE
912F   20 97 8A          JSR .L136
9132   98                TYA
9133   18                CLC
9134   65 0B             ADC &0B
9136   A6 0C             LDX &0C
9138   90 02             BCC &913C
913A   E8                INX
913B   18                CLC
913C   E9 00             SBC #&00
913E   85 37             STA &37
9140   8A                TXA
9141   E9 00             SBC #&00
9143   85 38             STA &38
9145   A2 05             LDX #&05
9147   86 3F             STX &3F
9149   A6 0A             LDX &0A
914B   20 59 95          JSR &9559
914E   C0 01             CPY #&01
9150   F0 D5             BEQ .L171
9152   C9 28             CMP #&28
9154   F0 15             BEQ &916B
9156   C9 24             CMP #&24
9158   F0 04             BEQ &915E
915A   C9 25             CMP #&25
915C   D0 0A             BNE &9168
915E   C6 3F             DEC &3F
9160   C8                INY
9161   E8                INX
9162   B1 37             LDA (&37),Y
9164   C9 28             CMP #&28
9166   F0 03             BEQ &916B
9168   4C DF 90          JMP &90DF
916B   84 39             STY &39
916D   86 0A             STX &0A
916F   20 69 94          JSR .L184
9172   D0 B3             BNE .L171
9174   20 FC 94          JSR .L194
9177   A2 01             LDX #&01
9179   20 31 95          JSR .L198
917C   A5 3F             LDA &3F
917E   48                PHA                "H"
917F   A9 01             LDA #&01
9181   48                PHA                "H"
9182   20 D8 AE          JSR .L548
9185   20 94 BD          JSR .L608
9188   20 21 88          JSR .L75
918B   A5 2B             LDA &2B
918D   29 C0             AND #&C0
918F   05 2C             ORA &2C
9191   05 2D             ORA &2D
9193   D0 92             BNE .L171
9195   20 22 92          JSR &9222
9198   68                PLA                "h"
9199   A8                TAY
919A   A5 2A             LDA &2A
919C   91 02             STA (&02),Y
919E   C8                INY
919F   A5 2B             LDA &2B
91A1   91 02             STA (&02),Y
91A3   C8                INY
91A4   98                TYA
91A5   48                PHA                "H"
91A6   20 31 92          JSR &9231
91A9   20 97 8A          JSR .L136
91AC   C9 2C             CMP #&2C
91AE   F0 D5             BEQ &9185
91B0   C9 29             CMP #&29
91B2   F0 03             BEQ &91B7
91B4   4C 27 91          JMP .L171
91B7   68                PLA                "h"
91B8   85 15             STA &15
91BA   68                PLA                "h"
91BB   85 3F             STA &3F
91BD   A9 00             LDA #&00
91BF   85 40             STA &40
91C1   20 36 92          JSR .L172
91C4   A0 00             LDY #&00
91C6   A5 15             LDA &15
91C8   91 02             STA (&02),Y
91CA   65 2A             ADC &2A            "e*"
91CC   85 2A             STA &2A
91CE   90 02             BCC &91D2
91D0   E6 2B             INC &2B
91D2   A5 03             LDA &03
91D4   85 38             STA &38
91D6   A5 02             LDA &02
91D8   85 37             STA &37
91DA   18                CLC
91DB   65 2A             ADC &2A            "e*"
91DD   A8                TAY
91DE   A5 2B             LDA &2B
91E0   65 03             ADC &03
91E2   B0 34             BCS &9218
91E4   AA                TAX
91E5   C4 04             CPY &04
91E7   E5 05             SBC &05
91E9   B0 2D             BCS &9218
91EB   84 02             STY &02
91ED   86 03             STX &03
91EF   A5 37             LDA &37
91F1   65 15             ADC &15
91F3   A8                TAY
91F4   A9 00             LDA #&00
91F6   85 37             STA &37
91F8   90 02             BCC &91FC
91FA   E6 38             INC &38
91FC   91 37             STA (&37),Y
91FE   C8                INY
91FF   D0 02             BNE &9203
9201   E6 38             INC &38
9203   C4 02             CPY &02
9205   D0 F5             BNE &91FC
9207   E4 38             CPX &38
9209   D0 F1             BNE &91FC
920B   20 97 8A          JSR .L136
920E   C9 2C             CMP #&2C
9210   F0 03             BEQ &9215
9212   4C 96 8B          JMP .L150
9215   4C 2F 91          JMP &912F
9218   00                BRK
9219   0B
921A   DE 20 73          DEC &7320,X
921D   70 61             BVS &9280          "pa"
921F   63                                   "c"
9220   65 00             ADC &00
9222   E6 2A             INC &2A
9224   D0 0A             BNE &9230
9226   E6 2B             INC &2B
9228   D0 06             BNE &9230
922A   E6 2C             INC &2C
922C   D0 02             BNE &9230
922E   E6 2D             INC &2D
9230   60                RTS                "`"
9231   A2 3F             LDX #&3F
9233   20 0D BE          JSR .L619
9236   A2 00      .L172  LDX #&00
9238   A0 00             LDY #&00
923A   46 40      .L173  LSR &40
923C   66 3F             ROR &3F
923E   90 0B             BCC .L174
9240   18                CLC
9241   98                TYA
9242   65 2A             ADC &2A
9244   A8                TAY
9245   8A                TXA
9246   65 2B             ADC &2B
9248   AA                TAX
9249   B0 0F             BCS .L175
924B   06 2A      .L174  ASL &2A
924D   26 2B             ROL &2B
924F   A5 3F             LDA &3F
9251   05 40             ORA &40
9253   D0 E5             BNE .L173
9255   84 2A             STY &2A
9257   86 2B             STX &2B
9259   60                RTS
925A   4C 27 91   .L175  JMP .L171
925D   20 EB 92          JSR &92EB
9260   A5 2A             LDA &2A
9262   85 06             STA &06
9264   85 04             STA &04
9266   A5 2B             LDA &2B
9268   85 07             STA &07
926A   85 05             STA &05
926C   4C 9B 8B          JMP .L151
926F   20 EB 92          JSR &92EB
9272   A5 2A             LDA &2A
9274   85 00             STA &00
9276   85 02             STA &02
9278   A5 2B             LDA &2B
927A   85 01             STA &01
927C   85 03             STA &03
927E   20 2F BD          JSR &BD2F
9281   F0 07             BEQ &928A
9283   20 EB 92          JSR &92EB
9286   A5 2B             LDA &2B
9288   85 18             STA &18
928A   4C 9B 8B          JMP .L151
928D   20 57 98          JSR .L254
9290   20 20 BD          JSR .L603
9293   F0 F5             BEQ &928A
9295   20 DF 97          JSR .L245
9298   B0 0B             BCS &92A5
929A   C9 EE             CMP #&EE
929C   F0 19             BEQ &92B7
929E   C9 87             CMP #&87
92A0   F0 1E             BEQ &92C0
92A2   20 21 88          JSR .L75
92A5   20 57 98          JSR .L254
92A8   A5 2A             LDA &2A
92AA   85 21             STA &21
92AC   A5 2B             LDA &2B
92AE   85 22             STA &22
92B0   A9 FF             LDA #&FF
92B2   85 20             STA &20
92B4   4C 9B 8B          JMP .L151
92B7   E6 0A             INC &0A
92B9   20 57 98          JSR .L254
92BC   A9 FF             LDA #&FF
92BE   D0 EE             BNE &92AE
92C0   E6 0A             INC &0A
92C2   20 57 98          JSR .L254
92C5   A9 00             LDA #&00
92C7   F0 E9             BEQ &92B2
92C9   20 EB 92          JSR &92EB
92CC   A2 2A             LDX #&2A
92CE   A0 00             LDY #&00
92D0   84 2E             STY &2E
92D2   A9 02             LDA #&02
92D4   20 F1 FF          JSR .L641
92D7   4C 9B 8B          JMP .L151
92DA   20 AE 8A          JSR &8AAE
92DD   20 29 9B   .L176  JSR .L298
92E0   4C F0 92          JMP .L179
92E3   20 EC AD   .L177  JSR .L530
92E6   F0 0F             BEQ .L181
92E8   30 0A             BMI .L180
92EA   60         .L178  RTS
92EB   20 07 98          JSR &9807
92EE   A5 27             LDA &27
92F0   F0 05      .L179  BEQ .L181
92F2   10 F6             BPL .L178
92F4   4C E4 A3   .L180  JMP .L427
92F7   4C 0E 8C   .L181  JMP .L159
92FA   20 EC AD   .L182  JSR .L530
92FD   F0 F8      .L183  BEQ .L181
92FF   30 E9             BMI .L178
9301   4C BE A2          JMP .L409
9304   A5 0B             LDA &0B
9306   85 19             STA &19
9308   A5 0C             LDA &0C
930A   85 1A             STA &1A
930C   A5 0A             LDA &0A
930E   85 1B             STA &1B
9310   A9 F2             LDA #&F2
9312   20 97 B1          JSR &B197
9315   20 52 98          JSR &9852
9318   4C 9B 8B          JMP .L151
931B   A0 03             LDY #&03
931D   A9 00             LDA #&00
931F   91 2A             STA (&2A),Y
9321   F0 1E             BEQ &9341
9323   BA                TSX
9324   E0 FC             CPX #&FC
9326   B0 43             BCS &936B
9328   20 82 95          JSR .L205
932B   F0 26             BEQ &9353
932D   20 0D B3          JSR &B30D
9330   A4 2C             LDY &2C
9332   30 E7             BMI &931B
9334   20 94 BD          JSR .L608
9337   A9 00             LDA #&00
9339   20 D8 AE          JSR .L548
933C   85 27             STA &27
933E   20 B4 B4          JSR .L564
9341   BA                TSX
9342   FE 06 01          INC &0106,X
9345   A4 1B             LDY &1B
9347   84 0A             STY &0A
9349   20 97 8A          JSR .L136
934C   C9 2C             CMP #&2C
934E   F0 D3             BEQ &9323
9350   4C 96 8B          JMP .L150
9353   4C 98 8B          JMP &8B98
9356   BA                TSX
9357   E0 FC             CPX #&FC
9359   B0 0A             BCS &9365
935B   AD FF 01          LDA &01FF
935E   C9 F2             CMP #&F2
9360   D0 03             BNE &9365
9362   4C 57 98          JMP .L254
9365   00                BRK
9366   0D 4E 6F          ORA &6F4E
9369   20 F2 00          JSR &00F2
936C   0C
936D   4E 6F 74          LSR &746F          "Not"
9370   20 EA 00          JSR &00EA
9373   19 42 61          ORA &6142,Y
9376   64                                   "d"
9377   20 EB 00          JSR &00EB
937A   20 21 88          JSR .L75
937D   A5 2A             LDA &2A
937F   48                PHA                "H"
9380   20 DA 92          JSR &92DA
9383   20 52 98          JSR &9852
9386   A9 12             LDA #&12
9388   20 EE FF          JSR .L640
938B   4C DA 93          JMP &93DA
938E   A9 11             LDA #&11
9390   48                PHA                "H"
9391   20 21 88          JSR .L75
9394   20 57 98          JSR .L254
9397   4C DA 93          JMP &93DA
939A   A9 16             LDA #&16
939C   48                PHA                "H"
939D   20 21 88          JSR .L75
93A0   20 57 98          JSR .L254
93A3   20 E7 BE          JSR &BEE7
93A6   E0 FF             CPX #&FF
93A8   D0 2D             BNE &93D7
93AA   C0 FF             CPY #&FF
93AC   D0 29             BNE &93D7
93AE   A5 04             LDA &04
93B0   C5 06             CMP &06
93B2   D0 BE             BNE &9372
93B4   A5 05             LDA &05
93B6   C5 07             CMP &07
93B8   D0 B8             BNE &9372
93BA   A6 2A             LDX &2A
93BC   A9 85             LDA #&85
93BE   20 F4 FF          JSR .L642
93C1   E4 02             CPX &02
93C3   98                TYA
93C4   E5 03             SBC &03
93C6   90 AA             BCC &9372
93C8   E4 12             CPX &12
93CA   98                TYA
93CB   E5 13             SBC &13
93CD   90 A3             BCC &9372
93CF   86 06             STX &06
93D1   86 04             STX &04
93D3   84 07             STY &07
93D5   84 05             STY &05
93D7   20 28 BC          JSR .L585
93DA   68                PLA                "h"
93DB   20 EE FF          JSR .L640
93DE   20 56 94          JSR &9456
93E1   4C 9B 8B          JMP .L151
93E4   A9 04             LDA #&04
93E6   D0 02             BNE &93EA
93E8   A9 05             LDA #&05
93EA   48                PHA                "H"
93EB   20 1D 9B          JSR .L297
93EE   4C FD 93          JMP &93FD
93F1   20 21 88          JSR .L75
93F4   A5 2A             LDA &2A
93F6   48                PHA                "H"
93F7   20 AE 8A          JSR &8AAE
93FA   20 29 9B          JSR .L298
93FD   20 EE 92          JSR &92EE
9400   20 94 BD          JSR .L608
9403   20 DA 92          JSR &92DA
9406   20 52 98          JSR &9852
9409   A9 19             LDA #&19
940B   20 EE FF          JSR .L640
940E   68                PLA                "h"
940F   20 EE FF          JSR .L640
9412   20 0B BE          JSR .L618
9415   A5 37             LDA &37
9417   20 EE FF          JSR .L640
941A   A5 38             LDA &38
941C   20 EE FF          JSR .L640
941F   20 56 94          JSR &9456
9422   A5 2B             LDA &2B
9424   20 EE FF          JSR .L640
9427   4C 9B 8B          JMP .L151
942A   A5 2B             LDA &2B
942C   20 EE FF          JSR .L640
942F   20 97 8A          JSR .L136
9432   C9 3A             CMP #&3A
9434   F0 1D             BEQ &9453
9436   C9 0D             CMP #&0D
9438   F0 19             BEQ &9453
943A   C9 8B             CMP #&8B
943C   F0 15             BEQ &9453
943E   C6 0A             DEC &0A
9440   20 21 88          JSR .L75
9443   20 56 94          JSR &9456
9446   20 97 8A          JSR .L136
9449   C9 2C             CMP #&2C
944B   F0 E2             BEQ &942F
944D   C9 3B             CMP #&3B
944F   D0 E1             BNE &9432
9451   F0 D7             BEQ &942A
9453   4C 96 8B          JMP .L150
9456   A5 2A             LDA &2A
9458   6C 0E 02          JMP (&020E)
945B   A0 01             LDY #&01
945D   B1 37             LDA (&37),Y
945F   A0 F6             LDY #&F6
9461   C9 F2             CMP #&F2
9463   F0 0A             BEQ &946F
9465   A0 F8             LDY #&F8
9467   D0 06             BNE &946F
9469   A0 01      .L184  LDY #&01
946B   B1 37             LDA (&37),Y
946D   0A                ASL A
946E   A8                TAY
946F   B9 00 04          LDA &0400,Y
9472   85 3A             STA &3A
9474   B9 01 04          LDA &0401,Y
9477   85 3B             STA &3B
9479   A5 3B      .L185  LDA &3B
947B   F0 35             BEQ .L189
947D   A0 00             LDY #&00
947F   B1 3A             LDA (&3A),Y
9481   85 3C             STA &3C
9483   C8                INY
9484   B1 3A             LDA (&3A),Y
9486   85 3D             STA &3D
9488   C8                INY
9489   B1 3A             LDA (&3A),Y
948B   D0 0D             BNE .L187
948D   88                DEY
948E   C4 39             CPY &39
9490   D0 21             BNE .L190
9492   C8                INY
9493   B0 12             BCS .L188
9495   C8         .L186  INY
9496   B1 3A             LDA (&3A),Y
9498   F0 19             BEQ .L190
949A   D1 37      .L187  CMP (&37),Y
949C   D0 15             BNE .L190
949E   C4 39             CPY &39
94A0   D0 F3             BNE .L186
94A2   C8                INY
94A3   B1 3A             LDA (&3A),Y
94A5   D0 0C             BNE .L190
94A7   98         .L188  TYA
94A8   65 3A             ADC &3A
94AA   85 2A             STA &2A
94AC   A5 3B             LDA &3B
94AE   69 00             ADC #&00
94B0   85 2B             STA &2B
94B2   60         .L189  RTS
94B3   A5 3D      .L190  LDA &3D
94B5   F0 FB             BEQ .L189
94B7   A0 00             LDY #&00
94B9   B1 3C             LDA (&3C),Y
94BB   85 3A             STA &3A
94BD   C8                INY
94BE   B1 3C             LDA (&3C),Y
94C0   85 3B             STA &3B
94C2   C8                INY
94C3   B1 3C             LDA (&3C),Y
94C5   D0 0D             BNE .L192
94C7   88                DEY
94C8   C4 39             CPY &39
94CA   D0 AD             BNE .L185
94CC   C8                INY
94CD   B0 12             BCS .L193
94CF   C8         .L191  INY
94D0   B1 3C             LDA (&3C),Y
94D2   F0 A5             BEQ .L185
94D4   D1 37      .L192  CMP (&37),Y
94D6   D0 A1             BNE .L185
94D8   C4 39             CPY &39
94DA   D0 F3             BNE .L191
94DC   C8                INY
94DD   B1 3C             LDA (&3C),Y
94DF   D0 98             BNE .L185
94E1   98         .L193  TYA
94E2   65 3C             ADC &3C
94E4   85 2A             STA &2A
94E6   A5 3D             LDA &3D
94E8   69 00             ADC #&00
94EA   85 2B             STA &2B
94EC   60                RTS
94ED   A0 01             LDY #&01
94EF   B1 37             LDA (&37),Y
94F1   AA                TAX
94F2   A9 F6             LDA #&F6
94F4   E0 F2             CPX #&F2
94F6   F0 09             BEQ &9501
94F8   A9 F8             LDA #&F8
94FA   D0 05             BNE &9501
94FC   A0 01      .L194  LDY #&01
94FE   B1 37             LDA (&37),Y
9500   0A                ASL A
9501   85 3A             STA &3A
9503   A9 04             LDA #&04
9505   85 3B             STA &3B
9507   B1 3A      .L195  LDA (&3A),Y
9509   F0 0B             BEQ .L196
950B   AA                TAX
950C   88                DEY
950D   B1 3A             LDA (&3A),Y
950F   85 3A             STA &3A
9511   86 3B             STX &3B
9513   C8                INY
9514   10 F1             BPL .L195
9516   A5 03      .L196  LDA &03
9518   91 3A             STA (&3A),Y
951A   A5 02             LDA &02
951C   88                DEY
951D   91 3A             STA (&3A),Y
951F   98                TYA
9520   C8                INY
9521   91 02             STA (&02),Y
9523   C4 39             CPY &39
9525   F0 31             BEQ .L203
9527   C8         .L197  INY
9528   B1 37             LDA (&37),Y
952A   91 02             STA (&02),Y
952C   C4 39             CPY &39
952E   D0 F7             BNE .L197
9530   60                RTS
9531   A9 00      .L198  LDA #&00
9533   C8         .L199  INY
9534   91 02             STA (&02),Y
9536   CA                DEX
9537   D0 FA             BNE .L199
9539   38                SEC
953A   98                TYA
953B   65 02             ADC &02
953D   90 02             BCC .L200
953F   E6 03             INC &03
9541   A4 03      .L200  LDY &03
9543   C4 05             CPY &05
9545   90 0F             BCC .L202
9547   D0 04             BNE .L201
9549   C5 04             CMP &04
954B   90 09             BCC .L202
954D   A9 00      .L201  LDA #&00
954F   A0 01             LDY #&01
9551   91 3A             STA (&3A),Y
9553   4C B7 8C          JMP .L169
9556   85 02      .L202  STA &02
9558   60         .L203  RTS
9559   A0 01             LDY #&01
955B   B1 37             LDA (&37),Y
955D   C9 30             CMP #&30
955F   90 18             BCC &9579
9561   C9 40             CMP #&40
9563   B0 0C             BCS &9571
9565   C9 3A             CMP #&3A
9567   B0 10             BCS &9579
9569   C0 01             CPY #&01
956B   F0 0C             BEQ &9579
956D   E8                INX
956E   C8                INY
956F   D0 EA             BNE &955B
9571   C9 5F             CMP #&5F
9573   B0 05             BCS &957A
9575   C9 5B             CMP #&5B
9577   90 F4             BCC &956D
9579   60                RTS                "`"
957A   C9 7B             CMP #&7B
957C   90 EF             BCC &956D
957E   60                RTS                "`"
957F   20 31 95   .L204  JSR .L198
9582   20 C9 95   .L205  JSR .L212
9585   D0 1D             BNE .L207
9587   B0 1B             BCS .L207
9589   20 FC 94          JSR .L194
958C   A2 05             LDX #&05
958E   E4 2C             CPX &2C
9590   D0 ED             BNE .L204
9592   E8                INX
9593   D0 EA             BNE .L204
9595   C9 21      .L206  CMP #&21
9597   F0 0C             BEQ .L208
9599   C9 24             CMP #&24
959B   F0 13             BEQ .L210
959D   49 3F             EOR #&3F
959F   F0 06             BEQ .L209
95A1   A9 00             LDA #&00
95A3   38                SEC
95A4   60         .L207  RTS
95A5   A9 04      .L208  LDA #&04
95A7   48         .L209  PHA
95A8   E6 1B             INC &1B
95AA   20 E3 92          JSR .L177
95AD   4C 9F 96          JMP .L230
95B0   E6 1B      .L210  INC &1B
95B2   20 E3 92          JSR .L177
95B5   A5 2B             LDA &2B
95B7   F0 06             BEQ .L211
95B9   A9 80             LDA #&80
95BB   85 2C             STA &2C
95BD   38                SEC
95BE   60                RTS
95BF   00         .L211  BRK
95C0   08                PHP
95C1   24 20             BIT &20            "$ "
95C3   72                                   "r"
95C4   61 6E             ADC (&6E,X)        "an"
95C6   67                                   "g"
95C7   65 00             ADC &00
95C9   A5 0B      .L212  LDA &0B
95CB   85 19             STA &19
95CD   A5 0C             LDA &0C
95CF   85 1A             STA &1A
95D1   A4 0A             LDY &0A
95D3   88                DEY
95D4   C8         .L213  INY
95D5   84 1B             STY &1B
95D7   B1 19             LDA (&19),Y
95D9   C9 20             CMP #&20
95DB   F0 F7             BEQ .L213
95DD   C9 40      .L214  CMP #&40
95DF   90 B4             BCC .L206
95E1   C9 5B             CMP #&5B
95E3   B0 1A             BCS .L215
95E5   0A                ASL A
95E6   0A                ASL A
95E7   85 2A             STA &2A
95E9   A9 04             LDA #&04
95EB   85 2B             STA &2B
95ED   C8                INY
95EE   B1 19             LDA (&19),Y
95F0   C8                INY
95F1   C9 25             CMP #&25
95F3   D0 0A             BNE .L215
95F5   A2 04             LDX #&04
95F7   86 2C             STX &2C
95F9   B1 19             LDA (&19),Y
95FB   C9 28             CMP #&28
95FD   D0 66             BNE .L224
95FF   A2 05      .L215  LDX #&05
9601   86 2C             STX &2C
9603   A5 1B             LDA &1B
9605   18                CLC
9606   65 19             ADC &19
9608   A6 1A             LDX &1A
960A   90 02             BCC .L216
960C   E8                INX
960D   18                CLC
960E   E9 00      .L216  SBC #&00
9610   85 37             STA &37
9612   B0 01             BCS .L217
9614   CA                DEX
9615   86 38      .L217  STX &38
9617   A6 1B             LDX &1B
9619   A0 01             LDY #&01
961B   B1 37      .L218  LDA (&37),Y
961D   C9 41             CMP #&41
961F   B0 0C             BCS .L219
9621   C9 30             CMP #&30
9623   90 1C             BCC .L221
9625   C9 3A             CMP #&3A
9627   B0 18             BCS .L221
9629   E8                INX
962A   C8                INY
962B   D0 EE             BNE .L218
962D   C9 5B      .L219  CMP #&5B
962F   B0 04             BCS .L220
9631   E8                INX
9632   C8                INY
9633   D0 E6             BNE .L218
9635   C9 5F      .L220  CMP #&5F
9637   90 08             BCC .L221
9639   C9 7B             CMP #&7B
963B   B0 04             BCS .L221
963D   E8                INX
963E   C8                INY
963F   D0 DA             BNE .L218
9641   88         .L221  DEY
9642   F0 2F             BEQ .L225
9644   C9 24             CMP #&24
9646   F0 67             BEQ .L232
9648   C9 25             CMP #&25
964A   D0 08             BNE .L222
964C   C6 2C             DEC &2C
964E   C8                INY
964F   E8                INX
9650   C8                INY
9651   B1 37             LDA (&37),Y
9653   88                DEY
9654   84 39      .L222  STY &39
9656   C9 28             CMP #&28
9658   F0 4C             BEQ .L231
965A   20 69 94          JSR .L184
965D   F0 18             BEQ .L226
965F   86 1B             STX &1B
9661   A4 1B      .L223  LDY &1B
9663   B1 19             LDA (&19),Y
9665   C9 21      .L224  CMP #&21
9667   F0 16             BEQ .L228
9669   C9 3F             CMP #&3F
966B   F0 0E             BEQ .L227
966D   18                CLC
966E   84 1B             STY &1B
9670   A9 FF             LDA #&FF
9672   60                RTS
9673   A9 00      .L225  LDA #&00
9675   38                SEC
9676   60                RTS
9677   A9 00      .L226  LDA #&00
9679   18                CLC
967A   60                RTS
967B   A9 00      .L227  LDA #&00
967D   F0 02             BEQ .L229
967F   A9 04      .L228  LDA #&04
9681   48         .L229  PHA
9682   C8                INY
9683   84 1B             STY &1B
9685   20 2C B3          JSR .L552
9688   20 F0 92          JSR .L179
968B   A5 2B             LDA &2B
968D   48                PHA
968E   A5 2A             LDA &2A
9690   48                PHA
9691   20 E3 92          JSR .L177
9694   18                CLC
9695   68                PLA
9696   65 2A             ADC &2A
9698   85 2A             STA &2A
969A   68                PLA
969B   65 2B             ADC &2B
969D   85 2B             STA &2B
969F   68         .L230  PLA
96A0   85 2C             STA &2C
96A2   18                CLC
96A3   A9 FF             LDA #&FF
96A5   60                RTS
96A6   E8         .L231  INX
96A7   E6 39             INC &39
96A9   20 DF 96          JSR .L235
96AC   4C 61 96          JMP .L223
96AF   E8         .L232  INX
96B0   C8                INY
96B1   84 39             STY &39
96B3   C8                INY
96B4   C6 2C             DEC &2C
96B6   B1 37             LDA (&37),Y
96B8   C9 28             CMP #&28
96BA   F0 0D             BEQ .L233
96BC   20 69 94          JSR .L184
96BF   F0 B6             BEQ .L226
96C1   86 1B             STX &1B
96C3   A9 81             LDA #&81
96C5   85 2C             STA &2C
96C7   38                SEC
96C8   60                RTS
96C9   E8         .L233  INX
96CA   84 39             STY &39
96CC   C6 2C             DEC &2C
96CE   20 DF 96          JSR .L235
96D1   A9 81             LDA #&81
96D3   85 2C             STA &2C
96D5   38                SEC
96D6   60                RTS
96D7   00         .L234  BRK
96D8   0E 41 72          ASL &7241
96DB   72                                   "r"
96DC   61 79             ADC (&79,X)        "ay"
96DE   00                BRK
96DF   20 69 94   .L235  JSR .L184
96E2   F0 F3             BEQ .L234
96E4   86 1B             STX &1B
96E6   A5 2C             LDA &2C
96E8   48                PHA
96E9   A5 2A             LDA &2A
96EB   48                PHA
96EC   A5 2B             LDA &2B
96EE   48                PHA
96EF   A0 00             LDY #&00
96F1   B1 2A             LDA (&2A),Y
96F3   C9 04             CMP #&04
96F5   90 75             BCC .L237
96F7   98                TYA
96F8   20 D8 AE          JSR .L548
96FB   A9 01             LDA #&01
96FD   85 2D             STA &2D
96FF   20 94 BD   .L236  JSR .L608
9702   20 DD 92          JSR .L176
9705   E6 1B             INC &1B
9707   E0 2C             CPX #&2C
9709   D0 CC             BNE .L234
970B   A2 39             LDX #&39
970D   20 0D BE          JSR .L619
9710   A4 3C             LDY &3C
9712   68                PLA
9713   85 38             STA &38
9715   68                PLA
9716   85 37             STA &37
9718   48                PHA
9719   A5 38             LDA &38
971B   48                PHA
971C   20 BA 97          JSR .L242
971F   84 2D             STY &2D
9721   B1 37             LDA (&37),Y
9723   85 3F             STA &3F
9725   C8                INY
9726   B1 37             LDA (&37),Y
9728   85 40             STA &40
972A   A5 2A             LDA &2A
972C   65 39             ADC &39
972E   85 2A             STA &2A
9730   A5 2B             LDA &2B
9732   65 3A             ADC &3A
9734   85 2B             STA &2B
9736   20 36 92          JSR .L172
9739   A0 00             LDY #&00
973B   38                SEC
973C   B1 37             LDA (&37),Y
973E   E5 2D             SBC &2D
9740   C9 03             CMP #&03
9742   B0 BB             BCS .L236
9744   20 94 BD          JSR .L608
9747   20 56 AE          JSR .L539
974A   20 F0 92          JSR .L179
974D   68                PLA
974E   85 38             STA &38
9750   68                PLA
9751   85 37             STA &37
9753   A2 39             LDX #&39
9755   20 0D BE          JSR .L619
9758   A4 3C             LDY &3C
975A   20 BA 97          JSR .L242
975D   18                CLC
975E   A5 39             LDA &39
9760   65 2A             ADC &2A
9762   85 2A             STA &2A
9764   A5 3A             LDA &3A
9766   65 2B             ADC &2B
9768   85 2B             STA &2B
976A   90 11             BCC .L238
976C   20 56 AE   .L237  JSR .L539
976F   20 F0 92          JSR .L179
9772   68                PLA
9773   85 38             STA &38
9775   68                PLA
9776   85 37             STA &37
9778   A0 01             LDY #&01
977A   20 BA 97          JSR .L242
977D   68         .L238  PLA
977E   85 2C             STA &2C
9780   C9 05             CMP #&05
9782   D0 17             BNE .L239
9784   A6 2B             LDX &2B
9786   A5 2A             LDA &2A
9788   06 2A             ASL &2A
978A   26 2B             ROL &2B
978C   06 2A             ASL &2A
978E   26 2B             ROL &2B
9790   65 2A             ADC &2A
9792   85 2A             STA &2A
9794   8A                TXA
9795   65 2B             ADC &2B
9797   85 2B             STA &2B
9799   90 08             BCC .L240
979B   06 2A      .L239  ASL &2A
979D   26 2B             ROL &2B
979F   06 2A             ASL &2A
97A1   26 2B             ROL &2B
97A3   98         .L240  TYA
97A4   65 2A             ADC &2A
97A6   85 2A             STA &2A
97A8   90 03             BCC .L241
97AA   E6 2B             INC &2B
97AC   18                CLC
97AD   A5 37      .L241  LDA &37
97AF   65 2A             ADC &2A
97B1   85 2A             STA &2A
97B3   A5 38             LDA &38
97B5   65 2B             ADC &2B
97B7   85 2B             STA &2B
97B9   60                RTS
97BA   A5 2B      .L242  LDA &2B
97BC   29 C0             AND #&C0
97BE   05 2C             ORA &2C
97C0   05 2D             ORA &2D
97C2   D0 0D             BNE .L243
97C4   A5 2A             LDA &2A
97C6   D1 37             CMP (&37),Y
97C8   C8                INY
97C9   A5 2B             LDA &2B
97CB   F1 37             SBC (&37),Y
97CD   B0 02             BCS .L243
97CF   C8                INY
97D0   60                RTS
97D1   00         .L243  BRK
97D2   0F
97D3   53                                   "S"
97D4   75 62             ADC &62,X          "ub"
97D6   73                                   "s"
97D7   63                                   "c"
97D8   72                                   "r"
97D9   69 70             ADC #&70           "ip"
97DB   74                                   "t"
97DC   00                BRK
97DD   E6 0A      .L244  INC &0A
97DF   A4 0A      .L245  LDY &0A
97E1   B1 0B             LDA (&0B),Y
97E3   C9 20             CMP #&20
97E5   F0 F6             BEQ .L244
97E7   C9 8D             CMP #&8D
97E9   D0 1A             BNE .L246
97EB   C8                INY
97EC   B1 0B             LDA (&0B),Y
97EE   0A                ASL A
97EF   0A                ASL A
97F0   AA                TAX
97F1   29 C0             AND #&C0
97F3   C8                INY
97F4   51 0B             EOR (&0B),Y
97F6   85 2A             STA &2A
97F8   8A                TXA
97F9   0A                ASL A
97FA   0A                ASL A
97FB   C8                INY
97FC   51 0B             EOR (&0B),Y
97FE   85 2B             STA &2B
9800   C8                INY
9801   84 0A             STY &0A
9803   38                SEC
9804   60                RTS
9805   18         .L246  CLC
9806   60                RTS
9807   A5 0B             LDA &0B
9809   85 19             STA &19
980B   A5 0C             LDA &0C
980D   85 1A             STA &1A
980F   A5 0A             LDA &0A
9811   85 1B             STA &1B
9813   A4 1B      .L247  LDY &1B
9815   E6 1B             INC &1B
9817   B1 19             LDA (&19),Y
9819   C9 20             CMP #&20
981B   F0 F6             BEQ .L247
981D   C9 3D             CMP #&3D
981F   F0 28             BEQ .L252
9821   00         .L248  BRK
9822   04
9823   4D 69 73          EOR &7369          "Mis"
9826   74                                   "t"
9827   61 6B             ADC (&6B,X)        "ak"
9829   65 00             ADC &00
982B   10 53             BPL &9880
982D   79 6E 74          ADC &746E,Y        "ynt"
9830   61 78             ADC (&78,X)        "ax"
9832   20 65 72          JSR &7265          " er"
9835   72                                   "r"
9836   6F                                   "o"
9837   72                                   "r"
9838   00         .L250  BRK
9839   11 45             ORA (&45),Y
983B   73                                   "s"
983C   63                                   "c"
983D   61 70             ADC (&70,X)        "ap"
983F   65 00             ADC &00
9841   20 8C 8A   .L251  JSR .L134
9844   C9 3D             CMP #&3D
9846   D0 D9             BNE .L248
9848   60                RTS
9849   20 29 9B   .L252  JSR .L298
984C   8A         .L253  TXA
984D   A4 1B             LDY &1B
984F   4C 61 98          JMP .L257
9852   A4 1B             LDY &1B
9854   4C 59 98          JMP .L255
9857   A4 0A      .L254  LDY &0A
9859   88         .L255  DEY
985A   C8         .L256  INY
985B   B1 0B             LDA (&0B),Y
985D   C9 20             CMP #&20
985F   F0 F9             BEQ .L256
9861   C9 3A      .L257  CMP #&3A
9863   F0 08             BEQ .L258
9865   C9 0D             CMP #&0D
9867   F0 04             BEQ .L258
9869   C9 8B             CMP #&8B
986B   D0 BD             BNE .L249
986D   18         .L258  CLC
986E   98                TYA
986F   65 0B             ADC &0B
9871   85 0B             STA &0B
9873   90 02             BCC .L259
9875   E6 0C             INC &0C
9877   A0 01      .L259  LDY #&01
9879   84 0A             STY &0A
987B   24 FF             BIT &FF
987D   30 B9             BMI .L250
987F   60                RTS
9880   20 57 98          JSR .L254
9883   88                DEY
9884   B1 0B             LDA (&0B),Y
9886   C9 3A             CMP #&3A
9888   F0 F5             BEQ &987F
988A   A5 0C             LDA &0C
988C   C9 07             CMP #&07
988E   F0 2C             BEQ .L264
9890   C8         .L260  INY
9891   B1 0B             LDA (&0B),Y
9893   30 27             BMI .L264
9895   A5 20             LDA &20
9897   F0 13             BEQ .L261
9899   98                TYA
989A   48                PHA
989B   C8                INY
989C   B1 0B             LDA (&0B),Y
989E   48                PHA
989F   88                DEY
98A0   B1 0B             LDA (&0B),Y
98A2   A8                TAY
98A3   68                PLA
98A4   20 EA AE          JSR .L549
98A7   20 05 99          JSR .L265
98AA   68                PLA
98AB   A8                TAY
98AC   C8         .L261  INY
98AD   38                SEC
98AE   98                TYA
98AF   65 0B             ADC &0B
98B1   85 0B             STA &0B
98B3   90 02             BCC .L262
98B5   E6 0C             INC &0C
98B7   A0 01      .L262  LDY #&01
98B9   84 0A             STY &0A
98BB   60         .L263  RTS
98BC   4C F6 8A   .L264  JMP .L139
98BF   4C 0E 8C          JMP .L159
98C2   20 1D 9B          JSR .L297
98C5   F0 F8             BEQ &98BF
98C7   10 03             BPL &98CC
98C9   20 E4 A3          JSR .L427
98CC   A4 1B             LDY &1B
98CE   84 0A             STY &0A
98D0   A5 2A             LDA &2A
98D2   05 2B             ORA &2B
98D4   05 2C             ORA &2C
98D6   05 2D             ORA &2D
98D8   F0 17             BEQ &98F1
98DA   E0 8C             CPX #&8C
98DC   F0 03             BEQ &98E1
98DE   4C A3 8B          JMP .L152
98E1   E6 0A             INC &0A
98E3   20 DF 97          JSR .L245
98E6   90 F6             BCC &98DE
98E8   20 AF B9          JSR &B9AF
98EB   20 77 98          JSR .L259
98EE   4C D2 B8          JMP &B8D2
98F1   A4 0A             LDY &0A
98F3   B1 0B             LDA (&0B),Y
98F5   C9 0D             CMP #&0D
98F7   F0 09             BEQ &9902
98F9   C8                INY
98FA   C9 8B             CMP #&8B
98FC   D0 F5             BNE &98F3
98FE   84 0A             STY &0A
9900   F0 E1             BEQ &98E3
9902   4C 87 8B          JMP .L149
9905   A5 2A      .L265  LDA &2A
9907   C5 21             CMP &21
9909   A5 2B             LDA &2B
990B   E5 22             SBC &22
990D   B0 AC             BCS .L263
990F   A9 5B             LDA #&5B
9911   20 58 B5          JSR .L578
9914   20 1F 99          JSR .L266
9917   A9 5D             LDA #&5D
9919   20 58 B5          JSR .L578
991C   4C 65 B5          JMP .L580
991F   A9 00      .L266  LDA #&00
9921   F0 02             BEQ .L267
9923   A9 05             LDA #&05
9925   85 14      .L267  STA &14
9927   A2 04             LDX #&04
9929   A9 00      .L268  LDA #&00
992B   95 3F             STA &3F,X
992D   38                SEC
992E   A5 2A      .L269  LDA &2A
9930   FD 6B 99          SBC &996B,X
9933   A8                TAY
9934   A5 2B             LDA &2B
9936   FD B9 99          SBC &99B9,X
9939   90 08             BCC .L270
993B   85 2B             STA &2B
993D   84 2A             STY &2A
993F   F6 3F             INC &3F,X
9941   D0 EB             BNE .L269
9943   CA         .L270  DEX
9944   10 E3             BPL .L268
9946   A2 05             LDX #&05
9948   CA         .L271  DEX
9949   F0 04             BEQ .L272
994B   B5 3F             LDA &3F,X
994D   F0 F9             BEQ .L271
994F   86 37      .L272  STX &37
9951   A5 14             LDA &14
9953   F0 0B             BEQ .L274
9955   E5 37             SBC &37
9957   F0 07             BEQ .L274
9959   A8                TAY
995A   20 65 B5   .L273  JSR .L580
995D   88                DEY
995E   D0 FA             BNE .L273
9960   B5 3F      .L274  LDA &3F,X
9962   09 30             ORA #&30
9964   20 58 B5          JSR .L578
9967   CA                DEX
9968   10 F6             BPL .L274
996A   60                RTS
996B   01 0A             ORA (&0A,X)
996D   64                                   "d"
996E   E8                INX
996F   10 A0             BPL &9911
9971   00                BRK
9972   84 3D             STY &3D
9974   A5 18             LDA &18
9976   85 3E             STA &3E
9978   A0 01             LDY #&01
997A   B1 3D             LDA (&3D),Y
997C   C5 2B             CMP &2B
997E   B0 0E             BCS &998E
9980   A0 03             LDY #&03
9982   B1 3D             LDA (&3D),Y
9984   65 3D             ADC &3D            "e="
9986   85 3D             STA &3D
9988   90 EE             BCC &9978
998A   E6 3E             INC &3E
998C   B0 EA             BCS &9978
998E   D0 14             BNE &99A4
9990   A0 02             LDY #&02
9992   B1 3D             LDA (&3D),Y
9994   C5 2A             CMP &2A
9996   90 E8             BCC &9980
9998   D0 0A             BNE &99A4
999A   98                TYA
999B   65 3D             ADC &3D            "e="
999D   85 3D             STA &3D
999F   90 03             BCC &99A4
99A1   E6 3E             INC &3E
99A3   18                CLC
99A4   A0 02             LDY #&02
99A6   60                RTS                "`"
99A7   00         .L276  BRK
99A8   12
99A9   44                                   "D"
99AA   69 76             ADC #&76           "iv"
99AC   69 73             ADC #&73           "is"
99AE   69 6F             ADC #&6F           "io"
99B0   6E 20 62          ROR &6220          "n b"
99B3   79 20 7A          ADC &7A20,Y        "y z"
99B6   65 72             ADC &72            "er"
99B8   6F                                   "o"
99B9   00                BRK
99BA   00                BRK
99BB   00                BRK
99BC   03
99BD   27                                   "'"
99BE   A8         .L277  TAY
99BF   20 F0 92          JSR .L179
99C2   A5 2D             LDA &2D
99C4   48                PHA
99C5   20 71 AD          JSR .L519
99C8   20 1D 9E          JSR .L357
99CB   86 27             STX &27
99CD   A8                TAY
99CE   20 F0 92          JSR .L179
99D1   68                PLA
99D2   85 38             STA &38
99D4   45 2D             EOR &2D
99D6   85 37             STA &37
99D8   20 71 AD          JSR .L519
99DB   A2 39             LDX #&39
99DD   20 0D BE          JSR .L619
99E0   84 3D             STY &3D
99E2   84 3E             STY &3E
99E4   84 3F             STY &3F
99E6   84 40             STY &40
99E8   A5 2D             LDA &2D
99EA   05 2A             ORA &2A
99EC   05 2B             ORA &2B
99EE   05 2C             ORA &2C
99F0   F0 B5             BEQ .L276
99F2   A0 20             LDY #&20
99F4   88         .L278  DEY
99F5   F0 41             BEQ .L282
99F7   06 39             ASL &39
99F9   26 3A             ROL &3A
99FB   26 3B             ROL &3B
99FD   26 3C             ROL &3C
99FF   10 F3             BPL .L278
9A01   26 39      .L279  ROL &39
9A03   26 3A             ROL &3A
9A05   26 3B             ROL &3B
9A07   26 3C             ROL &3C
9A09   26 3D             ROL &3D
9A0B   26 3E             ROL &3E
9A0D   26 3F             ROL &3F
9A0F   26 40             ROL &40
9A11   38                SEC
9A12   A5 3D             LDA &3D
9A14   E5 2A             SBC &2A
9A16   48                PHA
9A17   A5 3E             LDA &3E
9A19   E5 2B             SBC &2B
9A1B   48                PHA
9A1C   A5 3F             LDA &3F
9A1E   E5 2C             SBC &2C
9A20   AA                TAX
9A21   A5 40             LDA &40
9A23   E5 2D             SBC &2D
9A25   90 0C             BCC .L280
9A27   85 40             STA &40
9A29   86 3F             STX &3F
9A2B   68                PLA
9A2C   85 3E             STA &3E
9A2E   68                PLA
9A2F   85 3D             STA &3D
9A31   B0 02             BCS .L281
9A33   68         .L280  PLA
9A34   68                PLA
9A35   88         .L281  DEY
9A36   D0 C9             BNE .L279
9A38   60         .L282  RTS
9A39   86 27      .L283  STX &27
9A3B   20 EA BD          JSR .L615
9A3E   20 51 BD          JSR .L606
9A41   20 BE A2          JSR .L409
9A44   20 1E A2          JSR .L402
9A47   20 7E BD          JSR .L607
9A4A   20 B5 A3          JSR .L425
9A4D   4C 62 9A          JMP .L285
9A50   20 51 BD   .L284  JSR .L606
9A53   20 42 9C          JSR .L323
9A56   86 27             STX &27
9A58   A8                TAY
9A59   20 FD 92          JSR .L183
9A5C   20 7E BD          JSR .L607
9A5F   20 4E A3          JSR .L419
9A62   A6 27      .L285  LDX &27
9A64   A0 00             LDY #&00
9A66   A5 3B             LDA &3B
9A68   29 80             AND #&80
9A6A   85 3B             STA &3B
9A6C   A5 2E             LDA &2E
9A6E   29 80             AND #&80
9A70   C5 3B             CMP &3B
9A72   D0 1E             BNE .L286
9A74   A5 3D             LDA &3D
9A76   C5 30             CMP &30
9A78   D0 19             BNE .L287
9A7A   A5 3E             LDA &3E
9A7C   C5 31             CMP &31
9A7E   D0 13             BNE .L287
9A80   A5 3F             LDA &3F
9A82   C5 32             CMP &32
9A84   D0 0D             BNE .L287
9A86   A5 40             LDA &40
9A88   C5 33             CMP &33
9A8A   D0 07             BNE .L287
9A8C   A5 41             LDA &41
9A8E   C5 34             CMP &34
9A90   D0 01             BNE .L287
9A92   60         .L286  RTS
9A93   6A         .L287  ROR A
9A94   45 3B             EOR &3B
9A96   2A                ROL A
9A97   A9 01             LDA #&01
9A99   60                RTS
9A9A   4C 0E 8C   .L288  JMP .L159
9A9D   8A         .L289  TXA
9A9E   F0 47      .L290  BEQ .L292
9AA0   30 AE             BMI .L284
9AA2   20 94 BD          JSR .L608
9AA5   20 42 9C          JSR .L323
9AA8   A8                TAY
9AA9   F0 EF             BEQ .L288
9AAB   30 8C             BMI .L283
9AAD   A5 2D             LDA &2D
9AAF   49 80             EOR #&80
9AB1   85 2D             STA &2D
9AB3   38                SEC
9AB4   A0 00             LDY #&00
9AB6   B1 04             LDA (&04),Y
9AB8   E5 2A             SBC &2A
9ABA   85 2A             STA &2A
9ABC   C8                INY
9ABD   B1 04             LDA (&04),Y
9ABF   E5 2B             SBC &2B
9AC1   85 2B             STA &2B
9AC3   C8                INY
9AC4   B1 04             LDA (&04),Y
9AC6   E5 2C             SBC &2C
9AC8   85 2C             STA &2C
9ACA   C8                INY
9ACB   B1 04             LDA (&04),Y
9ACD   A0 00             LDY #&00
9ACF   49 80             EOR #&80
9AD1   E5 2D             SBC &2D
9AD3   05 2A             ORA &2A
9AD5   05 2B             ORA &2B
9AD7   05 2C             ORA &2C
9AD9   08                PHP
9ADA   18                CLC
9ADB   A9 04             LDA #&04
9ADD   65 04             ADC &04
9ADF   85 04             STA &04
9AE1   90 02             BCC .L291
9AE3   E6 05             INC &05
9AE5   28         .L291  PLP
9AE6   60                RTS
9AE7   20 B2 BD   .L292  JSR .L609
9AEA   20 42 9C          JSR .L323
9AED   A8                TAY
9AEE   D0 AA             BNE .L288
9AF0   86 37             STX &37
9AF2   A6 36             LDX &36
9AF4   A0 00             LDY #&00
9AF6   B1 04             LDA (&04),Y
9AF8   85 39             STA &39
9AFA   C5 36             CMP &36
9AFC   B0 01             BCS .L293
9AFE   AA                TAX
9AFF   86 3A      .L293  STX &3A
9B01   A0 00             LDY #&00
9B03   C4 3A      .L294  CPY &3A
9B05   F0 0A             BEQ .L295
9B07   C8                INY
9B08   B1 04             LDA (&04),Y
9B0A   D9 FF 05          CMP &05FF,Y
9B0D   F0 F4             BEQ .L294
9B0F   D0 04             BNE .L296
9B11   A5 39      .L295  LDA &39
9B13   C5 36             CMP &36
9B15   08         .L296  PHP
9B16   20 DC BD          JSR .L614
9B19   A6 37             LDX &37
9B1B   28                PLP
9B1C   60                RTS
9B1D   A5 0B      .L297  LDA &0B
9B1F   85 19             STA &19
9B21   A5 0C             LDA &0C
9B23   85 1A             STA &1A
9B25   A5 0A             LDA &0A
9B27   85 1B             STA &1B
9B29   20 72 9B   .L298  JSR .L306
9B2C   E0 84      .L299  CPX #&84
9B2E   F0 0A             BEQ .L300
9B30   E0 82             CPX #&82
9B32   F0 21             BEQ .L303
9B34   C6 1B             DEC &1B
9B36   A8                TAY
9B37   85 27             STA &27
9B39   60                RTS
9B3A   20 6B 9B   .L300  JSR .L305
9B3D   A8                TAY
9B3E   20 F0 92          JSR .L179
9B41   A0 03             LDY #&03
9B43   B1 04      .L301  LDA (&04),Y
9B45   19 2A 00          ORA &002A,Y
9B48   99 2A 00          STA &002A,Y
9B4B   88                DEY
9B4C   10 F5             BPL .L301
9B4E   20 FF BD   .L302  JSR .L616
9B51   A9 40             LDA #&40
9B53   D0 D7             BNE .L299
9B55   20 6B 9B   .L303  JSR .L305
9B58   A8                TAY
9B59   20 F0 92          JSR .L179
9B5C   A0 03             LDY #&03
9B5E   B1 04      .L304  LDA (&04),Y
9B60   59 2A 00          EOR &002A,Y
9B63   99 2A 00          STA &002A,Y
9B66   88                DEY
9B67   10 F5             BPL .L304
9B69   30 E3             BMI .L302
9B6B   A8         .L305  TAY
9B6C   20 F0 92          JSR .L179
9B6F   20 94 BD          JSR .L608
9B72   20 9C 9B   .L306  JSR .L310
9B75   E0 80      .L307  CPX #&80
9B77   F0 01             BEQ .L308
9B79   60                RTS
9B7A   A8         .L308  TAY
9B7B   20 F0 92          JSR .L179
9B7E   20 94 BD          JSR .L608
9B81   20 9C 9B          JSR .L310
9B84   A8                TAY
9B85   20 F0 92          JSR .L179
9B88   A0 03             LDY #&03
9B8A   B1 04      .L309  LDA (&04),Y
9B8C   39 2A 00          AND &002A,Y
9B8F   99 2A 00          STA &002A,Y
9B92   88                DEY
9B93   10 F5             BPL .L309
9B95   20 FF BD          JSR .L616
9B98   A9 40             LDA #&40
9B9A   D0 D9             BNE .L307
9B9C   20 42 9C   .L310  JSR .L323
9B9F   E0 3F             CPX #&3F
9BA1   B0 04             BCS .L311
9BA3   E0 3C             CPX #&3C
9BA5   B0 01             BCS .L312
9BA7   60         .L311  RTS
9BA8   F0 16      .L312  BEQ .L315
9BAA   E0 3E             CPX #&3E
9BAC   F0 3A             BEQ .L318
9BAE   AA                TAX
9BAF   20 9E 9A          JSR .L290
9BB2   D0 01             BNE .L314
9BB4   88         .L313  DEY
9BB5   84 2A      .L314  STY &2A
9BB7   84 2B             STY &2B
9BB9   84 2C             STY &2C
9BBB   84 2D             STY &2D
9BBD   A9 40             LDA #&40
9BBF   60                RTS
9BC0   AA         .L315  TAX
9BC1   A4 1B             LDY &1B
9BC3   B1 19             LDA (&19),Y
9BC5   C9 3D             CMP #&3D
9BC7   F0 0B             BEQ .L316
9BC9   C9 3E             CMP #&3E
9BCB   F0 12             BEQ .L317
9BCD   20 9D 9A          JSR .L289
9BD0   90 E2             BCC .L313
9BD2   B0 E1             BCS .L314
9BD4   E6 1B      .L316  INC &1B
9BD6   20 9D 9A          JSR .L289
9BD9   F0 D9             BEQ .L313
9BDB   90 D7             BCC .L313
9BDD   B0 D6             BCS .L314
9BDF   E6 1B      .L317  INC &1B
9BE1   20 9D 9A          JSR .L289
9BE4   D0 CE             BNE .L313
9BE6   F0 CD             BEQ .L314
9BE8   AA         .L318  TAX
9BE9   A4 1B             LDY &1B
9BEB   B1 19             LDA (&19),Y
9BED   C9 3D             CMP #&3D
9BEF   F0 09             BEQ .L319
9BF1   20 9D 9A          JSR .L289
9BF4   F0 BF             BEQ .L314
9BF6   B0 BC             BCS .L313
9BF8   90 BB             BCC .L314
9BFA   E6 1B      .L319  INC &1B
9BFC   20 9D 9A          JSR .L289
9BFF   B0 B3             BCS .L313
9C01   90 B2             BCC .L314
9C03   00         .L320  BRK
9C04   13
9C05   53                                   "S"
9C06   74                                   "t"
9C07   72                                   "r"
9C08   69 6E             ADC #&6E           "in"
9C0A   67                                   "g"
9C0B   20 74 6F          JSR &6F74          " to"
9C0E   6F                                   "o"
9C0F   20 6C 6F          JSR &6F6C          " lo"
9C12   6E 67 00          ROR &0067
9C15   20 B2 BD   .L321  JSR .L609
9C18   20 20 9E          JSR .L358
9C1B   A8                TAY
9C1C   D0 6A             BNE .L327
9C1E   18                CLC
9C1F   86 37             STX &37
9C21   A0 00             LDY #&00
9C23   B1 04             LDA (&04),Y
9C25   65 36             ADC &36
9C27   B0 DA             BCS .L320
9C29   AA                TAX
9C2A   48                PHA
9C2B   A4 36             LDY &36
9C2D   B9 FF 05   .L322  LDA &05FF,Y
9C30   9D FF 05          STA &05FF,X
9C33   CA                DEX
9C34   88                DEY
9C35   D0 F6             BNE .L322
9C37   20 CB BD          JSR .L612
9C3A   68                PLA
9C3B   85 36             STA &36
9C3D   A6 37             LDX &37
9C3F   98                TYA
9C40   F0 03             BEQ .L324
9C42   20 D1 9D   .L323  JSR .L352
9C45   E0 2B      .L324  CPX #&2B
9C47   F0 05             BEQ .L325
9C49   E0 2D             CPX #&2D
9C4B   F0 68             BEQ .L332
9C4D   60                RTS
9C4E   A8         .L325  TAY
9C4F   F0 C4             BEQ .L321
9C51   30 38             BMI .L328
9C53   20 CE 9D          JSR .L351
9C56   A8                TAY
9C57   F0 2F             BEQ .L327
9C59   30 4C             BMI .L331
9C5B   A0 00             LDY #&00
9C5D   18                CLC
9C5E   B1 04             LDA (&04),Y
9C60   65 2A             ADC &2A
9C62   85 2A             STA &2A
9C64   C8                INY
9C65   B1 04             LDA (&04),Y
9C67   65 2B             ADC &2B
9C69   85 2B             STA &2B
9C6B   C8                INY
9C6C   B1 04             LDA (&04),Y
9C6E   65 2C             ADC &2C
9C70   85 2C             STA &2C
9C72   C8                INY
9C73   B1 04             LDA (&04),Y
9C75   65 2D             ADC &2D
9C77   85 2D      .L326  STA &2D
9C79   18                CLC
9C7A   A5 04             LDA &04
9C7C   69 04             ADC #&04
9C7E   85 04             STA &04
9C80   A9 40             LDA #&40
9C82   90 C1             BCC .L324
9C84   E6 05             INC &05
9C86   B0 BD             BCS .L324
9C88   4C 0E 8C   .L327  JMP .L159
9C8B   20 51 BD   .L328  JSR .L606
9C8E   20 D1 9D          JSR .L352
9C91   A8                TAY
9C92   F0 F4             BEQ .L327
9C94   86 27             STX &27
9C96   30 03             BMI .L329
9C98   20 BE A2          JSR .L409
9C9B   20 7E BD   .L329  JSR .L607
9C9E   20 00 A5          JSR .L448
9CA1   A6 27      .L330  LDX &27
9CA3   A9 FF             LDA #&FF
9CA5   D0 9E             BNE .L324
9CA7   86 27      .L331  STX &27
9CA9   20 EA BD          JSR .L615
9CAC   20 51 BD          JSR .L606
9CAF   20 BE A2          JSR .L409
9CB2   4C 9B 9C          JMP .L329
9CB5   A8         .L332  TAY
9CB6   F0 D0             BEQ .L327
9CB8   30 27             BMI .L333
9CBA   20 CE 9D          JSR .L351
9CBD   A8                TAY
9CBE   F0 C8             BEQ .L327
9CC0   30 38             BMI .L335
9CC2   38                SEC
9CC3   A0 00             LDY #&00
9CC5   B1 04             LDA (&04),Y
9CC7   E5 2A             SBC &2A
9CC9   85 2A             STA &2A
9CCB   C8                INY
9CCC   B1 04             LDA (&04),Y
9CCE   E5 2B             SBC &2B
9CD0   85 2B             STA &2B
9CD2   C8                INY
9CD3   B1 04             LDA (&04),Y
9CD5   E5 2C             SBC &2C
9CD7   85 2C             STA &2C
9CD9   C8                INY
9CDA   B1 04             LDA (&04),Y
9CDC   E5 2D             SBC &2D
9CDE   4C 77 9C          JMP .L326
9CE1   20 51 BD   .L333  JSR .L606
9CE4   20 D1 9D          JSR .L352
9CE7   A8                TAY
9CE8   F0 9E             BEQ .L327
9CEA   86 27             STX &27
9CEC   30 03             BMI .L334
9CEE   20 BE A2          JSR .L409
9CF1   20 7E BD   .L334  JSR .L607
9CF4   20 FD A4          JSR .L447
9CF7   4C A1 9C          JMP .L330
9CFA   86 27      .L335  STX &27
9CFC   20 EA BD          JSR .L615
9CFF   20 51 BD          JSR .L606
9D02   20 BE A2          JSR .L409
9D05   20 7E BD          JSR .L607
9D08   20 D0 A4          JSR .L443
9D0B   4C A1 9C          JMP .L330
9D0E   20 BE A2   .L336  JSR .L409
9D11   20 EA BD   .L337  JSR .L615
9D14   20 51 BD          JSR .L606
9D17   20 BE A2          JSR .L409
9D1A   4C 2C 9D          JMP .L340
9D1D   20 BE A2   .L338  JSR .L409
9D20   20 51 BD   .L339  JSR .L606
9D23   20 20 9E          JSR .L358
9D26   86 27             STX &27
9D28   A8                TAY
9D29   20 FD 92          JSR .L183
9D2C   20 7E BD   .L340  JSR .L607
9D2F   20 56 A6          JSR .L471
9D32   A9 FF             LDA #&FF
9D34   A6 27             LDX &27
9D36   4C D4 9D          JMP .L353
9D39   4C 0E 8C   .L341  JMP .L159
9D3C   A8         .L342  TAY
9D3D   F0 FA             BEQ .L341
9D3F   30 DF             BMI .L339
9D41   A5 2D             LDA &2D
9D43   C5 2C             CMP &2C
9D45   D0 D6             BNE .L338
9D47   A8                TAY
9D48   F0 04             BEQ .L343
9D4A   C9 FF             CMP #&FF
9D4C   D0 CF             BNE .L338
9D4E   45 2B      .L343  EOR &2B
9D50   30 CB             BMI .L338
9D52   20 1D 9E          JSR .L357
9D55   86 27             STX &27
9D57   A8                TAY
9D58   F0 DF             BEQ .L341
9D5A   30 B5             BMI .L337
9D5C   A5 2D             LDA &2D
9D5E   C5 2C             CMP &2C
9D60   D0 AC             BNE .L336
9D62   A8                TAY
9D63   F0 04             BEQ .L344
9D65   C9 FF             CMP #&FF
9D67   D0 A5             BNE .L336
9D69   45 2B      .L344  EOR &2B
9D6B   30 A1             BMI .L336
9D6D   A5 2D             LDA &2D
9D6F   48                PHA
9D70   20 71 AD          JSR .L519
9D73   A2 39             LDX #&39
9D75   20 44 BE          JSR .L624
9D78   20 EA BD          JSR .L615
9D7B   68                PLA
9D7C   45 2D             EOR &2D
9D7E   85 37             STA &37
9D80   20 71 AD          JSR .L519
9D83   A0 00             LDY #&00
9D85   A2 00             LDX #&00
9D87   84 3F             STY &3F
9D89   84 40             STY &40
9D8B   46 3A      .L345  LSR &3A
9D8D   66 39             ROR &39
9D8F   90 15             BCC .L346
9D91   18                CLC
9D92   98                TYA
9D93   65 2A             ADC &2A
9D95   A8                TAY
9D96   8A                TXA
9D97   65 2B             ADC &2B
9D99   AA                TAX
9D9A   A5 3F             LDA &3F
9D9C   65 2C             ADC &2C
9D9E   85 3F             STA &3F
9DA0   A5 40             LDA &40
9DA2   65 2D             ADC &2D
9DA4   85 40             STA &40
9DA6   06 2A      .L346  ASL &2A
9DA8   26 2B             ROL &2B
9DAA   26 2C             ROL &2C
9DAC   26 2D             ROL &2D
9DAE   A5 39             LDA &39
9DB0   05 3A             ORA &3A
9DB2   D0 D7             BNE .L345
9DB4   84 3D             STY &3D
9DB6   86 3E             STX &3E
9DB8   A5 37             LDA &37
9DBA   08                PHP
9DBB   A2 3D      .L347  LDX #&3D
9DBD   20 56 AF   .L348  JSR .L550
9DC0   28                PLP
9DC1   10 03             BPL .L349
9DC3   20 93 AD          JSR .L524
9DC6   A6 27      .L349  LDX &27
9DC8   4C D4 9D          JMP .L353
9DCB   4C 3C 9D   .L350  JMP .L342
9DCE   20 94 BD   .L351  JSR .L608
9DD1   20 20 9E   .L352  JSR .L358
9DD4   E0 2A      .L353  CPX #&2A
9DD6   F0 F3             BEQ .L350
9DD8   E0 2F             CPX #&2F
9DDA   F0 09             BEQ .L354
9DDC   E0 83             CPX #&83
9DDE   F0 21             BEQ .L355
9DE0   E0 81             CPX #&81
9DE2   F0 26             BEQ .L356
9DE4   60                RTS
9DE5   A8         .L354  TAY
9DE6   20 FD 92          JSR .L183
9DE9   20 51 BD          JSR .L606
9DEC   20 20 9E          JSR .L358
9DEF   86 27             STX &27
9DF1   A8                TAY
9DF2   20 FD 92          JSR .L183
9DF5   20 7E BD          JSR .L607
9DF8   20 AD A6          JSR .L481
9DFB   A6 27             LDX &27
9DFD   A9 FF             LDA #&FF
9DFF   D0 D3             BNE .L353
9E01   20 BE 99   .L355  JSR .L277
9E04   A5 38             LDA &38
9E06   08                PHP
9E07   4C BB 9D          JMP .L347
9E0A   20 BE 99   .L356  JSR .L277
9E0D   26 39             ROL &39
9E0F   26 3A             ROL &3A
9E11   26 3B             ROL &3B
9E13   26 3C             ROL &3C
9E15   24 37             BIT &37
9E17   08                PHP
9E18   A2 39             LDX #&39
9E1A   4C BD 9D          JMP .L348
9E1D   20 94 BD   .L357  JSR .L608
9E20   20 EC AD   .L358  JSR .L530
9E23   48         .L359  PHA
9E24   A4 1B      .L360  LDY &1B
9E26   E6 1B             INC &1B
9E28   B1 19             LDA (&19),Y
9E2A   C9 20             CMP #&20
9E2C   F0 F6             BEQ .L360
9E2E   AA                TAX
9E2F   68                PLA
9E30   E0 5E             CPX #&5E
9E32   F0 01             BEQ .L361
9E34   60                RTS
9E35   A8         .L361  TAY
9E36   20 FD 92          JSR .L183
9E39   20 51 BD          JSR .L606
9E3C   20 FA 92          JSR .L182
9E3F   A5 30             LDA &30
9E41   C9 87             CMP #&87
9E43   B0 43             BCS .L364
9E45   20 86 A4          JSR .L438
9E48   D0 0F             BNE .L362
9E4A   20 7E BD          JSR .L607
9E4D   20 B5 A3          JSR .L425
9E50   A5 4A             LDA &4A
9E52   20 12 AB          JSR .L514
9E55   A9 FF             LDA #&FF
9E57   D0 CA             BNE .L359
9E59   20 81 A3   .L362  JSR .L422
9E5C   A5 04             LDA &04
9E5E   85 4B             STA &4B
9E60   A5 05             LDA &05
9E62   85 4C             STA &4C
9E64   20 B5 A3          JSR .L425
9E67   A5 4A             LDA &4A
9E69   20 12 AB          JSR .L514
9E6C   20 7D A3   .L363  JSR .L421
9E6F   20 7E BD          JSR .L607
9E72   20 B5 A3          JSR .L425
9E75   20 01 A8          JSR .L500
9E78   20 D1 AA          JSR .L512
9E7B   20 94 AA          JSR .L508
9E7E   20 ED A7          JSR .L496
9E81   20 56 A6          JSR .L471
9E84   A9 FF             LDA #&FF
9E86   D0 9B             BNE .L359
9E88   20 81 A3   .L364  JSR .L422
9E8B   20 99 A6          JSR .L479
9E8E   D0 DC             BNE .L363
9E90   98                TYA
9E91   10 03             BPL .L365
9E93   20 E4 A3          JSR .L427
9E96   A2 00      .L365  LDX #&00
9E98   A0 00             LDY #&00
9E9A   B9 2A 00   .L366  LDA &002A,Y
9E9D   48                PHA
9E9E   29 0F             AND #&0F
9EA0   95 3F             STA &3F,X
9EA2   68                PLA
9EA3   4A                LSR A
9EA4   4A                LSR A
9EA5   4A                LSR A
9EA6   4A                LSR A
9EA7   E8                INX
9EA8   95 3F             STA &3F,X
9EAA   E8                INX
9EAB   C8                INY
9EAC   C0 04             CPY #&04
9EAE   D0 EA             BNE .L366
9EB0   CA         .L367  DEX
9EB1   F0 04             BEQ .L368
9EB3   B5 3F             LDA &3F,X
9EB5   F0 F9             BEQ .L367
9EB7   B5 3F      .L368  LDA &3F,X
9EB9   C9 0A             CMP #&0A
9EBB   90 02             BCC .L369
9EBD   69 06             ADC #&06
9EBF   69 30      .L369  ADC #&30
9EC1   20 66 A0          JSR .L370
9EC4   CA                DEX
9EC5   10 F0             BPL .L368
9EC7   60                RTS
9EC8   10 07             BPL &9ED1
9ECA   A9 2D             LDA #&2D
9ECC   85 2E             STA &2E
9ECE   20 66 A0          JSR .L370
9ED1   A5 30             LDA &30
9ED3   C9 81             CMP #&81
9ED5   B0 4E             BCS &9F25
9ED7   20 F4 A1          JSR .L397
9EDA   C6 49             DEC &49
9EDC   4C D1 9E          JMP &9ED1
9EDF   AE 02 04          LDX &0402
9EE2   E0 03             CPX #&03
9EE4   90 02             BCC &9EE8
9EE6   A2 00             LDX #&00
9EE8   86 37             STX &37
9EEA   AD 01 04          LDA &0401
9EED   F0 06             BEQ &9EF5
9EEF   C9 0A             CMP #&0A
9EF1   B0 06             BCS &9EF9
9EF3   90 06             BCC &9EFB
9EF5   E0 02             CPX #&02
9EF7   F0 02             BEQ &9EFB
9EF9   A9 0A             LDA #&0A
9EFB   85 38             STA &38
9EFD   85 4E             STA &4E
9EFF   A9 00             LDA #&00
9F01   85 36             STA &36
9F03   85 49             STA &49
9F05   24 15             BIT &15
9F07   30 87             BMI &9E90
9F09   98                TYA
9F0A   30 03             BMI &9F0F
9F0C   20 BE A2          JSR .L409
9F0F   20 DA A1          JSR .L394
9F12   D0 B4             BNE &9EC8
9F14   A5 37             LDA &37
9F16   D0 05             BNE &9F1D
9F18   A9 30             LDA #&30
9F1A   4C 66 A0          JMP .L370
9F1D   4C 9C 9F          JMP &9F9C
9F20   20 99 A6          JSR .L479
9F23   D0 0F             BNE &9F34
9F25   C9 84             CMP #&84
9F27   90 10             BCC &9F39
9F29   D0 06             BNE &9F31
9F2B   A5 31             LDA &31
9F2D   C9 A0             CMP #&A0
9F2F   90 08             BCC &9F39
9F31   20 4D A2          JSR .L405
9F34   E6 49             INC &49
9F36   4C D1 9E          JMP &9ED1
9F39   A5 35             LDA &35
9F3B   85 27             STA &27
9F3D   20 85 A3          JSR .L423
9F40   A5 4E             LDA &4E
9F42   85 38             STA &38
9F44   A6 37             LDX &37
9F46   E0 02             CPX #&02
9F48   D0 12             BNE &9F5C
9F4A   65 49             ADC &49            "eI"
9F4C   30 52             BMI &9FA0          "0R"
9F4E   85 38             STA &38
9F50   C9 0B             CMP #&0B
9F52   90 08             BCC &9F5C
9F54   A9 0A             LDA #&0A
9F56   85 38             STA &38
9F58   A9 00             LDA #&00
9F5A   85 37             STA &37
9F5C   20 86 A6          JSR .L477
9F5F   A9 A0             LDA #&A0
9F61   85 31             STA &31
9F63   A9 83             LDA #&83
9F65   85 30             STA &30
9F67   A6 38             LDX &38
9F69   F0 06             BEQ &9F71
9F6B   20 4D A2          JSR .L405
9F6E   CA                DEX
9F6F   D0 FA             BNE &9F6B
9F71   20 F5 A7          JSR .L498
9F74   20 4E A3          JSR .L419
9F77   A5 27             LDA &27
9F79   85 42             STA &42
9F7B   20 0B A5          JSR .L450
9F7E   A5 30             LDA &30
9F80   C9 84             CMP #&84
9F82   B0 0E             BCS &9F92
9F84   66 31             ROR &31            "f1"
9F86   66 32             ROR &32            "f2"
9F88   66 33             ROR &33            "f3"
9F8A   66 34             ROR &34            "f4"
9F8C   66 35             ROR &35            "f5"
9F8E   E6 30             INC &30
9F90   D0 EC             BNE &9F7E
9F92   A5 31             LDA &31
9F94   C9 A0             CMP #&A0
9F96   B0 88             BCS &9F20
9F98   A5 38             LDA &38
9F9A   D0 11             BNE &9FAD
9F9C   C9 01             CMP #&01
9F9E   F0 46             BEQ &9FE6
9FA0   20 86 A6          JSR .L477
9FA3   A9 00             LDA #&00
9FA5   85 49             STA &49
9FA7   A5 4E             LDA &4E
9FA9   85 38             STA &38
9FAB   E6 38             INC &38
9FAD   A9 01             LDA #&01
9FAF   C5 37             CMP &37
9FB1   F0 33             BEQ &9FE6
9FB3   A4 49             LDY &49
9FB5   30 0C             BMI &9FC3
9FB7   C4 38             CPY &38
9FB9   B0 2B             BCS &9FE6
9FBB   A9 00             LDA #&00
9FBD   85 49             STA &49
9FBF   C8                INY
9FC0   98                TYA
9FC1   D0 23             BNE &9FE6
9FC3   A5 37             LDA &37
9FC5   C9 02             CMP #&02
9FC7   F0 06             BEQ &9FCF
9FC9   A9 01             LDA #&01
9FCB   C0 FF             CPY #&FF
9FCD   D0 17             BNE &9FE6
9FCF   A9 30             LDA #&30
9FD1   20 66 A0          JSR .L370
9FD4   A9 2E             LDA #&2E
9FD6   20 66 A0          JSR .L370
9FD9   A9 30             LDA #&30
9FDB   E6 49             INC &49
9FDD   F0 05             BEQ &9FE4
9FDF   20 66 A0          JSR .L370
9FE2   D0 F7             BNE &9FDB
9FE4   A9 80             LDA #&80
9FE6   85 4E             STA &4E
9FE8   20 40 A0          JSR &A040
9FEB   C6 4E             DEC &4E
9FED   D0 05             BNE &9FF4
9FEF   A9 2E             LDA #&2E
9FF1   20 66 A0          JSR .L370
9FF4   C6 38             DEC &38
9FF6   D0 F0             BNE &9FE8
9FF8   A4 37             LDY &37
9FFA   88                DEY
9FFB   F0 18             BEQ &A015
9FFD   88                DEY
9FFE   F0 11             BEQ &A011
A000   A4 36             LDY &36
A002   88                DEY
A003   B9 00 06          LDA &0600,Y
A006   C9 30             CMP #&30
A008   F0 F8             BEQ &A002
A00A   C9 2E             CMP #&2E
A00C   F0 01             BEQ &A00F
A00E   C8                INY
A00F   84 36             STY &36
A011   A5 49             LDA &49
A013   F0 2A             BEQ &A03F
A015   A9 45             LDA #&45
A017   20 66 A0          JSR .L370
A01A   A5 49             LDA &49
A01C   10 0A             BPL &A028
A01E   A9 2D             LDA #&2D
A020   20 66 A0          JSR .L370
A023   38                SEC                "8"
A024   A9 00             LDA #&00
A026   E5 49             SBC &49
A028   20 52 A0          JSR &A052
A02B   A5 37             LDA &37
A02D   F0 10             BEQ &A03F
A02F   A9 20             LDA #&20
A031   A4 49             LDY &49
A033   30 03             BMI &A038
A035   20 66 A0          JSR .L370
A038   E0 00             CPX #&00
A03A   D0 03             BNE &A03F
A03C   4C 66 A0          JMP .L370
A03F   60                RTS                "`"
A040   A5 31             LDA &31
A042   4A                LSR A              "J"
A043   4A                LSR A              "J"
A044   4A                LSR A              "J"
A045   4A                LSR A              "J"
A046   20 64 A0          JSR &A064
A049   A5 31             LDA &31
A04B   29 0F             AND #&0F
A04D   85 31             STA &31
A04F   4C 97 A1          JMP .L393
A052   A2 FF             LDX #&FF
A054   38                SEC                "8"
A055   E8                INX
A056   E9 0A             SBC #&0A
A058   B0 FB             BCS &A055
A05A   69 0A             ADC #&0A
A05C   48                PHA                "H"
A05D   8A                TXA
A05E   F0 03             BEQ &A063
A060   20 64 A0          JSR &A064
A063   68                PLA                "h"
A064   09 30             ORA #&30
A066   86 3B      .L370  STX &3B
A068   A6 36             LDX &36
A06A   9D 00 06          STA &0600,X
A06D   A6 3B             LDX &3B
A06F   E6 36             INC &36
A071   60                RTS
A072   18         .L371  CLC
A073   86 35             STX &35
A075   20 DA A1          JSR .L394
A078   A9 FF             LDA #&FF
A07A   60                RTS
A07B   A2 00      .L372  LDX #&00
A07D   86 31             STX &31
A07F   86 32             STX &32
A081   86 33             STX &33
A083   86 34             STX &34
A085   86 35             STX &35
A087   86 48             STX &48
A089   86 49             STX &49
A08B   C9 2E             CMP #&2E
A08D   F0 11             BEQ .L374
A08F   C9 3A             CMP #&3A
A091   B0 DF             BCS .L371
A093   E9 2F             SBC #&2F
A095   30 DB             BMI .L371
A097   85 35             STA &35
A099   C8         .L373  INY
A09A   B1 19             LDA (&19),Y
A09C   C9 2E             CMP #&2E
A09E   D0 08             BNE .L375
A0A0   A5 48      .L374  LDA &48
A0A2   D0 44             BNE .L379
A0A4   E6 48             INC &48
A0A6   D0 F1             BNE .L373
A0A8   C9 45      .L375  CMP #&45
A0AA   F0 35             BEQ .L378
A0AC   C9 3A             CMP #&3A
A0AE   B0 38             BCS .L379
A0B0   E9 2F             SBC #&2F
A0B2   90 34             BCC .L379
A0B4   A6 31             LDX &31
A0B6   E0 18             CPX #&18
A0B8   90 08             BCC .L376
A0BA   A6 48             LDX &48
A0BC   D0 DB             BNE .L373
A0BE   E6 49             INC &49
A0C0   B0 D7             BCS .L373
A0C2   A6 48      .L376  LDX &48
A0C4   F0 02             BEQ .L377
A0C6   C6 49             DEC &49
A0C8   20 97 A1   .L377  JSR .L393
A0CB   65 35             ADC &35
A0CD   85 35             STA &35
A0CF   90 C8             BCC .L373
A0D1   E6 34             INC &34
A0D3   D0 C4             BNE .L373
A0D5   E6 33             INC &33
A0D7   D0 C0             BNE .L373
A0D9   E6 32             INC &32
A0DB   D0 BC             BNE .L373
A0DD   E6 31             INC &31
A0DF   D0 B8             BNE .L373
A0E1   20 40 A1   .L378  JSR .L387
A0E4   65 49             ADC &49
A0E6   85 49             STA &49
A0E8   84 1B      .L379  STY &1B
A0EA   A5 49             LDA &49
A0EC   05 48             ORA &48
A0EE   F0 2F             BEQ .L385
A0F0   20 DA A1          JSR .L394
A0F3   F0 26             BEQ .L384
A0F5   A9 A8      .L380  LDA #&A8
A0F7   85 30             STA &30
A0F9   A9 00             LDA #&00
A0FB   85 2F             STA &2F
A0FD   85 2E             STA &2E
A0FF   20 03 A3          JSR .L415
A102   A5 49             LDA &49
A104   30 0B             BMI .L382
A106   F0 10             BEQ .L383
A108   20 F4 A1   .L381  JSR .L397
A10B   C6 49             DEC &49
A10D   D0 F9             BNE .L381
A10F   F0 07             BEQ .L383
A111   20 4D A2   .L382  JSR .L405
A114   E6 49             INC &49
A116   D0 F9             BNE .L382
A118   20 5C A6   .L383  JSR .L473
A11B   38         .L384  SEC
A11C   A9 FF             LDA #&FF
A11E   60                RTS
A11F   A5 32      .L385  LDA &32
A121   85 2D             STA &2D
A123   29 80             AND #&80
A125   05 31             ORA &31
A127   D0 CC             BNE .L380
A129   A5 35             LDA &35
A12B   85 2A             STA &2A
A12D   A5 34             LDA &34
A12F   85 2B             STA &2B
A131   A5 33             LDA &33
A133   85 2C             STA &2C
A135   A9 40             LDA #&40
A137   38                SEC
A138   60                RTS
A139   20 4B A1   .L386  JSR .L388
A13C   49 FF             EOR #&FF
A13E   38                SEC
A13F   60                RTS
A140   C8         .L387  INY
A141   B1 19             LDA (&19),Y
A143   C9 2D             CMP #&2D
A145   F0 F2             BEQ .L386
A147   C9 2B             CMP #&2B
A149   D0 03             BNE .L389
A14B   C8         .L388  INY
A14C   B1 19             LDA (&19),Y
A14E   C9 3A      .L389  CMP #&3A
A150   B0 22             BCS .L391
A152   E9 2F             SBC #&2F
A154   90 1E             BCC .L391
A156   85 4A             STA &4A
A158   C8                INY
A159   B1 19             LDA (&19),Y
A15B   C9 3A             CMP #&3A
A15D   B0 11             BCS .L390
A15F   E9 2F             SBC #&2F
A161   90 0D             BCC .L390
A163   C8                INY
A164   85 43             STA &43
A166   A5 4A             LDA &4A
A168   0A                ASL A
A169   0A                ASL A
A16A   65 4A             ADC &4A
A16C   0A                ASL A
A16D   65 43             ADC &43
A16F   60                RTS
A170   A5 4A      .L390  LDA &4A
A172   18                CLC
A173   60                RTS
A174   A9 00      .L391  LDA #&00
A176   18                CLC
A177   60                RTS
A178   A5 35      .L392  LDA &35
A17A   65 42             ADC &42
A17C   85 35             STA &35
A17E   A5 34             LDA &34
A180   65 41             ADC &41
A182   85 34             STA &34
A184   A5 33             LDA &33
A186   65 40             ADC &40
A188   85 33             STA &33
A18A   A5 32             LDA &32
A18C   65 3F             ADC &3F
A18E   85 32             STA &32
A190   A5 31             LDA &31
A192   65 3E             ADC &3E
A194   85 31             STA &31
A196   60                RTS
A197   48         .L393  PHA
A198   A6 34             LDX &34
A19A   A5 31             LDA &31
A19C   48                PHA
A19D   A5 32             LDA &32
A19F   48                PHA
A1A0   A5 33             LDA &33
A1A2   48                PHA
A1A3   A5 35             LDA &35
A1A5   0A                ASL A
A1A6   26 34             ROL &34
A1A8   26 33             ROL &33
A1AA   26 32             ROL &32
A1AC   26 31             ROL &31
A1AE   0A                ASL A
A1AF   26 34             ROL &34
A1B1   26 33             ROL &33
A1B3   26 32             ROL &32
A1B5   26 31             ROL &31
A1B7   65 35             ADC &35
A1B9   85 35             STA &35
A1BB   8A                TXA
A1BC   65 34             ADC &34
A1BE   85 34             STA &34
A1C0   68                PLA
A1C1   65 33             ADC &33
A1C3   85 33             STA &33
A1C5   68                PLA
A1C6   65 32             ADC &32
A1C8   85 32             STA &32
A1CA   68                PLA
A1CB   65 31             ADC &31
A1CD   06 35             ASL &35
A1CF   26 34             ROL &34
A1D1   26 33             ROL &33
A1D3   26 32             ROL &32
A1D5   2A                ROL A
A1D6   85 31             STA &31
A1D8   68                PLA
A1D9   60                RTS
A1DA   A5 31      .L394  LDA &31
A1DC   05 32             ORA &32
A1DE   05 33             ORA &33
A1E0   05 34             ORA &34
A1E2   05 35             ORA &35
A1E4   F0 07             BEQ .L395
A1E6   A5 2E             LDA &2E
A1E8   D0 09             BNE .L396
A1EA   A9 01             LDA #&01
A1EC   60                RTS
A1ED   85 2E      .L395  STA &2E
A1EF   85 30             STA &30
A1F1   85 2F             STA &2F
A1F3   60         .L396  RTS
A1F4   18         .L397  CLC
A1F5   A5 30             LDA &30
A1F7   69 03             ADC #&03
A1F9   85 30             STA &30
A1FB   90 02             BCC .L398
A1FD   E6 2F             INC &2F
A1FF   20 1E A2   .L398  JSR .L402
A202   20 42 A2          JSR .L404
A205   20 42 A2          JSR .L404
A208   20 78 A1   .L399  JSR .L392
A20B   90 10      .L400  BCC .L401
A20D   66 31             ROR &31
A20F   66 32             ROR &32
A211   66 33             ROR &33
A213   66 34             ROR &34
A215   66 35             ROR &35
A217   E6 30             INC &30
A219   D0 02             BNE .L401
A21B   E6 2F             INC &2F
A21D   60         .L401  RTS
A21E   A5 2E      .L402  LDA &2E
A220   85 3B             STA &3B
A222   A5 2F             LDA &2F
A224   85 3C             STA &3C
A226   A5 30             LDA &30
A228   85 3D             STA &3D
A22A   A5 31             LDA &31
A22C   85 3E             STA &3E
A22E   A5 32             LDA &32
A230   85 3F             STA &3F
A232   A5 33             LDA &33
A234   85 40             STA &40
A236   A5 34             LDA &34
A238   85 41             STA &41
A23A   A5 35             LDA &35
A23C   85 42             STA &42
A23E   60                RTS
A23F   20 1E A2   .L403  JSR .L402
A242   46 3E      .L404  LSR &3E
A244   66 3F             ROR &3F
A246   66 40             ROR &40
A248   66 41             ROR &41
A24A   66 42             ROR &42
A24C   60                RTS
A24D   38         .L405  SEC
A24E   A5 30             LDA &30
A250   E9 04             SBC #&04
A252   85 30             STA &30
A254   B0 02             BCS .L406
A256   C6 2F             DEC &2F
A258   20 3F A2   .L406  JSR .L403
A25B   20 08 A2          JSR .L399
A25E   20 3F A2          JSR .L403
A261   20 42 A2          JSR .L404
A264   20 42 A2          JSR .L404
A267   20 42 A2          JSR .L404
A26A   20 08 A2          JSR .L399
A26D   A9 00             LDA #&00
A26F   85 3E             STA &3E
A271   A5 31             LDA &31
A273   85 3F             STA &3F
A275   A5 32             LDA &32
A277   85 40             STA &40
A279   A5 33             LDA &33
A27B   85 41             STA &41
A27D   A5 34             LDA &34
A27F   85 42             STA &42
A281   A5 35             LDA &35
A283   2A                ROL A
A284   20 08 A2          JSR .L399
A287   A9 00             LDA #&00
A289   85 3E             STA &3E
A28B   85 3F             STA &3F
A28D   A5 31             LDA &31
A28F   85 40             STA &40
A291   A5 32             LDA &32
A293   85 41             STA &41
A295   A5 33             LDA &33
A297   85 42             STA &42
A299   A5 34             LDA &34
A29B   2A                ROL A
A29C   20 08 A2          JSR .L399
A29F   A5 32             LDA &32
A2A1   2A                ROL A
A2A2   A5 31             LDA &31
A2A4   65 35      .L407  ADC &35
A2A6   85 35             STA &35
A2A8   90 13             BCC .L408
A2AA   E6 34             INC &34
A2AC   D0 0F             BNE .L408
A2AE   E6 33             INC &33
A2B0   D0 0B             BNE .L408
A2B2   E6 32             INC &32
A2B4   D0 07             BNE .L408
A2B6   E6 31             INC &31
A2B8   D0 03             BNE .L408
A2BA   4C 0B A2          JMP .L400
A2BD   60         .L408  RTS
A2BE   A2 00      .L409  LDX #&00
A2C0   86 35             STX &35
A2C2   86 2F             STX &2F
A2C4   A5 2D             LDA &2D
A2C6   10 05             BPL .L410
A2C8   20 93 AD          JSR .L524
A2CB   A2 FF             LDX #&FF
A2CD   86 2E      .L410  STX &2E
A2CF   A5 2A             LDA &2A
A2D1   85 34             STA &34
A2D3   A5 2B             LDA &2B
A2D5   85 33             STA &33
A2D7   A5 2C             LDA &2C
A2D9   85 32             STA &32
A2DB   A5 2D             LDA &2D
A2DD   85 31             STA &31
A2DF   A9 A0             LDA #&A0
A2E1   85 30             STA &30
A2E3   4C 03 A3          JMP .L415
A2E6   85 2E      .L411  STA &2E
A2E8   85 30             STA &30
A2EA   85 2F             STA &2F
A2EC   60         .L412  RTS
A2ED   48         .L413  PHA
A2EE   20 86 A6          JSR .L477
A2F1   68                PLA
A2F2   F0 F8             BEQ .L412
A2F4   10 07             BPL .L414
A2F6   85 2E             STA &2E
A2F8   A9 00             LDA #&00
A2FA   38                SEC
A2FB   E5 2E             SBC &2E
A2FD   85 31      .L414  STA &31
A2FF   A9 88             LDA #&88
A301   85 30             STA &30
A303   A5 31      .L415  LDA &31
A305   30 E5             BMI .L412
A307   05 32             ORA &32
A309   05 33             ORA &33
A30B   05 34             ORA &34
A30D   05 35             ORA &35
A30F   F0 D5             BEQ .L411
A311   A5 30             LDA &30
A313   A4 31      .L416  LDY &31
A315   30 D5             BMI .L412
A317   D0 21             BNE .L418
A319   A6 32             LDX &32
A31B   86 31             STX &31
A31D   A6 33             LDX &33
A31F   86 32             STX &32
A321   A6 34             LDX &34
A323   86 33             STX &33
A325   A6 35             LDX &35
A327   86 34             STX &34
A329   84 35             STY &35
A32B   38                SEC
A32C   E9 08             SBC #&08
A32E   85 30             STA &30
A330   B0 E1             BCS .L416
A332   C6 2F             DEC &2F
A334   90 DD             BCC .L416
A336   A4 31      .L417  LDY &31
A338   30 B2             BMI .L412
A33A   06 35      .L418  ASL &35
A33C   26 34             ROL &34
A33E   26 33             ROL &33
A340   26 32             ROL &32
A342   26 31             ROL &31
A344   E9 00             SBC #&00
A346   85 30             STA &30
A348   B0 EC             BCS .L417
A34A   C6 2F             DEC &2F
A34C   90 E8             BCC .L417
A34E   A0 04      .L419  LDY #&04
A350   B1 4B             LDA (&4B),Y
A352   85 41             STA &41
A354   88                DEY
A355   B1 4B             LDA (&4B),Y
A357   85 40             STA &40
A359   88                DEY
A35A   B1 4B             LDA (&4B),Y
A35C   85 3F             STA &3F
A35E   88                DEY
A35F   B1 4B             LDA (&4B),Y
A361   85 3B             STA &3B
A363   88                DEY
A364   84 42             STY &42
A366   84 3C             STY &3C
A368   B1 4B             LDA (&4B),Y
A36A   85 3D             STA &3D
A36C   05 3B             ORA &3B
A36E   05 3F             ORA &3F
A370   05 40             ORA &40
A372   05 41             ORA &41
A374   F0 04             BEQ .L420
A376   A5 3B             LDA &3B
A378   09 80             ORA #&80
A37A   85 3E      .L420  STA &3E
A37C   60                RTS
A37D   A9 71      .L421  LDA #&71
A37F   D0 06             BNE .L424
A381   A9 76      .L422  LDA #&76
A383   D0 02             BNE .L424
A385   A9 6C      .L423  LDA #&6C
A387   85 4B      .L424  STA &4B
A389   A9 04             LDA #&04
A38B   85 4C             STA &4C
A38D   A0 00             LDY #&00
A38F   A5 30             LDA &30
A391   91 4B             STA (&4B),Y
A393   C8                INY
A394   A5 2E             LDA &2E
A396   29 80             AND #&80
A398   85 2E             STA &2E
A39A   A5 31             LDA &31
A39C   29 7F             AND #&7F
A39E   05 2E             ORA &2E
A3A0   91 4B             STA (&4B),Y
A3A2   A5 32             LDA &32
A3A4   C8                INY
A3A5   91 4B             STA (&4B),Y
A3A7   A5 33             LDA &33
A3A9   C8                INY
A3AA   91 4B             STA (&4B),Y
A3AC   A5 34             LDA &34
A3AE   C8                INY
A3AF   91 4B             STA (&4B),Y
A3B1   60                RTS
A3B2   20 F5 A7          JSR .L498
A3B5   A0 04      .L425  LDY #&04
A3B7   B1 4B             LDA (&4B),Y
A3B9   85 34             STA &34
A3BB   88                DEY
A3BC   B1 4B             LDA (&4B),Y
A3BE   85 33             STA &33
A3C0   88                DEY
A3C1   B1 4B             LDA (&4B),Y
A3C3   85 32             STA &32
A3C5   88                DEY
A3C6   B1 4B             LDA (&4B),Y
A3C8   85 2E             STA &2E
A3CA   88                DEY
A3CB   B1 4B             LDA (&4B),Y
A3CD   85 30             STA &30
A3CF   84 35             STY &35
A3D1   84 2F             STY &2F
A3D3   05 2E             ORA &2E
A3D5   05 32             ORA &32
A3D7   05 33             ORA &33
A3D9   05 34             ORA &34
A3DB   F0 04             BEQ .L426
A3DD   A5 2E             LDA &2E
A3DF   09 80             ORA #&80
A3E1   85 31      .L426  STA &31
A3E3   60                RTS
A3E4   20 FE A3   .L427  JSR .L429
A3E7   A5 31             LDA &31
A3E9   85 2D             STA &2D
A3EB   A5 32             LDA &32
A3ED   85 2C             STA &2C
A3EF   A5 33             LDA &33
A3F1   85 2B             STA &2B
A3F3   A5 34             LDA &34
A3F5   85 2A             STA &2A
A3F7   60                RTS
A3F8   20 1E A2   .L428  JSR .L402
A3FB   4C 86 A6          JMP .L477
A3FE   A5 30      .L429  LDA &30
A400   10 F6             BPL .L428
A402   20 53 A4          JSR .L433
A405   20 DA A1          JSR .L394
A408   D0 32             BNE .L431
A40A   F0 5C             BEQ .L435
A40C   A5 30      .L430  LDA &30
A40E   C9 A0             CMP #&A0
A410   B0 54             BCS .L434
A412   C9 99             CMP #&99
A414   B0 26             BCS .L431
A416   69 08             ADC #&08
A418   85 30             STA &30
A41A   A5 40             LDA &40
A41C   85 41             STA &41
A41E   A5 3F             LDA &3F
A420   85 40             STA &40
A422   A5 3E             LDA &3E
A424   85 3F             STA &3F
A426   A5 34             LDA &34
A428   85 3E             STA &3E
A42A   A5 33             LDA &33
A42C   85 34             STA &34
A42E   A5 32             LDA &32
A430   85 33             STA &33
A432   A5 31             LDA &31
A434   85 32             STA &32
A436   A9 00             LDA #&00
A438   85 31             STA &31
A43A   F0 D0             BEQ .L430
A43C   46 31      .L431  LSR &31
A43E   66 32             ROR &32
A440   66 33             ROR &33
A442   66 34             ROR &34
A444   66 3E             ROR &3E
A446   66 3F             ROR &3F
A448   66 40             ROR &40
A44A   66 41             ROR &41
A44C   E6 30             INC &30
A44E   D0 BC             BNE .L430
A450   4C 6C A6   .L432  JMP .L474
A453   A9 00      .L433  LDA #&00
A455   85 3B             STA &3B
A457   85 3C             STA &3C
A459   85 3D             STA &3D
A45B   85 3E             STA &3E
A45D   85 3F             STA &3F
A45F   85 40             STA &40
A461   85 41             STA &41
A463   85 42             STA &42
A465   60                RTS
A466   D0 E8      .L434  BNE .L432
A468   A5 2E      .L435  LDA &2E
A46A   10 19             BPL .L437
A46C   38         .L436  SEC
A46D   A9 00             LDA #&00
A46F   E5 34             SBC &34
A471   85 34             STA &34
A473   A9 00             LDA #&00
A475   E5 33             SBC &33
A477   85 33             STA &33
A479   A9 00             LDA #&00
A47B   E5 32             SBC &32
A47D   85 32             STA &32
A47F   A9 00             LDA #&00
A481   E5 31             SBC &31
A483   85 31             STA &31
A485   60         .L437  RTS
A486   A5 30      .L438  LDA &30
A488   30 07             BMI .L439
A48A   A9 00             LDA #&00
A48C   85 4A             STA &4A
A48E   4C DA A1          JMP .L394
A491   20 FE A3   .L439  JSR .L429
A494   A5 34             LDA &34
A496   85 4A             STA &4A
A498   20 E8 A4          JSR .L445
A49B   A9 80             LDA #&80
A49D   85 30             STA &30
A49F   A6 31             LDX &31
A4A1   10 10             BPL .L442
A4A3   45 2E             EOR &2E
A4A5   85 2E             STA &2E
A4A7   10 05             BPL .L440
A4A9   E6 4A             INC &4A
A4AB   4C B0 A4          JMP .L441
A4AE   C6 4A      .L440  DEC &4A
A4B0   20 6C A4   .L441  JSR .L436
A4B3   4C 03 A3   .L442  JMP .L415
A4B6   E6 34             INC &34
A4B8   D0 0C             BNE &A4C6
A4BA   E6 33             INC &33
A4BC   D0 08             BNE &A4C6
A4BE   E6 32             INC &32
A4C0   D0 04             BNE &A4C6
A4C2   E6 31             INC &31
A4C4   F0 8A             BEQ .L432
A4C6   60                RTS                "`"
A4C7   20 6C A4          JSR .L436
A4CA   20 B6 A4          JSR &A4B6
A4CD   4C 6C A4          JMP .L436
A4D0   20 FD A4   .L443  JSR .L447
A4D3   4C 7E AD          JMP .L520
A4D6   20 4E A3          JSR .L419
A4D9   20 8D A3          JSR &A38D
A4DC   A5 3B      .L444  LDA &3B
A4DE   85 2E             STA &2E
A4E0   A5 3C             LDA &3C
A4E2   85 2F             STA &2F
A4E4   A5 3D             LDA &3D
A4E6   85 30             STA &30
A4E8   A5 3E      .L445  LDA &3E
A4EA   85 31             STA &31
A4EC   A5 3F             LDA &3F
A4EE   85 32             STA &32
A4F0   A5 40             LDA &40
A4F2   85 33             STA &33
A4F4   A5 41             LDA &41
A4F6   85 34             STA &34
A4F8   A5 42             LDA &42
A4FA   85 35             STA &35
A4FC   60         .L446  RTS
A4FD   20 7E AD   .L447  JSR .L520
A500   20 4E A3   .L448  JSR .L419
A503   F0 F7             BEQ .L446
A505   20 0B A5   .L449  JSR .L450
A508   4C 5C A6          JMP .L473
A50B   20 DA A1   .L450  JSR .L394
A50E   F0 CC             BEQ .L444
A510   A0 00             LDY #&00
A512   38                SEC
A513   A5 30             LDA &30
A515   E5 3D             SBC &3D
A517   F0 77             BEQ .L459
A519   90 37             BCC .L454
A51B   C9 25             CMP #&25
A51D   B0 DD             BCS .L446
A51F   48                PHA
A520   29 38             AND #&38
A522   F0 19             BEQ .L452
A524   4A                LSR A
A525   4A                LSR A
A526   4A                LSR A
A527   AA                TAX
A528   A5 41      .L451  LDA &41
A52A   85 42             STA &42
A52C   A5 40             LDA &40
A52E   85 41             STA &41
A530   A5 3F             LDA &3F
A532   85 40             STA &40
A534   A5 3E             LDA &3E
A536   85 3F             STA &3F
A538   84 3E             STY &3E
A53A   CA                DEX
A53B   D0 EB             BNE .L451
A53D   68         .L452  PLA
A53E   29 07             AND #&07
A540   F0 4E             BEQ .L459
A542   AA                TAX
A543   46 3E      .L453  LSR &3E
A545   66 3F             ROR &3F
A547   66 40             ROR &40
A549   66 41             ROR &41
A54B   66 42             ROR &42
A54D   CA                DEX
A54E   D0 F3             BNE .L453
A550   F0 3E             BEQ .L459
A552   38         .L454  SEC
A553   A5 3D             LDA &3D
A555   E5 30             SBC &30
A557   C9 25             CMP #&25
A559   B0 81             BCS .L444
A55B   48                PHA
A55C   29 38             AND #&38
A55E   F0 19             BEQ .L456
A560   4A                LSR A
A561   4A                LSR A
A562   4A                LSR A
A563   AA                TAX
A564   A5 34      .L455  LDA &34
A566   85 35             STA &35
A568   A5 33             LDA &33
A56A   85 34             STA &34
A56C   A5 32             LDA &32
A56E   85 33             STA &33
A570   A5 31             LDA &31
A572   85 32             STA &32
A574   84 31             STY &31
A576   CA                DEX
A577   D0 EB             BNE .L455
A579   68         .L456  PLA
A57A   29 07             AND #&07
A57C   F0 0E             BEQ .L458
A57E   AA                TAX
A57F   46 31      .L457  LSR &31
A581   66 32             ROR &32
A583   66 33             ROR &33
A585   66 34             ROR &34
A587   66 35             ROR &35
A589   CA                DEX
A58A   D0 F3             BNE .L457
A58C   A5 3D      .L458  LDA &3D
A58E   85 30             STA &30
A590   A5 2E      .L459  LDA &2E
A592   45 3B             EOR &3B
A594   10 49             BPL .L461
A596   A5 31             LDA &31
A598   C5 3E             CMP &3E
A59A   D0 1B             BNE .L460
A59C   A5 32             LDA &32
A59E   C5 3F             CMP &3F
A5A0   D0 15             BNE .L460
A5A2   A5 33             LDA &33
A5A4   C5 40             CMP &40
A5A6   D0 0F             BNE .L460
A5A8   A5 34             LDA &34
A5AA   C5 41             CMP &41
A5AC   D0 09             BNE .L460
A5AE   A5 35             LDA &35
A5B0   C5 42             CMP &42
A5B2   D0 03             BNE .L460
A5B4   4C 86 A6          JMP .L477
A5B7   B0 2A      .L460  BCS .L462
A5B9   38                SEC
A5BA   A5 42             LDA &42
A5BC   E5 35             SBC &35
A5BE   85 35             STA &35
A5C0   A5 41             LDA &41
A5C2   E5 34             SBC &34
A5C4   85 34             STA &34
A5C6   A5 40             LDA &40
A5C8   E5 33             SBC &33
A5CA   85 33             STA &33
A5CC   A5 3F             LDA &3F
A5CE   E5 32             SBC &32
A5D0   85 32             STA &32
A5D2   A5 3E             LDA &3E
A5D4   E5 31             SBC &31
A5D6   85 31             STA &31
A5D8   A5 3B             LDA &3B
A5DA   85 2E             STA &2E
A5DC   4C 03 A3          JMP .L415
A5DF   18         .L461  CLC
A5E0   4C 08 A2          JMP .L399
A5E3   38         .L462  SEC
A5E4   A5 35             LDA &35
A5E6   E5 42             SBC &42
A5E8   85 35             STA &35
A5EA   A5 34             LDA &34
A5EC   E5 41             SBC &41
A5EE   85 34             STA &34
A5F0   A5 33             LDA &33
A5F2   E5 40             SBC &40
A5F4   85 33             STA &33
A5F6   A5 32             LDA &32
A5F8   E5 3F             SBC &3F
A5FA   85 32             STA &32
A5FC   A5 31             LDA &31
A5FE   E5 3E             SBC &3E
A600   85 31             STA &31
A602   4C 03 A3          JMP .L415
A605   60         .L463  RTS
A606   20 DA A1   .L464  JSR .L394
A609   F0 FA             BEQ .L463
A60B   20 4E A3          JSR .L419
A60E   D0 03             BNE .L465
A610   4C 86 A6          JMP .L477
A613   18         .L465  CLC
A614   A5 30             LDA &30
A616   65 3D             ADC &3D
A618   90 03             BCC .L466
A61A   E6 2F             INC &2F
A61C   18                CLC
A61D   E9 7F      .L466  SBC #&7F
A61F   85 30             STA &30
A621   B0 02             BCS .L467
A623   C6 2F             DEC &2F
A625   A2 05      .L467  LDX #&05
A627   A0 00             LDY #&00
A629   B5 30      .L468  LDA &30,X
A62B   95 42             STA &42,X
A62D   94 30             STY &30,X
A62F   CA                DEX
A630   D0 F7             BNE .L468
A632   A5 2E             LDA &2E
A634   45 3B             EOR &3B
A636   85 2E             STA &2E
A638   A0 20             LDY #&20
A63A   46 3E      .L469  LSR &3E
A63C   66 3F             ROR &3F
A63E   66 40             ROR &40
A640   66 41             ROR &41
A642   66 42             ROR &42
A644   06 46             ASL &46
A646   26 45             ROL &45
A648   26 44             ROL &44
A64A   26 43             ROL &43
A64C   90 04             BCC .L470
A64E   18                CLC
A64F   20 78 A1          JSR .L392
A652   88         .L470  DEY
A653   D0 E5             BNE .L469
A655   60                RTS
A656   20 06 A6   .L471  JSR .L464
A659   20 03 A3   .L472  JSR .L415
A65C   A5 35      .L473  LDA &35
A65E   C9 80             CMP #&80
A660   90 1A             BCC .L476
A662   F0 12             BEQ .L475
A664   A9 FF             LDA #&FF
A666   20 A4 A2          JSR .L407
A669   4C 7C A6          JMP .L476
A66C   00         .L474  BRK
A66D   14
A66E   54                                   "T"
A66F   6F                                   "o"
A670   6F                                   "o"
A671   20 62 69          JSR &6962          " bi"
A674   67                                   "g"
A675   00                BRK
A676   A5 34      .L475  LDA &34
A678   09 01             ORA #&01
A67A   85 34             STA &34
A67C   A9 00      .L476  LDA #&00
A67E   85 35             STA &35
A680   A5 2F             LDA &2F
A682   F0 14             BEQ .L478
A684   10 E6             BPL .L474
A686   A9 00      .L477  LDA #&00
A688   85 2E             STA &2E
A68A   85 2F             STA &2F
A68C   85 30             STA &30
A68E   85 31             STA &31
A690   85 32             STA &32
A692   85 33             STA &33
A694   85 34             STA &34
A696   85 35             STA &35
A698   60         .L478  RTS
A699   20 86 A6   .L479  JSR .L477
A69C   A0 80             LDY #&80
A69E   84 31             STY &31
A6A0   C8                INY
A6A1   84 30             STY &30
A6A3   98                TYA
A6A4   60                RTS
A6A5   20 85 A3   .L480  JSR .L423
A6A8   20 99 A6          JSR .L479
A6AB   D0 3A             BNE .L483
A6AD   20 DA A1   .L481  JSR .L394
A6B0   F0 09             BEQ .L482
A6B2   20 1E A2          JSR .L402
A6B5   20 B5 A3          JSR .L425
A6B8   D0 37             BNE .L484
A6BA   60                RTS
A6BB   4C A7 99   .L482  JMP .L276
A6BE   20 FA 92          JSR .L182
A6C1   20 D3 A9          JSR &A9D3
A6C4   A5 4A             LDA &4A
A6C6   48                PHA                "H"
A6C7   20 E9 A7          JSR .L495
A6CA   20 8D A3          JSR &A38D
A6CD   E6 4A             INC &4A
A6CF   20 9E A9          JSR &A99E
A6D2   20 E9 A7          JSR .L495
A6D5   20 D6 A4          JSR &A4D6
A6D8   68                PLA                "h"
A6D9   85 4A             STA &4A
A6DB   20 9E A9          JSR &A99E
A6DE   20 E9 A7          JSR .L495
A6E1   20 E7 A6          JSR .L483
A6E4   A9 FF             LDA #&FF
A6E6   60                RTS                "`"
A6E7   20 DA A1   .L483  JSR .L394
A6EA   F0 AC             BEQ .L478
A6EC   20 4E A3          JSR .L419
A6EF   F0 CA             BEQ .L482
A6F1   A5 2E      .L484  LDA &2E
A6F3   45 3B             EOR &3B
A6F5   85 2E             STA &2E
A6F7   38                SEC
A6F8   A5 30             LDA &30
A6FA   E5 3D             SBC &3D
A6FC   B0 03             BCS .L485
A6FE   C6 2F             DEC &2F
A700   38                SEC
A701   69 80      .L485  ADC #&80
A703   85 30             STA &30
A705   90 03             BCC .L486
A707   E6 2F             INC &2F
A709   18                CLC
A70A   A2 20      .L486  LDX #&20
A70C   B0 18      .L487  BCS .L489
A70E   A5 31             LDA &31
A710   C5 3E             CMP &3E
A712   D0 10             BNE .L488
A714   A5 32             LDA &32
A716   C5 3F             CMP &3F
A718   D0 0A             BNE .L488
A71A   A5 33             LDA &33
A71C   C5 40             CMP &40
A71E   D0 04             BNE .L488
A720   A5 34             LDA &34
A722   C5 41             CMP &41
A724   90 19      .L488  BCC .L490
A726   A5 34      .L489  LDA &34
A728   E5 41             SBC &41
A72A   85 34             STA &34
A72C   A5 33             LDA &33
A72E   E5 40             SBC &40
A730   85 33             STA &33
A732   A5 32             LDA &32
A734   E5 3F             SBC &3F
A736   85 32             STA &32
A738   A5 31             LDA &31
A73A   E5 3E             SBC &3E
A73C   85 31             STA &31
A73E   38                SEC
A73F   26 46      .L490  ROL &46
A741   26 45             ROL &45
A743   26 44             ROL &44
A745   26 43             ROL &43
A747   06 34             ASL &34
A749   26 33             ROL &33
A74B   26 32             ROL &32
A74D   26 31             ROL &31
A74F   CA                DEX
A750   D0 BA             BNE .L487
A752   A2 07             LDX #&07
A754   B0 18      .L491  BCS .L493
A756   A5 31             LDA &31
A758   C5 3E             CMP &3E
A75A   D0 10             BNE .L492
A75C   A5 32             LDA &32
A75E   C5 3F             CMP &3F
A760   D0 0A             BNE .L492
A762   A5 33             LDA &33
A764   C5 40             CMP &40
A766   D0 04             BNE .L492
A768   A5 34             LDA &34
A76A   C5 41             CMP &41
A76C   90 19      .L492  BCC .L494
A76E   A5 34      .L493  LDA &34
A770   E5 41             SBC &41
A772   85 34             STA &34
A774   A5 33             LDA &33
A776   E5 40             SBC &40
A778   85 33             STA &33
A77A   A5 32             LDA &32
A77C   E5 3F             SBC &3F
A77E   85 32             STA &32
A780   A5 31             LDA &31
A782   E5 3E             SBC &3E
A784   85 31             STA &31
A786   38                SEC
A787   26 35      .L494  ROL &35
A789   06 34             ASL &34
A78B   26 33             ROL &33
A78D   26 32             ROL &32
A78F   26 31             ROL &31
A791   CA                DEX
A792   D0 C0             BNE .L491
A794   06 35             ASL &35
A796   A5 46             LDA &46
A798   85 34             STA &34
A79A   A5 45             LDA &45
A79C   85 33             STA &33
A79E   A5 44             LDA &44
A7A0   85 32             STA &32
A7A2   A5 43             LDA &43
A7A4   85 31             STA &31
A7A6   4C 59 A6          JMP .L472
A7A9   00                BRK
A7AA   15 2D             ORA &2D,X
A7AC   76 65             ROR &65,X          "ve"
A7AE   20 72 6F          JSR &6F72          " ro"
A7B1   6F                                   "o"
A7B2   74                                   "t"
A7B3   00                BRK
A7B4   20 FA 92          JSR .L182
A7B7   20 DA A1          JSR .L394
A7BA   F0 2A             BEQ &A7E6
A7BC   30 EB             BMI &A7A9
A7BE   20 85 A3          JSR .L423
A7C1   A5 30             LDA &30
A7C3   4A                LSR A              "J"
A7C4   69 40             ADC #&40           "i@"
A7C6   85 30             STA &30
A7C8   A9 05             LDA #&05
A7CA   85 4A             STA &4A
A7CC   20 ED A7          JSR .L496
A7CF   20 8D A3          JSR &A38D
A7D2   A9 6C             LDA #&6C
A7D4   85 4B             STA &4B
A7D6   20 AD A6          JSR .L481
A7D9   A9 71             LDA #&71
A7DB   85 4B             STA &4B
A7DD   20 00 A5          JSR .L448
A7E0   C6 30             DEC &30
A7E2   C6 4A             DEC &4A
A7E4   D0 E9             BNE &A7CF
A7E6   A9 FF             LDA #&FF
A7E8   60                RTS                "`"
A7E9   A9 7B      .L495  LDA #&7B
A7EB   D0 0A             BNE .L499
A7ED   A9 71      .L496  LDA #&71
A7EF   D0 06             BNE .L499
A7F1   A9 76      .L497  LDA #&76
A7F3   D0 02             BNE .L499
A7F5   A9 6C      .L498  LDA #&6C
A7F7   85 4B      .L499  STA &4B
A7F9   A9 04             LDA #&04
A7FB   85 4C             STA &4C
A7FD   60                RTS
A7FE   20 FA 92          JSR .L182
A801   20 DA A1   .L500  JSR .L394
A804   F0 02             BEQ .L501
A806   10 0C             BPL .L502
A808   00         .L501  BRK
A809   16 4C             ASL &4C,X
A80B   6F                                   "o"
A80C   67                                   "g"
A80D   20 72 61          JSR &6172          " ra"
A810   6E 67 65          ROR &6567          "nge"
A813   00                BRK
A814   20 53 A4   .L502  JSR .L433
A817   A0 80             LDY #&80
A819   84 3B             STY &3B
A81B   84 3E             STY &3E
A81D   C8                INY
A81E   84 3D             STY &3D
A820   A6 30             LDX &30
A822   F0 06             BEQ .L503
A824   A5 31             LDA &31
A826   C9 B5             CMP #&B5
A828   90 02             BCC .L504
A82A   E8         .L503  INX
A82B   88                DEY
A82C   8A         .L504  TXA
A82D   48                PHA
A82E   84 30             STY &30
A830   20 05 A5          JSR .L449
A833   A9 7B             LDA #&7B
A835   20 87 A3          JSR .L424
A838   A9 73             LDA #&73
A83A   A0 A8             LDY #&A8
A83C   20 97 A8          JSR .L505
A83F   20 E9 A7          JSR .L495
A842   20 56 A6          JSR .L471
A845   20 56 A6          JSR .L471
A848   20 00 A5          JSR .L448
A84B   20 85 A3          JSR .L423
A84E   68                PLA
A84F   38                SEC
A850   E9 81             SBC #&81
A852   20 ED A2          JSR .L413
A855   A9 6E             LDA #&6E
A857   85 4B             STA &4B
A859   A9 A8             LDA #&A8
A85B   85 4C             STA &4C
A85D   20 56 A6          JSR .L471
A860   20 F5 A7          JSR .L498
A863   20 00 A5          JSR .L448
A866   A9 FF             LDA #&FF
A868   60                RTS
A869   7F
A86A   5E 5B D8          LSR &D85B,X
A86D   AA                TAX
A86E   80
A86F   31 72             AND (&72),Y        "1r"
A871   17
A872   F8                SED
A873   06 7A             ASL &7A
A875   12
A876   38                SEC                "8"
A877   A5 0B             LDA &0B
A879   88                DEY
A87A   79 0E 9F          ADC &9F0E,Y
A87D   F3
A87E   7C                                   "|"
A87F   2A                ROL A              "*"
A880   AC 3F B5          LDY &B53F
A883   86 34             STX &34
A885   01 A2             ORA (&A2,X)
A887   7A                                   "z"
A888   7F
A889   63                                   "c"
A88A   8E 37 EC          STX &EC37
A88D   82
A88E   3F                                   "?"
A88F   FF
A890   FF
A891   C1 7F             CMP (&7F,X)
A893   FF
A894   FF
A895   FF
A896   FF
A897   85 4D      .L505  STA &4D
A899   84 4E             STY &4E
A89B   20 85 A3          JSR .L423
A89E   A0 00             LDY #&00
A8A0   B1 4D             LDA (&4D),Y
A8A2   85 48             STA &48
A8A4   E6 4D             INC &4D
A8A6   D0 02             BNE .L506
A8A8   E6 4E             INC &4E
A8AA   A5 4D      .L506  LDA &4D
A8AC   85 4B             STA &4B
A8AE   A5 4E             LDA &4E
A8B0   85 4C             STA &4C
A8B2   20 B5 A3          JSR .L425
A8B5   20 F5 A7   .L507  JSR .L498
A8B8   20 AD A6          JSR .L481
A8BB   18                CLC
A8BC   A5 4D             LDA &4D
A8BE   69 05             ADC #&05
A8C0   85 4D             STA &4D
A8C2   85 4B             STA &4B
A8C4   A5 4E             LDA &4E
A8C6   69 00             ADC #&00
A8C8   85 4E             STA &4E
A8CA   85 4C             STA &4C
A8CC   20 00 A5          JSR .L448
A8CF   C6 48             DEC &48
A8D1   D0 E2             BNE .L507
A8D3   60                RTS
A8D4   20 DA A8          JSR &A8DA
A8D7   4C 27 A9          JMP &A927
A8DA   20 FA 92          JSR .L182
A8DD   20 DA A1          JSR .L394
A8E0   10 08             BPL &A8EA
A8E2   46 2E             LSR &2E            "F."
A8E4   20 EA A8          JSR &A8EA
A8E7   4C 16 A9          JMP &A916
A8EA   20 81 A3          JSR .L422
A8ED   20 B1 A9          JSR &A9B1
A8F0   20 DA A1          JSR .L394
A8F3   F0 09             BEQ &A8FE
A8F5   20 F1 A7          JSR .L497
A8F8   20 AD A6          JSR .L481
A8FB   4C 0A A9          JMP &A90A
A8FE   20 55 AA          JSR &AA55
A901   20 B5 A3          JSR .L425
A904   A9 FF             LDA #&FF
A906   60                RTS                "`"
A907   20 FA 92          JSR .L182
A90A   20 DA A1          JSR .L394
A90D   F0 F5             BEQ &A904
A90F   10 0A             BPL &A91B
A911   46 2E             LSR &2E            "F."
A913   20 1B A9          JSR &A91B
A916   A9 80             LDA #&80
A918   85 2E             STA &2E
A91A   60                RTS                "`"
A91B   A5 30             LDA &30
A91D   C9 81             CMP #&81
A91F   90 15             BCC &A936
A921   20 A5 A6          JSR .L480
A924   20 36 A9          JSR &A936
A927   20 48 AA          JSR &AA48
A92A   20 00 A5          JSR .L448
A92D   20 4C AA          JSR &AA4C
A930   20 00 A5          JSR .L448
A933   4C 7E AD          JMP .L520
A936   A5 30             LDA &30
A938   C9 73             CMP #&73
A93A   90 C8             BCC &A904
A93C   20 81 A3          JSR .L422
A93F   20 53 A4          JSR .L433
A942   A9 80             LDA #&80
A944   85 3D             STA &3D
A946   85 3E             STA &3E
A948   85 3B             STA &3B
A94A   20 05 A5          JSR .L449
A94D   A9 5A             LDA #&5A
A94F   A0 A9             LDY #&A9
A951   20 97 A8          JSR .L505
A954   20 D1 AA          JSR .L512
A957   A9 FF             LDA #&FF
A959   60                RTS                "`"
A95A   09 85             ORA #&85
A95C   A3
A95D   59 E8 67          EOR &67E8,Y
A960   80
A961   1C
A962   9D 07 36          STA &3607,X
A965   80
A966   57                                   "W"
A967   BB
A968   78                SEI                "x"
A969   DF
A96A   80
A96B   CA                DEX
A96C   9A                TXS
A96D   0E 83 84          ASL &8483
A970   8C BB CA          STY &CABB
A973   6E 81 95          ROR &9581
A976   96 06             STX &06,Y
A978   DE 81 0A          DEC &0A81,X
A97B   C7
A97C   6C 52 7F          JMP (&7F52)
A97F   7D AD 90          ADC &90AD,X
A982   A1 82             LDA (&82,X)
A984   FB
A985   62                                   "b"
A986   57                                   "W"
A987   2F                                   "/"
A988   80
A989   6D 63 38          ADC &3863          "mc8"
A98C   2C 20 FA          BIT &FA20
A98F   92
A990   20 D3 A9          JSR &A9D3
A993   E6 4A             INC &4A
A995   4C 9E A9          JMP &A99E
A998   20 FA 92          JSR .L182
A99B   20 D3 A9          JSR &A9D3
A99E   A5 4A             LDA &4A
A9A0   29 02             AND #&02
A9A2   F0 06             BEQ &A9AA
A9A4   20 AA A9          JSR &A9AA
A9A7   4C 7E AD          JMP .L520
A9AA   46 4A             LSR &4A            "FJ"
A9AC   90 15             BCC &A9C3
A9AE   20 C3 A9          JSR &A9C3
A9B1   20 85 A3          JSR .L423
A9B4   20 56 A6          JSR .L471
A9B7   20 8D A3          JSR &A38D
A9BA   20 99 A6          JSR .L479
A9BD   20 D0 A4          JSR .L443
A9C0   4C B7 A7          JMP &A7B7
A9C3   20 81 A3          JSR .L422
A9C6   20 56 A6          JSR .L471
A9C9   A9 72             LDA #&72
A9CB   A0 AA             LDY #&AA
A9CD   20 97 A8          JSR .L505
A9D0   4C D1 AA          JMP .L512
A9D3   A5 30             LDA &30
A9D5   C9 98             CMP #&98
A9D7   B0 5F             BCS &AA38
A9D9   20 85 A3          JSR .L423
A9DC   20 55 AA          JSR &AA55
A9DF   20 4E A3          JSR .L419
A9E2   A5 2E             LDA &2E
A9E4   85 3B             STA &3B
A9E6   C6 3D             DEC &3D
A9E8   20 05 A5          JSR .L449
A9EB   20 E7 A6          JSR .L483
A9EE   20 FE A3          JSR .L429
A9F1   A5 34             LDA &34
A9F3   85 4A             STA &4A
A9F5   05 33             ORA &33
A9F7   05 32             ORA &32
A9F9   05 31             ORA &31
A9FB   F0 38             BEQ &AA35
A9FD   A9 A0             LDA #&A0
A9FF   85 30             STA &30
AA01   A0 00             LDY #&00
AA03   84 35             STY &35
AA05   A5 31             LDA &31
AA07   85 2E             STA &2E
AA09   10 03             BPL &AA0E
AA0B   20 6C A4          JSR .L436
AA0E   20 03 A3          JSR .L415
AA11   20 7D A3          JSR .L421
AA14   20 48 AA          JSR &AA48
AA17   20 56 A6          JSR .L471
AA1A   20 F5 A7          JSR .L498
AA1D   20 00 A5          JSR .L448
AA20   20 8D A3          JSR &A38D
AA23   20 ED A7          JSR .L496
AA26   20 B5 A3          JSR .L425
AA29   20 4C AA          JSR &AA4C
AA2C   20 56 A6          JSR .L471
AA2F   20 F5 A7          JSR .L498
AA32   4C 00 A5          JMP .L448
AA35   4C B2 A3          JMP &A3B2
AA38   00                BRK
AA39   17
AA3A   41 63             EOR (&63,X)        "Ac"
AA3C   63                                   "c"
AA3D   75 72             ADC &72,X          "ur"
AA3F   61 63             ADC (&63,X)        "ac"
AA41   79 20 6C          ADC &6C20,Y        "y l"
AA44   6F                                   "o"
AA45   73                                   "s"
AA46   74                                   "t"
AA47   00                BRK
AA48   A9 59             LDA #&59
AA4A   D0 02             BNE &AA4E
AA4C   A9 5E             LDA #&5E
AA4E   85 4B             STA &4B
AA50   A9 AA             LDA #&AA
AA52   85 4C             STA &4C
AA54   60                RTS                "`"
AA55   A9 63             LDA #&63
AA57   D0 F5             BNE &AA4E
AA59   81 C9             STA (&C9,X)
AA5B   10 00             BPL &AA5D
AA5D   00                BRK
AA5E   6F                                   "o"
AA5F   15 77             ORA &77,X
AA61   7A                                   "z"
AA62   61 81             ADC (&81,X)
AA64   49 0F             EOR #&0F
AA66   DA
AA67   A2 7B             LDX #&7B
AA69   0E FA 35          ASL &35FA
AA6C   12
AA6D   86 65             STX &65
AA6F   2E E0 D3          ROL &D3E0
AA72   05 84             ORA &84
AA74   8A                TXA
AA75   EA                NOP
AA76   0C
AA77   1B
AA78   84 1A             STY &1A
AA7A   BE BB 2B          LDX &2BBB,Y
AA7D   84 37             STY &37
AA7F   45 55             EOR &55            "EU"
AA81   AB
AA82   82
AA83   D5 55             CMP &55,X
AA85   57                                   "W"
AA86   7C                                   "|"
AA87   83
AA88   C0 00             CPY #&00
AA8A   00                BRK
AA8B   05 81             ORA &81
AA8D   00                BRK
AA8E   00                BRK
AA8F   00                BRK
AA90   00                BRK
AA91   20 FA 92          JSR .L182
AA94   A5 30      .L508  LDA &30
AA96   C9 87             CMP #&87
AA98   90 1E             BCC .L511
AA9A   D0 06             BNE .L509
AA9C   A4 31             LDY &31
AA9E   C0 B3             CPY #&B3
AAA0   90 16             BCC .L511
AAA2   A5 2E      .L509  LDA &2E
AAA4   10 06             BPL .L510
AAA6   20 86 A6          JSR .L477
AAA9   A9 FF             LDA #&FF
AAAB   60                RTS
AAAC   00         .L510  BRK
AAAD   18                CLC
AAAE   45 78             EOR &78            "Ex"
AAB0   70 20             BVS &AAD2          "p "
AAB2   72                                   "r"
AAB3   61 6E             ADC (&6E,X)        "an"
AAB5   67                                   "g"
AAB6   65 00             ADC &00
AAB8   20 86 A4   .L511  JSR .L438
AABB   20 DA AA          JSR .L513
AABE   20 81 A3          JSR .L422
AAC1   A9 E4             LDA #&E4
AAC3   85 4B             STA &4B
AAC5   A9 AA             LDA #&AA
AAC7   85 4C             STA &4C
AAC9   20 B5 A3          JSR .L425
AACC   A5 4A             LDA &4A
AACE   20 12 AB          JSR .L514
AAD1   20 F1 A7   .L512  JSR .L497
AAD4   20 56 A6          JSR .L471
AAD7   A9 FF             LDA #&FF
AAD9   60                RTS
AADA   A9 E9      .L513  LDA #&E9
AADC   A0 AA             LDY #&AA
AADE   20 97 A8          JSR .L505
AAE1   A9 FF             LDA #&FF
AAE3   60                RTS
AAE4   82
AAE5   2D F8 54          AND &54F8
AAE8   58                CLI                "X"
AAE9   07
AAEA   83
AAEB   E0 20             CPX #&20
AAED   86 5B             STX &5B
AAEF   82
AAF0   80
AAF1   53                                   "S"
AAF2   93
AAF3   B8                CLV
AAF4   83
AAF5   20 00 06          JSR &0600
AAF8   A1 82             LDA (&82,X)
AAFA   00                BRK
AAFB   00                BRK
AAFC   21 63             AND (&63,X)        "!c"
AAFE   82
AAFF   C0 00             CPY #&00
AB01   00                BRK
AB02   02
AB03   82
AB04   80
AB05   00                BRK
AB06   00                BRK
AB07   0C
AB08   81 00             STA (&00,X)
AB0A   00                BRK
AB0B   00                BRK
AB0C   00                BRK
AB0D   81 00             STA (&00,X)
AB0F   00                BRK
AB10   00                BRK
AB11   00                BRK
AB12   AA         .L514  TAX
AB13   10 09             BPL .L515
AB15   CA                DEX
AB16   8A                TXA
AB17   49 FF             EOR #&FF
AB19   48                PHA
AB1A   20 A5 A6          JSR .L480
AB1D   68                PLA
AB1E   48         .L515  PHA
AB1F   20 85 A3          JSR .L423
AB22   20 99 A6          JSR .L479
AB25   68         .L516  PLA
AB26   F0 0A             BEQ .L517
AB28   38                SEC
AB29   E9 01             SBC #&01
AB2B   48                PHA
AB2C   20 56 A6          JSR .L471
AB2F   4C 25 AB          JMP .L516
AB32   60         .L517  RTS
AB33   20 E3 92          JSR .L177
AB36   A6 2A             LDX &2A
AB38   A9 80             LDA #&80
AB3A   20 F4 FF          JSR .L642
AB3D   8A                TXA
AB3E   4C EA AE          JMP .L549
AB41   20 DD 92          JSR .L176
AB44   20 94 BD          JSR .L608
AB47   20 AE 8A          JSR &8AAE
AB4A   20 56 AE          JSR .L539
AB4D   20 F0 92          JSR .L179
AB50   A5 2A             LDA &2A
AB52   48                PHA                "H"
AB53   A5 2B             LDA &2B
AB55   48                PHA                "H"
AB56   20 EA BD          JSR .L615
AB59   68                PLA                "h"
AB5A   85 2D             STA &2D
AB5C   68                PLA                "h"
AB5D   85 2C             STA &2C
AB5F   A2 2A             LDX #&2A
AB61   A9 09             LDA #&09
AB63   20 F1 FF          JSR .L641
AB66   A5 2E             LDA &2E
AB68   30 33             BMI &AB9D          "03"
AB6A   4C D8 AE          JMP .L548
AB6D   A9 86             LDA #&86
AB6F   20 F4 FF          JSR .L642
AB72   8A                TXA
AB73   4C D8 AE          JMP .L548
AB76   A9 86             LDA #&86
AB78   20 F4 FF          JSR .L642
AB7B   98                TYA
AB7C   4C D8 AE          JMP .L548
AB7F   20 DA A1          JSR .L394
AB82   F0 1E             BEQ &ABA2
AB84   10 1A             BPL &ABA0
AB86   30 15             BMI &AB9D
AB88   20 EC AD          JSR .L530
AB8B   F0 59             BEQ &ABE6
AB8D   30 F0             BMI &AB7F
AB8F   A5 2D             LDA &2D
AB91   05 2C             ORA &2C
AB93   05 2B             ORA &2B
AB95   05 2A             ORA &2A
AB97   F0 0C             BEQ &ABA5
AB99   A5 2D             LDA &2D
AB9B   10 03             BPL &ABA0
AB9D   4C C4 AC          JMP &ACC4
ABA0   A9 01             LDA #&01
ABA2   4C D8 AE          JMP .L548
ABA5   A9 40             LDA #&40
ABA7   60                RTS                "`"
ABA8   20 FE A7          JSR &A7FE
ABAB   A0 69             LDY #&69
ABAD   A9 A8             LDA #&A8
ABAF   D0 07             BNE &ABB8
ABB1   20 FA 92          JSR .L182
ABB4   A0 68             LDY #&68
ABB6   A9 AA             LDA #&AA
ABB8   84 4B             STY &4B
ABBA   85 4C             STA &4C
ABBC   20 56 A6          JSR .L471
ABBF   A9 FF             LDA #&FF
ABC1   60                RTS                "`"
ABC2   20 FA 92          JSR .L182
ABC5   A0 6D             LDY #&6D
ABC7   A9 AA             LDA #&AA
ABC9   D0 ED             BNE &ABB8
ABCB   20 FE A8          JSR &A8FE
ABCE   E6 30             INC &30
ABD0   A8                TAY
ABD1   60                RTS                "`"
ABD2   20 E3 92          JSR .L177
ABD5   20 1E 8F          JSR &8F1E
ABD8   85 2A             STA &2A
ABDA   86 2B             STX &2B
ABDC   84 2C             STY &2C
ABDE   08                PHP
ABDF   68                PLA                "h"
ABE0   85 2D             STA &2D
ABE2   D8                CLD
ABE3   A9 40             LDA #&40
ABE5   60                RTS                "`"
ABE6   4C 0E 8C          JMP .L159
ABE9   20 EC AD          JSR .L530
ABEC   D0 F8             BNE &ABE6
ABEE   E6 36             INC &36
ABF0   A4 36             LDY &36
ABF2   A9 0D             LDA #&0D
ABF4   99 FF 05          STA &05FF,Y
ABF7   20 B2 BD          JSR .L609
ABFA   A5 19             LDA &19
ABFC   48                PHA                "H"
ABFD   A5 1A             LDA &1A
ABFF   48                PHA                "H"
AC00   A5 1B             LDA &1B
AC02   48                PHA                "H"
AC03   A4 04             LDY &04
AC05   A6 05             LDX &05
AC07   C8                INY
AC08   84 19             STY &19
AC0A   84 37             STY &37
AC0C   D0 01             BNE &AC0F
AC0E   E8                INX
AC0F   86 1A             STX &1A
AC11   86 38             STX &38
AC13   A0 FF             LDY #&FF
AC15   84 3B             STY &3B
AC17   C8                INY
AC18   84 1B             STY &1B
AC1A   20 55 89          JSR &8955
AC1D   20 29 9B          JSR .L298
AC20   20 DC BD          JSR .L614
AC23   68                PLA                "h"
AC24   85 1B             STA &1B
AC26   68                PLA                "h"
AC27   85 1A             STA &1A
AC29   68                PLA                "h"
AC2A   85 19             STA &19
AC2C   A5 27             LDA &27
AC2E   60                RTS                "`"
AC2F   20 EC AD          JSR .L530
AC32   D0 67             BNE &AC9B
AC34   A4 36             LDY &36
AC36   A9 00             LDA #&00
AC38   99 00 06          STA &0600,Y
AC3B   A5 19             LDA &19
AC3D   48                PHA                "H"
AC3E   A5 1A             LDA &1A
AC40   48                PHA                "H"
AC41   A5 1B             LDA &1B
AC43   48                PHA                "H"
AC44   A9 00             LDA #&00
AC46   85 1B             STA &1B
AC48   A9 00             LDA #&00
AC4A   85 19             STA &19
AC4C   A9 06             LDA #&06
AC4E   85 1A             STA &1A
AC50   20 8C 8A          JSR .L134
AC53   C9 2D             CMP #&2D
AC55   F0 0F             BEQ &AC66
AC57   C9 2B             CMP #&2B
AC59   D0 03             BNE &AC5E
AC5B   20 8C 8A          JSR .L134
AC5E   C6 1B             DEC &1B
AC60   20 7B A0          JSR .L372
AC63   4C 73 AC          JMP &AC73
AC66   20 8C 8A          JSR .L134
AC69   C6 1B             DEC &1B
AC6B   20 7B A0          JSR .L372
AC6E   90 03             BCC &AC73
AC70   20 8F AD          JSR &AD8F
AC73   85 27             STA &27
AC75   4C 23 AC          JMP &AC23
AC78   20 EC AD          JSR .L530
AC7B   F0 1E             BEQ &AC9B
AC7D   10 1B             BPL &AC9A
AC7F   A5 2E             LDA &2E
AC81   08                PHP
AC82   20 FE A3          JSR .L429
AC85   28                PLP                "("
AC86   10 0D             BPL &AC95
AC88   A5 3E             LDA &3E
AC8A   05 3F             ORA &3F
AC8C   05 40             ORA &40
AC8E   05 41             ORA &41
AC90   F0 03             BEQ &AC95
AC92   20 C7 A4          JSR &A4C7
AC95   20 E7 A3          JSR &A3E7
AC98   A9 40             LDA #&40
AC9A   60                RTS                "`"
AC9B   4C 0E 8C          JMP .L159
AC9E   20 EC AD          JSR .L530
ACA1   D0 F8             BNE &AC9B
ACA3   A5 36             LDA &36
ACA5   F0 1D             BEQ &ACC4
ACA7   AD 00 06          LDA &0600
ACAA   4C D8 AE          JMP .L548
ACAD   20 AD AF          JSR &AFAD
ACB0   C0 00             CPY #&00
ACB2   D0 10             BNE &ACC4
ACB4   8A                TXA
ACB5   4C EA AE          JMP .L549
ACB8   20 B5 BF          JSR &BFB5
ACBB   AA                TAX
ACBC   A9 7F             LDA #&7F
ACBE   20 F4 FF          JSR .L642
ACC1   8A                TXA
ACC2   F0 E6             BEQ &ACAA
ACC4   A9 FF             LDA #&FF
ACC6   85 2A             STA &2A
ACC8   85 2B             STA &2B
ACCA   85 2C             STA &2C
ACCC   85 2D             STA &2D
ACCE   A9 40             LDA #&40
ACD0   60                RTS                "`"
ACD1   20 E3 92          JSR .L177
ACD4   A2 03             LDX #&03
ACD6   B5 2A             LDA &2A,X
ACD8   49 FF             EOR #&FF
ACDA   95 2A             STA &2A,X
ACDC   CA                DEX
ACDD   10 F7             BPL &ACD6
ACDF   A9 40             LDA #&40
ACE1   60                RTS                "`"
ACE2   20 29 9B          JSR .L298
ACE5   D0 B4             BNE &AC9B
ACE7   E0 2C             CPX #&2C
ACE9   D0 18             BNE &AD03
ACEB   E6 1B             INC &1B
ACED   20 B2 BD          JSR .L609
ACF0   20 29 9B          JSR .L298
ACF3   D0 A6             BNE &AC9B
ACF5   A9 01             LDA #&01
ACF7   85 2A             STA &2A
ACF9   E6 1B             INC &1B
ACFB   E0 29             CPX #&29
ACFD   F0 13             BEQ &AD12
ACFF   E0 2C             CPX #&2C
AD01   F0 03             BEQ &AD06
AD03   4C A2 8A          JMP &8AA2
AD06   20 B2 BD          JSR .L609
AD09   20 56 AE          JSR .L539
AD0C   20 F0 92          JSR .L179
AD0F   20 CB BD          JSR .L612
AD12   A0 00             LDY #&00
AD14   A6 2A             LDX &2A
AD16   D0 02             BNE &AD1A
AD18   A2 01             LDX #&01
AD1A   86 2A             STX &2A
AD1C   8A                TXA
AD1D   CA                DEX
AD1E   86 2D             STX &2D
AD20   18                CLC
AD21   65 04             ADC &04
AD23   85 37             STA &37
AD25   98                TYA
AD26   65 05             ADC &05
AD28   85 38             STA &38
AD2A   B1 04             LDA (&04),Y
AD2C   38                SEC                "8"
AD2D   E5 2D             SBC &2D
AD2F   90 21             BCC &AD52
AD31   E5 36             SBC &36
AD33   90 1D             BCC &AD52
AD35   69 00             ADC #&00
AD37   85 2B             STA &2B
AD39   20 DC BD          JSR .L614
AD3C   A0 00             LDY #&00
AD3E   A6 36             LDX &36
AD40   F0 0B             BEQ &AD4D
AD42   B1 37             LDA (&37),Y
AD44   D9 00 06          CMP &0600,Y
AD47   D0 10             BNE &AD59
AD49   C8                INY
AD4A   CA                DEX
AD4B   D0 F5             BNE &AD42
AD4D   A5 2A             LDA &2A
AD4F   4C D8 AE          JMP .L548
AD52   20 DC BD          JSR .L614
AD55   A9 00             LDA #&00
AD57   F0 F6             BEQ &AD4F
AD59   E6 2A             INC &2A
AD5B   C6 2B             DEC &2B
AD5D   F0 F6             BEQ &AD55
AD5F   E6 37             INC &37
AD61   D0 D9             BNE &AD3C
AD63   E6 38             INC &38
AD65   D0 D5             BNE &AD3C
AD67   4C 0E 8C   .L518  JMP .L159
AD6A   20 EC AD          JSR .L530
AD6D   F0 F8             BEQ .L518
AD6F   30 06             BMI &AD77
AD71   24 2D      .L519  BIT &2D
AD73   30 1E             BMI .L524
AD75   10 33             BPL .L525
AD77   20 DA A1          JSR .L394
AD7A   10 0D             BPL .L522
AD7C   30 05             BMI .L521
AD7E   20 DA A1   .L520  JSR .L394
AD81   F0 06             BEQ .L522
AD83   A5 2E      .L521  LDA &2E
AD85   49 80             EOR #&80
AD87   85 2E             STA &2E
AD89   A9 FF      .L522  LDA #&FF
AD8B   60                RTS
AD8C   20 02 AE   .L523  JSR .L531
AD8F   F0 D6             BEQ .L518
AD91   30 EB             BMI .L520
AD93   38         .L524  SEC
AD94   A9 00             LDA #&00
AD96   A8                TAY
AD97   E5 2A             SBC &2A
AD99   85 2A             STA &2A
AD9B   98                TYA
AD9C   E5 2B             SBC &2B
AD9E   85 2B             STA &2B
ADA0   98                TYA
ADA1   E5 2C             SBC &2C
ADA3   85 2C             STA &2C
ADA5   98                TYA
ADA6   E5 2D             SBC &2D
ADA8   85 2D             STA &2D
ADAA   A9 40      .L525  LDA #&40
ADAC   60                RTS
ADAD   20 8C 8A          JSR .L134
ADB0   C9 22             CMP #&22
ADB2   F0 15             BEQ .L526
ADB4   A2 00             LDX #&00
ADB6   B1 19             LDA (&19),Y
ADB8   9D 00 06          STA &0600,X
ADBB   C8                INY
ADBC   E8                INX
ADBD   C9 0D             CMP #&0D
ADBF   F0 04             BEQ &ADC5
ADC1   C9 2C             CMP #&2C
ADC3   D0 F1             BNE &ADB6
ADC5   88                DEY
ADC6   4C E1 AD          JMP &ADE1
ADC9   A2 00      .L526  LDX #&00
ADCB   C8         .L527  INY
ADCC   B1 19      .L528  LDA (&19),Y
ADCE   C9 0D             CMP #&0D
ADD0   F0 17             BEQ .L529
ADD2   C8                INY
ADD3   9D 00 06          STA &0600,X
ADD6   E8                INX
ADD7   C9 22             CMP #&22
ADD9   D0 F1             BNE .L528
ADDB   B1 19             LDA (&19),Y
ADDD   C9 22             CMP #&22
ADDF   F0 EA             BEQ .L527
ADE1   CA                DEX
ADE2   86 36             STX &36
ADE4   84 1B             STY &1B
ADE6   A9 00             LDA #&00
ADE8   60                RTS
ADE9   4C 98 8E   .L529  JMP .L170
ADEC   A4 1B      .L530  LDY &1B
ADEE   E6 1B             INC &1B
ADF0   B1 19             LDA (&19),Y
ADF2   C9 20             CMP #&20
ADF4   F0 F6             BEQ .L530
ADF6   C9 2D             CMP #&2D
ADF8   F0 92             BEQ .L523
ADFA   C9 22             CMP #&22
ADFC   F0 CB             BEQ .L526
ADFE   C9 2B             CMP #&2B
AE00   D0 03             BNE .L532
AE02   20 8C 8A   .L531  JSR .L134
AE05   C9 8E      .L532  CMP #&8E
AE07   90 07             BCC .L533
AE09   C9 C6             CMP #&C6
AE0B   B0 36             BCS .L538
AE0D   4C B1 8B          JMP .L153
AE10   C9 3F      .L533  CMP #&3F
AE12   B0 0C             BCS .L534
AE14   C9 2E             CMP #&2E
AE16   B0 12             BCS .L535
AE18   C9 26             CMP #&26
AE1A   F0 51             BEQ .L541
AE1C   C9 28             CMP #&28
AE1E   F0 36             BEQ .L539
AE20   C6 1B      .L534  DEC &1B
AE22   20 DD 95          JSR .L214
AE25   F0 09             BEQ .L536
AE27   4C 2C B3          JMP .L552
AE2A   20 7B A0   .L535  JSR .L372
AE2D   90 14             BCC .L538
AE2F   60                RTS
AE30   A5 28      .L536  LDA &28
AE32   29 02             AND #&02
AE34   D0 0D             BNE .L538
AE36   B0 0B             BCS .L538
AE38   86 1B             STX &1B
AE3A   AD 40 04   .L537  LDA &0440
AE3D   AC 41 04          LDY &0441
AE40   4C EA AE          JMP .L549
AE43   00         .L538  BRK
AE44   1A
AE45   4E 6F 20          LSR &206F          "No "
AE48   73                                   "s"
AE49   75 63             ADC &63,X          "uc"
AE4B   68                PLA                "h"
AE4C   20 76 61          JSR &6176          " va"
AE4F   72                                   "r"
AE50   69 61             ADC #&61           "ia"
AE52   62                                   "b"
AE53   6C 65 00          JMP (&0065)
AE56   20 29 9B   .L539  JSR .L298
AE59   E6 1B             INC &1B
AE5B   E0 29             CPX #&29
AE5D   D0 02             BNE .L540
AE5F   A8                TAY
AE60   60                RTS
AE61   00         .L540  BRK
AE62   1B
AE63   4D 69 73          EOR &7369          "Mis"
AE66   73                                   "s"
AE67   69 6E             ADC #&6E           "in"
AE69   67                                   "g"
AE6A   20 29 00          JSR &0029
AE6D   A2 00      .L541  LDX #&00
AE6F   86 2A             STX &2A
AE71   86 2B             STX &2B
AE73   86 2C             STX &2C
AE75   86 2D             STX &2D
AE77   A4 1B             LDY &1B
AE79   B1 19      .L542  LDA (&19),Y
AE7B   C9 30             CMP #&30
AE7D   90 23             BCC .L545
AE7F   C9 3A             CMP #&3A
AE81   90 0A             BCC .L543
AE83   E9 37             SBC #&37
AE85   C9 0A             CMP #&0A
AE87   90 19             BCC .L545
AE89   C9 10             CMP #&10
AE8B   B0 15             BCS .L545
AE8D   0A         .L543  ASL A
AE8E   0A                ASL A
AE8F   0A                ASL A
AE90   0A                ASL A
AE91   A2 03             LDX #&03
AE93   0A         .L544  ASL A
AE94   26 2A             ROL &2A
AE96   26 2B             ROL &2B
AE98   26 2C             ROL &2C
AE9A   26 2D             ROL &2D
AE9C   CA                DEX
AE9D   10 F4             BPL .L544
AE9F   C8                INY
AEA0   D0 D7             BNE .L542
AEA2   8A         .L545  TXA
AEA3   10 05             BPL .L546
AEA5   84 1B             STY &1B
AEA7   A9 40             LDA #&40
AEA9   60                RTS
AEAA   00         .L546  BRK
AEAB   1C
AEAC   42                                   "B"
AEAD   61 64             ADC (&64,X)        "ad"
AEAF   20 48 45          JSR &4548          " HE"
AEB2   58                CLI                "X"
AEB3   00                BRK
AEB4   A2 2A             LDX #&2A
AEB6   A0 00             LDY #&00
AEB8   A9 01             LDA #&01
AEBA   20 F1 FF          JSR .L641
AEBD   A9 40             LDA #&40
AEBF   60                RTS                "`"
AEC0   A9 00             LDA #&00
AEC2   A4 18             LDY &18
AEC4   4C EA AE          JMP .L549
AEC7   4C 43 AE   .L547  JMP .L538
AECA   A9 00             LDA #&00
AECC   F0 0A             BEQ .L548
AECE   4C 0E 8C          JMP .L159
AED1   20 EC AD          JSR .L530
AED4   D0 F8             BNE &AECE
AED6   A5 36             LDA &36
AED8   A0 00      .L548  LDY #&00
AEDA   F0 0E             BEQ .L549
AEDC   A4 1B             LDY &1B
AEDE   B1 19             LDA (&19),Y
AEE0   C9 50             CMP #&50
AEE2   D0 E3             BNE .L547
AEE4   E6 1B             INC &1B
AEE6   A5 12             LDA &12
AEE8   A4 13             LDY &13
AEEA   85 2A      .L549  STA &2A
AEEC   84 2B             STY &2B
AEEE   A9 00             LDA #&00
AEF0   85 2C             STA &2C
AEF2   85 2D             STA &2D
AEF4   A9 40             LDA #&40
AEF6   60                RTS
AEF7   A5 1E             LDA &1E
AEF9   4C D8 AE          JMP .L548
AEFC   A5 00             LDA &00
AEFE   A4 01             LDY &01
AF00   4C EA AE          JMP .L549
AF03   A5 06             LDA &06
AF05   A4 07             LDY &07
AF07   4C EA AE          JMP .L549
AF0A   E6 1B             INC &1B
AF0C   20 56 AE          JSR .L539
AF0F   20 F0 92          JSR .L179
AF12   A5 2D             LDA &2D
AF14   30 29             BMI &AF3F          "0)"
AF16   05 2C             ORA &2C
AF18   05 2B             ORA &2B
AF1A   D0 08             BNE &AF24
AF1C   A5 2A             LDA &2A
AF1E   F0 4C             BEQ &AF6C
AF20   C9 01             CMP #&01
AF22   F0 45             BEQ &AF69
AF24   20 BE A2          JSR .L409
AF27   20 51 BD          JSR .L606
AF2A   20 69 AF          JSR &AF69
AF2D   20 7E BD          JSR .L607
AF30   20 06 A6          JSR .L464
AF33   20 03 A3          JSR .L415
AF36   20 E4 A3          JSR .L427
AF39   20 22 92          JSR &9222
AF3C   A9 40             LDA #&40
AF3E   60                RTS                "`"
AF3F   A2 0D             LDX #&0D
AF41   20 44 BE          JSR .L624
AF44   A9 40             LDA #&40
AF46   85 11             STA &11
AF48   60                RTS                "`"
AF49   A4 1B             LDY &1B
AF4B   B1 19             LDA (&19),Y
AF4D   C9 28             CMP #&28
AF4F   F0 B9             BEQ &AF0A
AF51   20 87 AF          JSR &AF87
AF54   A2 0D             LDX #&0D
AF56   B5 00      .L550  LDA &00,X
AF58   85 2A             STA &2A
AF5A   B5 01             LDA &01,X
AF5C   85 2B             STA &2B
AF5E   B5 02             LDA &02,X
AF60   85 2C             STA &2C
AF62   B5 03             LDA &03,X
AF64   85 2D             STA &2D
AF66   A9 40             LDA #&40
AF68   60                RTS
AF69   20 87 AF          JSR &AF87
AF6C   A2 00             LDX #&00
AF6E   86 2E             STX &2E
AF70   86 2F             STX &2F
AF72   86 35             STX &35
AF74   A9 80             LDA #&80
AF76   85 30             STA &30
AF78   B5 0D             LDA &0D,X
AF7A   95 31             STA &31,X
AF7C   E8                INX
AF7D   E0 04             CPX #&04
AF7F   D0 F7             BNE &AF78
AF81   20 59 A6          JSR .L472
AF84   A9 FF             LDA #&FF
AF86   60                RTS                "`"
AF87   A0 20             LDY #&20
AF89   A5 0F             LDA &0F
AF8B   4A                LSR A              "J"
AF8C   4A                LSR A              "J"
AF8D   4A                LSR A              "J"
AF8E   45 11             EOR &11
AF90   6A                ROR A              "j"
AF91   26 0D             ROL &0D
AF93   26 0E             ROL &0E
AF95   26 0F             ROL &0F
AF97   26 10             ROL &10
AF99   26 11             ROL &11
AF9B   88                DEY
AF9C   D0 EB             BNE &AF89
AF9E   60                RTS                "`"
AF9F   A4 09             LDY &09
AFA1   A5 08             LDA &08
AFA3   4C EA AE          JMP .L549
AFA6   A0 00             LDY #&00
AFA8   B1 FD             LDA (&FD),Y
AFAA   4C EA AE          JMP .L549
AFAD   20 E3 92          JSR .L177
AFB0   A9 81             LDA #&81
AFB2   A6 2A             LDX &2A
AFB4   A4 2B             LDY &2B
AFB6   4C F4 FF          JMP .L642
AFB9   20 E0 FF          JSR &FFE0
AFBC   4C D8 AE          JMP .L548
AFBF   20 E0 FF          JSR &FFE0
AFC2   8D 00 06   .L551  STA &0600
AFC5   A9 01             LDA #&01
AFC7   85 36             STA &36
AFC9   A9 00             LDA #&00
AFCB   60                RTS
AFCC   20 29 9B          JSR .L298
AFCF   D0 62             BNE &B033
AFD1   E0 2C             CPX #&2C
AFD3   D0 61             BNE &B036
AFD5   E6 1B             INC &1B
AFD7   20 B2 BD          JSR .L609
AFDA   20 56 AE          JSR .L539
AFDD   20 F0 92          JSR .L179
AFE0   20 CB BD          JSR .L612
AFE3   A5 2A             LDA &2A
AFE5   C5 36             CMP &36
AFE7   B0 02             BCS &AFEB
AFE9   85 36             STA &36
AFEB   A9 00             LDA #&00
AFED   60                RTS                "`"
AFEE   20 29 9B          JSR .L298
AFF1   D0 40             BNE &B033
AFF3   E0 2C             CPX #&2C
AFF5   D0 3F             BNE &B036
AFF7   E6 1B             INC &1B
AFF9   20 B2 BD          JSR .L609
AFFC   20 56 AE          JSR .L539
AFFF   20 F0 92          JSR .L179
B002   20 CB BD          JSR .L612
B005   A5 36             LDA &36
B007   38                SEC                "8"
B008   E5 2A             SBC &2A
B00A   90 17             BCC &B023
B00C   F0 17             BEQ &B025
B00E   AA                TAX
B00F   A5 2A             LDA &2A
B011   85 36             STA &36
B013   F0 10             BEQ &B025
B015   A0 00             LDY #&00
B017   BD 00 06          LDA &0600,X
B01A   99 00 06          STA &0600,Y
B01D   E8                INX
B01E   C8                INY
B01F   C6 2A             DEC &2A
B021   D0 F4             BNE &B017
B023   A9 00             LDA #&00
B025   60                RTS                "`"
B026   20 AD AF          JSR &AFAD
B029   8A                TXA
B02A   C0 00             CPY #&00
B02C   F0 94             BEQ .L551
B02E   A9 00             LDA #&00
B030   85 36             STA &36
B032   60                RTS                "`"
B033   4C 0E 8C          JMP .L159
B036   4C A2 8A          JMP &8AA2
B039   20 29 9B          JSR .L298
B03C   D0 F5             BNE &B033
B03E   E0 2C             CPX #&2C
B040   D0 F4             BNE &B036
B042   20 B2 BD          JSR .L609
B045   E6 1B             INC &1B
B047   20 DD 92          JSR .L176
B04A   A5 2A             LDA &2A
B04C   48                PHA                "H"
B04D   A9 FF             LDA #&FF
B04F   85 2A             STA &2A
B051   E6 1B             INC &1B
B053   E0 29             CPX #&29
B055   F0 0A             BEQ &B061
B057   E0 2C             CPX #&2C
B059   D0 DB             BNE &B036
B05B   20 56 AE          JSR .L539
B05E   20 F0 92          JSR .L179
B061   20 CB BD          JSR .L612
B064   68                PLA                "h"
B065   A8                TAY
B066   18                CLC
B067   F0 06             BEQ &B06F
B069   E5 36             SBC &36
B06B   B0 C1             BCS &B02E
B06D   88                DEY
B06E   98                TYA
B06F   85 2C             STA &2C
B071   AA                TAX
B072   A0 00             LDY #&00
B074   A5 36             LDA &36
B076   38                SEC                "8"
B077   E5 2C             SBC &2C
B079   C5 2A             CMP &2A
B07B   B0 02             BCS &B07F
B07D   85 2A             STA &2A
B07F   A5 2A             LDA &2A
B081   F0 AB             BEQ &B02E
B083   BD 00 06          LDA &0600,X
B086   99 00 06          STA &0600,Y
B089   C8                INY
B08A   E8                INX
B08B   C4 2A             CPY &2A
B08D   D0 F4             BNE &B083
B08F   84 36             STY &36
B091   A9 00             LDA #&00
B093   60                RTS                "`"
B094   20 8C 8A          JSR .L134
B097   A0 FF             LDY #&FF
B099   C9 7E             CMP #&7E
B09B   F0 04             BEQ &B0A1
B09D   A0 00             LDY #&00
B09F   C6 1B             DEC &1B
B0A1   98                TYA
B0A2   48                PHA                "H"
B0A3   20 EC AD          JSR .L530
B0A6   F0 17             BEQ &B0BF
B0A8   A8                TAY
B0A9   68                PLA                "h"
B0AA   85 15             STA &15
B0AC   AD 03 04          LDA &0403
B0AF   D0 08             BNE &B0B9
B0B1   85 37             STA &37
B0B3   20 F9 9E          JSR &9EF9
B0B6   A9 00             LDA #&00
B0B8   60                RTS                "`"
B0B9   20 DF 9E          JSR &9EDF
B0BC   A9 00             LDA #&00
B0BE   60                RTS                "`"
B0BF   4C 0E 8C          JMP .L159
B0C2   20 DD 92          JSR .L176
B0C5   20 94 BD          JSR .L608
B0C8   20 AE 8A          JSR &8AAE
B0CB   20 56 AE          JSR .L539
B0CE   D0 EF             BNE &B0BF
B0D0   20 EA BD          JSR .L615
B0D3   A4 36             LDY &36
B0D5   F0 1E             BEQ &B0F5
B0D7   A5 2A             LDA &2A
B0D9   F0 1D             BEQ &B0F8
B0DB   C6 2A             DEC &2A
B0DD   F0 16             BEQ &B0F5
B0DF   A2 00             LDX #&00
B0E1   BD 00 06          LDA &0600,X
B0E4   99 00 06          STA &0600,Y
B0E7   E8                INX
B0E8   C8                INY
B0E9   F0 10             BEQ &B0FB
B0EB   E4 36             CPX &36
B0ED   90 F2             BCC &B0E1
B0EF   C6 2A             DEC &2A
B0F1   D0 EC             BNE &B0DF
B0F3   84 36             STY &36
B0F5   A9 00             LDA #&00
B0F7   60                RTS                "`"
B0F8   85 36             STA &36
B0FA   60                RTS                "`"
B0FB   4C 03 9C          JMP .L320
B0FE   68                PLA                "h"
B0FF   85 0C             STA &0C
B101   68                PLA                "h"
B102   85 0B             STA &0B
B104   00                BRK
B105   1D 4E 6F          ORA &6F4E,X
B108   20 73 75          JSR &7573          " su"
B10B   63                                   "c"
B10C   68                PLA                "h"
B10D   20 A4 2F          JSR &2FA4
B110   F2
B111   00                BRK
B112   A5 18             LDA &18
B114   85 0C             STA &0C
B116   A9 00             LDA #&00
B118   85 0B             STA &0B
B11A   A0 01             LDY #&01
B11C   B1 0B             LDA (&0B),Y
B11E   30 DE             BMI &B0FE
B120   A0 03             LDY #&03
B122   C8                INY
B123   B1 0B             LDA (&0B),Y
B125   C9 20             CMP #&20
B127   F0 F9             BEQ &B122
B129   C9 DD             CMP #&DD
B12B   F0 0F             BEQ &B13C
B12D   A0 03             LDY #&03
B12F   B1 0B             LDA (&0B),Y
B131   18                CLC
B132   65 0B             ADC &0B
B134   85 0B             STA &0B
B136   90 E2             BCC &B11A
B138   E6 0C             INC &0C
B13A   B0 DE             BCS &B11A
B13C   C8                INY
B13D   84 0A             STY &0A
B13F   20 97 8A          JSR .L136
B142   98                TYA
B143   AA                TAX
B144   18                CLC
B145   65 0B             ADC &0B
B147   A4 0C             LDY &0C
B149   90 02             BCC &B14D
B14B   C8                INY
B14C   18                CLC
B14D   E9 00             SBC #&00
B14F   85 3C             STA &3C
B151   98                TYA
B152   E9 00             SBC #&00
B154   85 3D             STA &3D
B156   A0 00             LDY #&00
B158   C8                INY
B159   E8                INX
B15A   B1 3C             LDA (&3C),Y
B15C   D1 37             CMP (&37),Y
B15E   D0 CD             BNE &B12D
B160   C4 39             CPY &39
B162   D0 F4             BNE &B158
B164   C8                INY
B165   B1 3C             LDA (&3C),Y
B167   20 26 89          JSR .L93
B16A   B0 C1             BCS &B12D
B16C   8A                TXA
B16D   A8                TAY
B16E   20 6D 98          JSR .L258
B171   20 ED 94          JSR &94ED
B174   A2 01             LDX #&01
B176   20 31 95          JSR .L198
B179   A0 00             LDY #&00
B17B   A5 0B             LDA &0B
B17D   91 02             STA (&02),Y
B17F   C8                INY
B180   A5 0C             LDA &0C
B182   91 02             STA (&02),Y
B184   20 39 95          JSR &9539
B187   4C F4 B1          JMP &B1F4
B18A   00                BRK
B18B   1E 42 61          ASL &6142,X
B18E   64                                   "d"
B18F   20 63 61          JSR &6163          " ca"
B192   6C 6C 00          JMP (&006C)
B195   A9 A4             LDA #&A4
B197   85 27             STA &27
B199   BA                TSX
B19A   8A                TXA
B19B   18                CLC
B19C   65 04             ADC &04
B19E   20 2E BE          JSR .L620
B1A1   A0 00             LDY #&00
B1A3   8A                TXA
B1A4   91 04             STA (&04),Y
B1A6   E8                INX
B1A7   C8                INY
B1A8   BD 00 01          LDA &0100,X
B1AB   91 04             STA (&04),Y
B1AD   E0 FF             CPX #&FF
B1AF   D0 F5             BNE &B1A6
B1B1   9A                TXS
B1B2   A5 27             LDA &27
B1B4   48                PHA                "H"
B1B5   A5 0A             LDA &0A
B1B7   48                PHA                "H"
B1B8   A5 0B             LDA &0B
B1BA   48                PHA                "H"
B1BB   A5 0C             LDA &0C
B1BD   48                PHA                "H"
B1BE   A5 1B             LDA &1B
B1C0   AA                TAX
B1C1   18                CLC
B1C2   65 19             ADC &19
B1C4   A4 1A             LDY &1A
B1C6   90 02             BCC &B1CA
B1C8   C8                INY
B1C9   18                CLC
B1CA   E9 01             SBC #&01
B1CC   85 37             STA &37
B1CE   98                TYA
B1CF   E9 00             SBC #&00
B1D1   85 38             STA &38
B1D3   A0 02             LDY #&02
B1D5   20 5B 95          JSR &955B
B1D8   C0 02             CPY #&02
B1DA   F0 AE             BEQ &B18A
B1DC   86 1B             STX &1B
B1DE   88                DEY
B1DF   84 39             STY &39
B1E1   20 5B 94          JSR &945B
B1E4   D0 03             BNE &B1E9
B1E6   4C 12 B1          JMP &B112
B1E9   A0 00             LDY #&00
B1EB   B1 2A             LDA (&2A),Y
B1ED   85 0B             STA &0B
B1EF   C8                INY
B1F0   B1 2A             LDA (&2A),Y
B1F2   85 0C             STA &0C
B1F4   A9 00             LDA #&00
B1F6   48                PHA                "H"
B1F7   85 0A             STA &0A
B1F9   20 97 8A          JSR .L136
B1FC   C9 28             CMP #&28
B1FE   F0 4D             BEQ &B24D
B200   C6 0A             DEC &0A
B202   A5 1B             LDA &1B
B204   48                PHA                "H"
B205   A5 19             LDA &19
B207   48                PHA                "H"
B208   A5 1A             LDA &1A
B20A   48                PHA                "H"
B20B   20 A3 8B          JSR .L152
B20E   68                PLA                "h"
B20F   85 1A             STA &1A
B211   68                PLA                "h"
B212   85 19             STA &19
B214   68                PLA                "h"
B215   85 1B             STA &1B
B217   68                PLA                "h"
B218   F0 0C             BEQ &B226
B21A   85 3F             STA &3F
B21C   20 0B BE          JSR .L618
B21F   20 C1 8C          JSR &8CC1
B222   C6 3F             DEC &3F
B224   D0 F6             BNE &B21C
B226   68                PLA                "h"
B227   85 0C             STA &0C
B229   68                PLA                "h"
B22A   85 0B             STA &0B
B22C   68                PLA                "h"
B22D   85 0A             STA &0A
B22F   68                PLA                "h"
B230   A0 00             LDY #&00
B232   B1 04             LDA (&04),Y
B234   AA                TAX
B235   9A                TXS
B236   C8                INY
B237   E8                INX
B238   B1 04             LDA (&04),Y
B23A   9D 00 01          STA &0100,X
B23D   E0 FF             CPX #&FF
B23F   D0 F5             BNE &B236
B241   98                TYA
B242   65 04             ADC &04
B244   85 04             STA &04
B246   90 02             BCC &B24A
B248   E6 05             INC &05
B24A   A5 27             LDA &27
B24C   60                RTS                "`"
B24D   A5 1B             LDA &1B
B24F   48                PHA                "H"
B250   A5 19             LDA &19
B252   48                PHA                "H"
B253   A5 1A             LDA &1A
B255   48                PHA                "H"
B256   20 82 95          JSR .L205
B259   F0 5A             BEQ &B2B5
B25B   A5 1B             LDA &1B
B25D   85 0A             STA &0A
B25F   68                PLA                "h"
B260   85 1A             STA &1A
B262   68                PLA                "h"
B263   85 19             STA &19
B265   68                PLA                "h"
B266   85 1B             STA &1B
B268   68                PLA                "h"
B269   AA                TAX
B26A   A5 2C             LDA &2C
B26C   48                PHA                "H"
B26D   A5 2B             LDA &2B
B26F   48                PHA                "H"
B270   A5 2A             LDA &2A
B272   48                PHA                "H"
B273   E8                INX
B274   8A                TXA
B275   48                PHA                "H"
B276   20 0D B3          JSR &B30D
B279   20 97 8A          JSR .L136
B27C   C9 2C             CMP #&2C
B27E   F0 CD             BEQ &B24D
B280   C9 29             CMP #&29
B282   D0 31             BNE &B2B5
B284   A9 00             LDA #&00
B286   48                PHA                "H"
B287   20 8C 8A          JSR .L134
B28A   C9 28             CMP #&28
B28C   D0 27             BNE &B2B5
B28E   20 29 9B          JSR .L298
B291   20 90 BD          JSR &BD90
B294   A5 27             LDA &27
B296   85 2D             STA &2D
B298   20 94 BD          JSR .L608
B29B   68                PLA                "h"
B29C   AA                TAX
B29D   E8                INX
B29E   8A                TXA
B29F   48                PHA                "H"
B2A0   20 8C 8A          JSR .L134
B2A3   C9 2C             CMP #&2C
B2A5   F0 E7             BEQ &B28E
B2A7   C9 29             CMP #&29
B2A9   D0 0A             BNE &B2B5
B2AB   68                PLA                "h"
B2AC   68                PLA                "h"
B2AD   85 4D             STA &4D
B2AF   85 4E             STA &4E
B2B1   E4 4D             CPX &4D
B2B3   F0 15             BEQ &B2CA
B2B5   A2 FB             LDX #&FB
B2B7   9A                TXS
B2B8   68                PLA                "h"
B2B9   85 0C             STA &0C
B2BB   68                PLA                "h"
B2BC   85 0B             STA &0B
B2BE   00                BRK
B2BF   1F
B2C0   41 72             EOR (&72,X)        "Ar"
B2C2   67                                   "g"
B2C3   75 6D             ADC &6D,X          "um"
B2C5   65 6E             ADC &6E            "en"
B2C7   74                                   "t"
B2C8   73                                   "s"
B2C9   00                BRK
B2CA   20 EA BD          JSR .L615
B2CD   68                PLA                "h"
B2CE   85 2A             STA &2A
B2D0   68                PLA                "h"
B2D1   85 2B             STA &2B
B2D3   68                PLA                "h"
B2D4   85 2C             STA &2C
B2D6   30 21             BMI &B2F9          "0!"
B2D8   A5 2D             LDA &2D
B2DA   F0 D9             BEQ &B2B5
B2DC   85 27             STA &27
B2DE   A2 37             LDX #&37
B2E0   20 44 BE          JSR .L624
B2E3   A5 27             LDA &27
B2E5   10 09             BPL &B2F0
B2E7   20 7E BD          JSR .L607
B2EA   20 B5 A3          JSR .L425
B2ED   4C F3 B2          JMP &B2F3
B2F0   20 EA BD          JSR .L615
B2F3   20 B7 B4          JSR &B4B7
B2F6   4C 03 B3          JMP &B303
B2F9   A5 2D             LDA &2D
B2FB   D0 B8             BNE &B2B5
B2FD   20 CB BD          JSR .L612
B300   20 21 8C          JSR &8C21
B303   C6 4D             DEC &4D
B305   D0 C3             BNE &B2CA
B307   A5 4E             LDA &4E
B309   48                PHA                "H"
B30A   4C 02 B2          JMP &B202
B30D   A4 2C             LDY &2C
B30F   C0 04             CPY #&04
B311   D0 05             BNE &B318
B313   A2 37             LDX #&37
B315   20 44 BE          JSR .L624
B318   20 2C B3          JSR .L552
B31B   08                PHP
B31C   20 90 BD          JSR &BD90
B31F   28                PLP                "("
B320   F0 07             BEQ &B329
B322   30 05             BMI &B329
B324   A2 37             LDX #&37
B326   20 56 AF          JSR .L550
B329   4C 94 BD          JMP .L608
B32C   A4 2C      .L552  LDY &2C
B32E   30 54             BMI .L556
B330   F0 1D             BEQ .L553
B332   C0 05             CPY #&05
B334   F0 1E             BEQ .L554
B336   A0 03             LDY #&03
B338   B1 2A             LDA (&2A),Y
B33A   85 2D             STA &2D
B33C   88                DEY
B33D   B1 2A             LDA (&2A),Y
B33F   85 2C             STA &2C
B341   88                DEY
B342   B1 2A             LDA (&2A),Y
B344   AA                TAX
B345   88                DEY
B346   B1 2A             LDA (&2A),Y
B348   85 2A             STA &2A
B34A   86 2B             STX &2B
B34C   A9 40             LDA #&40
B34E   60                RTS
B34F   B1 2A      .L553  LDA (&2A),Y
B351   4C EA AE          JMP .L549
B354   88         .L554  DEY
B355   B1 2A             LDA (&2A),Y
B357   85 34             STA &34
B359   88                DEY
B35A   B1 2A             LDA (&2A),Y
B35C   85 33             STA &33
B35E   88                DEY
B35F   B1 2A             LDA (&2A),Y
B361   85 32             STA &32
B363   88                DEY
B364   B1 2A             LDA (&2A),Y
B366   85 2E             STA &2E
B368   88                DEY
B369   B1 2A             LDA (&2A),Y
B36B   85 30             STA &30
B36D   84 35             STY &35
B36F   84 2F             STY &2F
B371   05 2E             ORA &2E
B373   05 32             ORA &32
B375   05 33             ORA &33
B377   05 34             ORA &34
B379   F0 04             BEQ .L555
B37B   A5 2E             LDA &2E
B37D   09 80             ORA #&80
B37F   85 31      .L555  STA &31
B381   A9 FF             LDA #&FF
B383   60                RTS
B384   C0 80      .L556  CPY #&80
B386   F0 1F             BEQ .L559
B388   A0 03             LDY #&03
B38A   B1 2A             LDA (&2A),Y
B38C   85 36             STA &36
B38E   F0 16             BEQ .L558
B390   A0 01             LDY #&01
B392   B1 2A             LDA (&2A),Y
B394   85 38             STA &38
B396   88                DEY
B397   B1 2A             LDA (&2A),Y
B399   85 37             STA &37
B39B   A4 36             LDY &36
B39D   88         .L557  DEY
B39E   B1 37             LDA (&37),Y
B3A0   99 00 06          STA &0600,Y
B3A3   98                TYA
B3A4   D0 F7             BNE .L557
B3A6   60         .L558  RTS
B3A7   A5 2B      .L559  LDA &2B
B3A9   F0 15             BEQ .L562
B3AB   A0 00             LDY #&00
B3AD   B1 2A      .L560  LDA (&2A),Y
B3AF   99 00 06          STA &0600,Y
B3B2   49 0D             EOR #&0D
B3B4   F0 04             BEQ .L561
B3B6   C8                INY
B3B7   D0 F4             BNE .L560
B3B9   98                TYA
B3BA   84 36      .L561  STY &36
B3BC   60                RTS
B3BD   20 E3 92          JSR .L177
B3C0   A5 2A      .L562  LDA &2A
B3C2   4C C2 AF          JMP .L551
B3C5   A0 00             LDY #&00
B3C7   84 08             STY &08
B3C9   84 09             STY &09
B3CB   A6 18             LDX &18
B3CD   86 38             STX &38
B3CF   84 37             STY &37
B3D1   A6 0C             LDX &0C
B3D3   E0 07             CPX #&07
B3D5   F0 2A             BEQ &B401
B3D7   A6 0B             LDX &0B
B3D9   20 42 89          JSR &8942
B3DC   C9 0D             CMP #&0D
B3DE   D0 19             BNE &B3F9
B3E0   E4 37             CPX &37
B3E2   A5 0C             LDA &0C
B3E4   E5 38             SBC &38
B3E6   90 19             BCC &B401
B3E8   20 42 89          JSR &8942
B3EB   09 00             ORA #&00
B3ED   30 12             BMI &B401
B3EF   85 09             STA &09
B3F1   20 42 89          JSR &8942
B3F4   85 08             STA &08
B3F6   20 42 89          JSR &8942
B3F9   E4 37             CPX &37
B3FB   A5 0C             LDA &0C
B3FD   E5 38             SBC &38
B3FF   B0 D8             BCS &B3D9
B401   60                RTS                "`"
B402   20 C5 B3          JSR &B3C5
B405   84 20             STY &20
B407   B1 FD             LDA (&FD),Y
B409   D0 08             BNE &B413
B40B   A9 33             LDA #&33
B40D   85 16             STA &16
B40F   A9 B4             LDA #&B4
B411   85 17             STA &17
B413   A5 16             LDA &16
B415   85 0B             STA &0B
B417   A5 17             LDA &17
B419   85 0C             STA &0C
B41B   20 3A BD          JSR .L605
B41E   AA                TAX
B41F   86 0A             STX &0A
B421   A9 DA             LDA #&DA
B423   20 F4 FF          JSR .L642
B426   A9 7E             LDA #&7E
B428   20 F4 FF          JSR .L642
B42B   A2 FF             LDX #&FF
B42D   86 28             STX &28
B42F   9A                TXS
B430   4C A3 8B          JMP .L152
B433   F6 3A             INC &3A,X
B435   E7
B436   9E
B437   F1 22             SBC (&22),Y
B439   20 61 74          JSR &7461          " at"
B43C   20 6C 69          JSR &696C          " li"
B43F   6E 65 20          ROR &2065          "ne "
B442   22                                   "\""
B443   3B                                   ";"
B444   9E
B445   3A                                   ":"
B446   E0 8B             CPX #&8B
B448   F1 3A             SBC (&3A),Y
B44A   E0 0D             CPX #&0D
B44C   20 21 88          JSR .L75
B44F   A2 03             LDX #&03
B451   A5 2A             LDA &2A
B453   48                PHA                "H"
B454   A5 2B             LDA &2B
B456   48                PHA                "H"
B457   8A                TXA
B458   48                PHA                "H"
B459   20 DA 92          JSR &92DA
B45C   68                PLA                "h"
B45D   AA                TAX
B45E   CA                DEX
B45F   D0 F0             BNE &B451
B461   20 52 98          JSR &9852
B464   A5 2A             LDA &2A
B466   85 3D             STA &3D
B468   A5 2B             LDA &2B
B46A   85 3E             STA &3E
B46C   A0 07             LDY #&07
B46E   A2 05             LDX #&05
B470   D0 1D             BNE &B48F
B472   20 21 88          JSR .L75
B475   A2 0D             LDX #&0D
B477   A5 2A             LDA &2A
B479   48                PHA                "H"
B47A   8A                TXA
B47B   48                PHA                "H"
B47C   20 DA 92          JSR &92DA
B47F   68                PLA                "h"
B480   AA                TAX
B481   CA                DEX
B482   D0 F3             BNE &B477
B484   20 52 98          JSR &9852
B487   A5 2A             LDA &2A
B489   85 44             STA &44
B48B   A2 0C             LDX #&0C
B48D   A0 08             LDY #&08
B48F   68                PLA                "h"
B490   95 37             STA &37,X
B492   CA                DEX
B493   10 FA             BPL &B48F
B495   98                TYA
B496   A2 37             LDX #&37
B498   A0 00             LDY #&00
B49A   20 F1 FF          JSR .L641
B49D   4C 9B 8B          JMP .L151
B4A0   20 21 88          JSR .L75
B4A3   20 52 98          JSR &9852
B4A6   A4 2A             LDY &2A
B4A8   88                DEY
B4A9   84 23             STY &23
B4AB   4C 9B 8B          JMP .L151
B4AE   4C 0E 8C   .L563  JMP .L159
B4B1   20 29 9B          JSR .L298
B4B4   20 0B BE   .L564  JSR .L618
B4B7   A5 39             LDA &39
B4B9   C9 05             CMP #&05
B4BB   F0 23             BEQ .L567
B4BD   A5 27             LDA &27
B4BF   F0 ED             BEQ .L563
B4C1   10 03             BPL .L565
B4C3   20 E4 A3          JSR .L427
B4C6   A0 00      .L565  LDY #&00
B4C8   A5 2A             LDA &2A
B4CA   91 37             STA (&37),Y
B4CC   A5 39             LDA &39
B4CE   F0 0F             BEQ .L566
B4D0   A5 2B             LDA &2B
B4D2   C8                INY
B4D3   91 37             STA (&37),Y
B4D5   A5 2C             LDA &2C
B4D7   C8                INY
B4D8   91 37             STA (&37),Y
B4DA   A5 2D             LDA &2D
B4DC   C8                INY
B4DD   91 37             STA (&37),Y
B4DF   60         .L566  RTS
B4E0   A5 27      .L567  LDA &27
B4E2   F0 CA             BEQ .L563
B4E4   30 03             BMI .L568
B4E6   20 BE A2          JSR .L409
B4E9   A0 00      .L568  LDY #&00
B4EB   A5 30             LDA &30
B4ED   91 37             STA (&37),Y
B4EF   C8                INY
B4F0   A5 2E             LDA &2E
B4F2   29 80             AND #&80
B4F4   85 2E             STA &2E
B4F6   A5 31             LDA &31
B4F8   29 7F             AND #&7F
B4FA   05 2E             ORA &2E
B4FC   91 37             STA (&37),Y
B4FE   C8                INY
B4FF   A5 32             LDA &32
B501   91 37             STA (&37),Y
B503   C8                INY
B504   A5 33             LDA &33
B506   91 37             STA (&37),Y
B508   C8                INY
B509   A5 34             LDA &34
B50B   91 37             STA (&37),Y
B50D   60                RTS
B50E   85 37      .L569  STA &37
B510   C9 80             CMP #&80
B512   90 44             BCC .L578
B514   A9 71             LDA #&71
B516   85 38             STA &38
B518   A9 80             LDA #&80
B51A   85 39             STA &39
B51C   84 3A             STY &3A
B51E   A0 00      .L570  LDY #&00
B520   C8         .L571  INY
B521   B1 38             LDA (&38),Y
B523   10 FB             BPL .L571
B525   C5 37             CMP &37
B527   F0 0D             BEQ .L572
B529   C8                INY
B52A   98                TYA
B52B   38                SEC
B52C   65 38             ADC &38
B52E   85 38             STA &38
B530   90 EC             BCC .L570
B532   E6 39             INC &39
B534   B0 E8             BCS .L570
B536   A0 00      .L572  LDY #&00
B538   B1 38      .L573  LDA (&38),Y
B53A   30 06             BMI .L574
B53C   20 58 B5          JSR .L578
B53F   C8                INY
B540   D0 F6             BNE .L573
B542   A4 3A      .L574  LDY &3A
B544   60                RTS
B545   48         .L575  PHA
B546   4A                LSR A
B547   4A                LSR A
B548   4A                LSR A
B549   4A                LSR A
B54A   20 50 B5          JSR .L576
B54D   68                PLA
B54E   29 0F             AND #&0F
B550   C9 0A      .L576  CMP #&0A
B552   90 02             BCC .L577
B554   69 06             ADC #&06
B556   69 30      .L577  ADC #&30
B558   C9 0D      .L578  CMP #&0D
B55A   D0 0B             BNE .L581
B55C   20 EE FF          JSR .L640
B55F   4C 28 BC          JMP .L585
B562   20 45 B5   .L579  JSR .L575
B565   A9 20      .L580  LDA #&20
B567   48         .L581  PHA
B568   A5 23             LDA &23
B56A   C5 1E             CMP &1E
B56C   B0 03             BCS .L582
B56E   20 25 BC          JSR .L584
B571   68         .L582  PLA
B572   E6 1E             INC &1E
B574   6C 0E 02          JMP (&020E)
B577   25 1F             AND &1F
B579   F0 0E             BEQ &B589
B57B   8A                TXA
B57C   F0 0B             BEQ &B589
B57E   30 E5             BMI .L580
B580   20 65 B5          JSR .L580
B583   20 58 B5          JSR .L578
B586   CA                DEX
B587   D0 F7             BNE &B580
B589   60                RTS                "`"
B58A   E6 0A             INC &0A
B58C   20 1D 9B          JSR .L297
B58F   20 4C 98          JSR .L253
B592   20 EE 92          JSR &92EE
B595   A5 2A             LDA &2A
B597   85 1F             STA &1F
B599   4C F6 8A          JMP .L139
B59C   C8                INY
B59D   B1 0B             LDA (&0B),Y
B59F   C9 4F             CMP #&4F
B5A1   F0 E7             BEQ &B58A
B5A3   A9 00             LDA #&00
B5A5   85 3B             STA &3B
B5A7   85 3C             STA &3C
B5A9   20 D8 AE          JSR .L548
B5AC   20 DF 97          JSR .L245
B5AF   08                PHP
B5B0   20 94 BD          JSR .L608
B5B3   A9 FF             LDA #&FF
B5B5   85 2A             STA &2A
B5B7   A9 7F             LDA #&7F
B5B9   85 2B             STA &2B
B5BB   28                PLP                "("
B5BC   90 11             BCC &B5CF
B5BE   20 97 8A          JSR .L136
B5C1   C9 2C             CMP #&2C
B5C3   F0 13             BEQ &B5D8
B5C5   20 EA BD          JSR .L615
B5C8   20 94 BD          JSR .L608
B5CB   C6 0A             DEC &0A
B5CD   10 0C             BPL &B5DB
B5CF   20 97 8A          JSR .L136
B5D2   C9 2C             CMP #&2C
B5D4   F0 02             BEQ &B5D8
B5D6   C6 0A             DEC &0A
B5D8   20 DF 97          JSR .L245
B5DB   A5 2A             LDA &2A
B5DD   85 31             STA &31
B5DF   A5 2B             LDA &2B
B5E1   85 32             STA &32
B5E3   20 57 98          JSR .L254
B5E6   20 6F BE          JSR .L627
B5E9   20 EA BD          JSR .L615
B5EC   20 70 99          JSR .L275
B5EF   A5 3D             LDA &3D
B5F1   85 0B             STA &0B
B5F3   A5 3E             LDA &3E
B5F5   85 0C             STA &0C
B5F7   90 16             BCC &B60F
B5F9   88                DEY
B5FA   B0 06             BCS &B602
B5FC   20 25 BC          JSR .L584
B5FF   20 6D 98          JSR .L258
B602   B1 0B             LDA (&0B),Y
B604   85 2B             STA &2B
B606   C8                INY
B607   B1 0B             LDA (&0B),Y
B609   85 2A             STA &2A
B60B   C8                INY
B60C   C8                INY
B60D   84 0A             STY &0A
B60F   A5 2A             LDA &2A
B611   18                CLC
B612   E5 31             SBC &31
B614   A5 2B             LDA &2B
B616   E5 32             SBC &32
B618   90 03             BCC &B61D
B61A   4C F6 8A          JMP .L139
B61D   20 23 99          JSR &9923
B620   A2 FF             LDX #&FF
B622   86 4D             STX &4D
B624   A9 01             LDA #&01
B626   20 77 B5          JSR &B577
B629   A6 3B             LDX &3B
B62B   A9 02             LDA #&02
B62D   20 77 B5          JSR &B577
B630   A6 3C             LDX &3C
B632   A9 04             LDA #&04
B634   20 77 B5          JSR &B577
B637   A4 0A             LDY &0A
B639   B1 0B             LDA (&0B),Y
B63B   C9 0D             CMP #&0D
B63D   F0 BD             BEQ &B5FC
B63F   C9 22             CMP #&22
B641   D0 0E             BNE &B651
B643   A9 FF             LDA #&FF
B645   45 4D             EOR &4D            "EM"
B647   85 4D             STA &4D
B649   A9 22             LDA #&22
B64B   20 58 B5          JSR .L578
B64E   C8                INY
B64F   D0 E8             BNE &B639
B651   24 4D             BIT &4D            "$M"
B653   10 F6             BPL &B64B
B655   C9 8D             CMP #&8D
B657   D0 0F             BNE &B668
B659   20 EB 97          JSR &97EB
B65C   84 0A             STY &0A
B65E   A9 00             LDA #&00
B660   85 14             STA &14
B662   20 1F 99          JSR .L266
B665   4C 37 B6          JMP &B637
B668   C9 E3             CMP #&E3
B66A   D0 02             BNE &B66E
B66C   E6 3B             INC &3B
B66E   C9 ED             CMP #&ED
B670   D0 06             BNE &B678
B672   A6 3B             LDX &3B
B674   F0 02             BEQ &B678
B676   C6 3B             DEC &3B
B678   C9 F5             CMP #&F5
B67A   D0 02             BNE &B67E
B67C   E6 3C             INC &3C
B67E   C9 FD             CMP #&FD
B680   D0 06             BNE &B688
B682   A6 3C             LDX &3C
B684   F0 02             BEQ &B688
B686   C6 3C             DEC &3C
B688   20 0E B5          JSR .L569
B68B   C8                INY
B68C   D0 AB             BNE &B639
B68E   00                BRK
B68F   20 4E 6F          JSR &6F4E          " No"
B692   20 E3 00          JSR &00E3
B695   20 C9 95          JSR .L212
B698   D0 09             BNE &B6A3
B69A   A6 26             LDX &26
B69C   F0 F0             BEQ &B68E
B69E   B0 37             BCS &B6D7
B6A0   4C 2A 98          JMP .L249
B6A3   B0 FB             BCS &B6A0
B6A5   A6 26             LDX &26
B6A7   F0 E5             BEQ &B68E
B6A9   A5 2A             LDA &2A
B6AB   DD F1 04          CMP &04F1,X
B6AE   D0 0E             BNE &B6BE
B6B0   A5 2B             LDA &2B
B6B2   DD F2 04          CMP &04F2,X
B6B5   D0 07             BNE &B6BE
B6B7   A5 2C             LDA &2C
B6B9   DD F3 04          CMP &04F3,X
B6BC   F0 19             BEQ &B6D7
B6BE   8A                TXA
B6BF   38                SEC                "8"
B6C0   E9 0F             SBC #&0F
B6C2   AA                TAX
B6C3   86 26             STX &26
B6C5   D0 E2             BNE &B6A9
B6C7   00                BRK
B6C8   21 43             AND (&43,X)        "!C"
B6CA   61 6E             ADC (&6E,X)        "an"
B6CC   27                                   "'"
B6CD   74                                   "t"
B6CE   20 4D 61          JSR &614D          " Ma"
B6D1   74                                   "t"
B6D2   63                                   "c"
B6D3   68                PLA                "h"
B6D4   20 E3 00          JSR &00E3
B6D7   BD F1 04          LDA &04F1,X
B6DA   85 2A             STA &2A
B6DC   BD F2 04          LDA &04F2,X
B6DF   85 2B             STA &2B
B6E1   BC F3 04          LDY &04F3,X
B6E4   C0 05             CPY #&05
B6E6   F0 7E             BEQ &B766
B6E8   A0 00             LDY #&00
B6EA   B1 2A             LDA (&2A),Y
B6EC   7D F4 04          ADC &04F4,X
B6EF   91 2A             STA (&2A),Y
B6F1   85 37             STA &37
B6F3   C8                INY
B6F4   B1 2A             LDA (&2A),Y
B6F6   7D F5 04          ADC &04F5,X
B6F9   91 2A             STA (&2A),Y
B6FB   85 38             STA &38
B6FD   C8                INY
B6FE   B1 2A             LDA (&2A),Y
B700   7D F6 04          ADC &04F6,X
B703   91 2A             STA (&2A),Y
B705   85 39             STA &39
B707   C8                INY
B708   B1 2A             LDA (&2A),Y
B70A   7D F7 04          ADC &04F7,X
B70D   91 2A             STA (&2A),Y
B70F   A8                TAY
B710   A5 37             LDA &37
B712   38                SEC                "8"
B713   FD F9 04          SBC &04F9,X
B716   85 37             STA &37
B718   A5 38             LDA &38
B71A   FD FA 04          SBC &04FA,X
B71D   85 38             STA &38
B71F   A5 39             LDA &39
B721   FD FB 04          SBC &04FB,X
B724   85 39             STA &39
B726   98                TYA
B727   FD FC 04          SBC &04FC,X
B72A   05 37             ORA &37
B72C   05 38             ORA &38
B72E   05 39             ORA &39
B730   F0 0F             BEQ &B741
B732   98                TYA
B733   5D F7 04          EOR &04F7,X
B736   5D FC 04          EOR &04FC,X
B739   10 04             BPL &B73F
B73B   B0 04             BCS &B741
B73D   90 12             BCC &B751
B73F   B0 10             BCS &B751
B741   BC FE 04          LDY &04FE,X
B744   BD FF 04          LDA &04FF,X
B747   84 0B             STY &0B
B749   85 0C             STA &0C
B74B   20 77 98          JSR .L259
B74E   4C A3 8B          JMP .L152
B751   A5 26             LDA &26
B753   38                SEC                "8"
B754   E9 0F             SBC #&0F
B756   85 26             STA &26
B758   A4 1B             LDY &1B
B75A   84 0A             STY &0A
B75C   20 97 8A          JSR .L136
B75F   C9 2C             CMP #&2C
B761   D0 3E             BNE &B7A1
B763   4C 95 B6          JMP &B695
B766   20 54 B3          JSR .L554
B769   A5 26             LDA &26
B76B   18                CLC
B76C   69 F4             ADC #&F4
B76E   85 4B             STA &4B
B770   A9 05             LDA #&05
B772   85 4C             STA &4C
B774   20 00 A5          JSR .L448
B777   A5 2A             LDA &2A
B779   85 37             STA &37
B77B   A5 2B             LDA &2B
B77D   85 38             STA &38
B77F   20 E9 B4          JSR .L568
B782   A5 26             LDA &26
B784   85 27             STA &27
B786   18                CLC
B787   69 F9             ADC #&F9
B789   85 4B             STA &4B
B78B   A9 05             LDA #&05
B78D   85 4C             STA &4C
B78F   20 5F 9A          JSR &9A5F
B792   F0 AD             BEQ &B741
B794   BD F5 04          LDA &04F5,X
B797   30 04             BMI &B79D
B799   B0 A6             BCS &B741
B79B   90 B4             BCC &B751
B79D   90 A2             BCC &B741
B79F   B0 B0             BCS &B751
B7A1   4C 96 8B          JMP .L150
B7A4   00                BRK
B7A5   22                                   "\""
B7A6   E3
B7A7   20 76 61          JSR &6176          " va"
B7AA   72                                   "r"
B7AB   69 61             ADC #&61           "ia"
B7AD   62                                   "b"
B7AE   6C 65 00          JMP (&0065)
B7B1   23                                   "#"
B7B2   54                                   "T"
B7B3   6F                                   "o"
B7B4   6F                                   "o"
B7B5   20 6D 61          JSR &616D          " ma"
B7B8   6E 79 20          ROR &2079          "ny "
B7BB   E3
B7BC   73                                   "s"
B7BD   00                BRK
B7BE   24 4E             BIT &4E            "$N"
B7C0   6F                                   "o"
B7C1   20 B8 00          JSR &00B8
B7C4   20 82 95          JSR .L205
B7C7   F0 DB             BEQ &B7A4
B7C9   B0 D9             BCS &B7A4
B7CB   20 94 BD          JSR .L608
B7CE   20 41 98          JSR .L251
B7D1   20 B1 B4          JSR &B4B1
B7D4   A4 26             LDY &26
B7D6   C0 96             CPY #&96
B7D8   B0 D6             BCS &B7B0
B7DA   A5 37             LDA &37
B7DC   99 00 05          STA &0500,Y
B7DF   A5 38             LDA &38
B7E1   99 01 05          STA &0501,Y
B7E4   A5 39             LDA &39
B7E6   99 02 05          STA &0502,Y
B7E9   AA                TAX
B7EA   20 8C 8A          JSR .L134
B7ED   C9 B8             CMP #&B8
B7EF   D0 CC             BNE &B7BD
B7F1   E0 05             CPX #&05
B7F3   F0 5A             BEQ &B84F
B7F5   20 DD 92          JSR .L176
B7F8   A4 26             LDY &26
B7FA   A5 2A             LDA &2A
B7FC   99 08 05          STA &0508,Y
B7FF   A5 2B             LDA &2B
B801   99 09 05          STA &0509,Y
B804   A5 2C             LDA &2C
B806   99 0A 05          STA &050A,Y
B809   A5 2D             LDA &2D
B80B   99 0B 05          STA &050B,Y
B80E   A9 01             LDA #&01
B810   20 D8 AE          JSR .L548
B813   20 8C 8A          JSR .L134
B816   C9 88             CMP #&88
B818   D0 05             BNE &B81F
B81A   20 DD 92          JSR .L176
B81D   A4 1B             LDY &1B
B81F   84 0A             STY &0A
B821   A4 26             LDY &26
B823   A5 2A             LDA &2A
B825   99 03 05          STA &0503,Y
B828   A5 2B             LDA &2B
B82A   99 04 05          STA &0504,Y
B82D   A5 2C             LDA &2C
B82F   99 05 05          STA &0505,Y
B832   A5 2D             LDA &2D
B834   99 06 05          STA &0506,Y
B837   20 80 98          JSR &9880
B83A   A4 26             LDY &26
B83C   A5 0B             LDA &0B
B83E   99 0D 05          STA &050D,Y
B841   A5 0C             LDA &0C
B843   99 0E 05          STA &050E,Y
B846   18                CLC
B847   98                TYA
B848   69 0F             ADC #&0F
B84A   85 26             STA &26
B84C   4C A3 8B          JMP .L152
B84F   20 29 9B          JSR .L298
B852   20 FD 92          JSR .L183
B855   A5 26             LDA &26
B857   18                CLC
B858   69 08             ADC #&08
B85A   85 4B             STA &4B
B85C   A9 05             LDA #&05
B85E   85 4C             STA &4C
B860   20 8D A3          JSR &A38D
B863   20 99 A6          JSR .L479
B866   20 8C 8A          JSR .L134
B869   C9 88             CMP #&88
B86B   D0 08             BNE &B875
B86D   20 29 9B          JSR .L298
B870   20 FD 92          JSR .L183
B873   A4 1B             LDY &1B
B875   84 0A             STY &0A
B877   A5 26             LDA &26
B879   18                CLC
B87A   69 03             ADC #&03
B87C   85 4B             STA &4B
B87E   A9 05             LDA #&05
B880   85 4C             STA &4C
B882   20 8D A3          JSR &A38D
B885   4C 37 B8          JMP &B837
B888   20 9A B9          JSR &B99A
B88B   20 57 98          JSR .L254
B88E   A4 25             LDY &25
B890   C0 1A             CPY #&1A
B892   B0 0E             BCS &B8A2
B894   A5 0B             LDA &0B
B896   99 CC 05          STA &05CC,Y
B899   A5 0C             LDA &0C
B89B   99 E6 05          STA &05E6,Y
B89E   E6 25             INC &25
B8A0   90 30             BCC &B8D2
B8A2   00                BRK
B8A3   25 54             AND &54            "%T"
B8A5   6F                                   "o"
B8A6   6F                                   "o"
B8A7   20 6D 61          JSR &616D          " ma"
B8AA   6E 79 20          ROR &2079          "ny "
B8AD   E4 73             CPX &73
B8AF   00                BRK
B8B0   26 4E             ROL &4E            "&N"
B8B2   6F                                   "o"
B8B3   20 E4 00          JSR &00E4
B8B6   20 57 98          JSR .L254
B8B9   A6 25             LDX &25
B8BB   F0 F2             BEQ &B8AF
B8BD   C6 25             DEC &25
B8BF   BC CB 05          LDY &05CB,X
B8C2   BD E5 05          LDA &05E5,X
B8C5   84 0B             STY &0B
B8C7   85 0C             STA &0C
B8C9   4C 9B 8B          JMP .L151
B8CC   20 9A B9          JSR &B99A
B8CF   20 57 98          JSR .L254
B8D2   A5 20             LDA &20
B8D4   F0 03             BEQ &B8D9
B8D6   20 05 99          JSR .L265
B8D9   A4 3D             LDY &3D
B8DB   A5 3E             LDA &3E
B8DD   84 0B             STY &0B
B8DF   85 0C             STA &0C
B8E1   4C A3 8B          JMP .L152
B8E4   20 57 98          JSR .L254
B8E7   A9 33             LDA #&33
B8E9   85 16             STA &16
B8EB   A9 B4             LDA #&B4
B8ED   85 17             STA &17
B8EF   4C 9B 8B          JMP .L151
B8F2   20 97 8A          JSR .L136
B8F5   C9 87             CMP #&87
B8F7   F0 EB             BEQ &B8E4
B8F9   A4 0A             LDY &0A
B8FB   88                DEY
B8FC   20 6D 98          JSR .L258
B8FF   A5 0B             LDA &0B
B901   85 16             STA &16
B903   A5 0C             LDA &0C
B905   85 17             STA &17
B907   4C 7D 8B          JMP .L147
B90A   00                BRK
B90B   27                                   "'"
B90C   EE 20 73          INC &7320
B90F   79 6E 74          ADC &746E,Y        "ynt"
B912   61 78             ADC (&78,X)        "ax"
B914   00                BRK
B915   20 97 8A          JSR .L136
B918   C9 85             CMP #&85
B91A   F0 D6             BEQ &B8F2
B91C   C6 0A             DEC &0A
B91E   20 1D 9B          JSR .L297
B921   20 F0 92          JSR .L179
B924   A4 1B             LDY &1B
B926   C8                INY
B927   84 0A             STY &0A
B929   E0 E5             CPX #&E5
B92B   F0 04             BEQ &B931
B92D   E0 E4             CPX #&E4
B92F   D0 D9             BNE &B90A
B931   8A                TXA
B932   48                PHA                "H"
B933   A5 2B             LDA &2B
B935   05 2C             ORA &2C
B937   05 2D             ORA &2D
B939   D0 42             BNE &B97D
B93B   A6 2A             LDX &2A
B93D   F0 3E             BEQ &B97D
B93F   CA                DEX
B940   F0 1A             BEQ &B95C
B942   A4 0A             LDY &0A
B944   B1 0B             LDA (&0B),Y
B946   C8                INY
B947   C9 0D             CMP #&0D
B949   F0 32             BEQ &B97D
B94B   C9 3A             CMP #&3A
B94D   F0 2E             BEQ &B97D
B94F   C9 8B             CMP #&8B
B951   F0 2A             BEQ &B97D
B953   C9 2C             CMP #&2C
B955   D0 ED             BNE &B944
B957   CA                DEX
B958   D0 EA             BNE &B944
B95A   84 0A             STY &0A
B95C   20 9A B9          JSR &B99A
B95F   68                PLA                "h"
B960   C9 E4             CMP #&E4
B962   F0 06             BEQ &B96A
B964   20 77 98          JSR .L259
B967   4C D2 B8          JMP &B8D2
B96A   A4 0A             LDY &0A
B96C   B1 0B             LDA (&0B),Y
B96E   C8                INY
B96F   C9 0D             CMP #&0D
B971   F0 04             BEQ &B977
B973   C9 3A             CMP #&3A
B975   D0 F5             BNE &B96C
B977   88                DEY
B978   84 0A             STY &0A
B97A   4C 8B B8          JMP &B88B
B97D   A4 0A             LDY &0A
B97F   68                PLA                "h"
B980   B1 0B             LDA (&0B),Y
B982   C8                INY
B983   C9 8B             CMP #&8B
B985   F0 0E             BEQ &B995
B987   C9 0D             CMP #&0D
B989   D0 F5             BNE &B980
B98B   00                BRK
B98C   28                PLP                "("
B98D   EE 20 72          INC &7220
B990   61 6E             ADC (&6E,X)        "an"
B992   67                                   "g"
B993   65 00             ADC &00
B995   84 0A             STY &0A
B997   4C E3 98          JMP &98E3
B99A   20 DF 97          JSR .L245
B99D   B0 10             BCS &B9AF
B99F   20 1D 9B          JSR .L297
B9A2   20 F0 92          JSR .L179
B9A5   A5 1B             LDA &1B
B9A7   85 0A             STA &0A
B9A9   A5 2B             LDA &2B
B9AB   29 7F             AND #&7F
B9AD   85 2B             STA &2B
B9AF   20 70 99          JSR .L275
B9B2   B0 01             BCS &B9B5
B9B4   60                RTS                "`"
B9B5   00                BRK
B9B6   29 4E             AND #&4E           ")N"
B9B8   6F                                   "o"
B9B9   20 73 75          JSR &7573          " su"
B9BC   63                                   "c"
B9BD   68                PLA                "h"
B9BE   20 6C 69          JSR &696C          " li"
B9C1   6E 65 00          ROR &0065
B9C4   4C 0E 8C          JMP .L159
B9C7   4C 2A 98          JMP .L249
B9CA   84 0A             STY &0A
B9CC   4C 98 8B          JMP &8B98
B9CF   C6 0A             DEC &0A
B9D1   20 A9 BF          JSR &BFA9
B9D4   A5 1B             LDA &1B
B9D6   85 0A             STA &0A
B9D8   84 4D             STY &4D
B9DA   20 97 8A          JSR .L136
B9DD   C9 2C             CMP #&2C
B9DF   D0 E9             BNE &B9CA
B9E1   A5 4D             LDA &4D
B9E3   48                PHA                "H"
B9E4   20 82 95          JSR .L205
B9E7   F0 DE             BEQ &B9C7
B9E9   A5 1B             LDA &1B
B9EB   85 0A             STA &0A
B9ED   68                PLA                "h"
B9EE   85 4D             STA &4D
B9F0   08                PHP
B9F1   20 94 BD          JSR .L608
B9F4   A4 4D             LDY &4D
B9F6   20 D7 FF          JSR &FFD7
B9F9   85 27             STA &27
B9FB   28                PLP                "("
B9FC   90 1B             BCC &BA19
B9FE   A5 27             LDA &27
BA00   D0 C2             BNE &B9C4
BA02   20 D7 FF          JSR &FFD7
BA05   85 36             STA &36
BA07   AA                TAX
BA08   F0 09             BEQ &BA13
BA0A   20 D7 FF          JSR &FFD7
BA0D   9D FF 05          STA &05FF,X
BA10   CA                DEX
BA11   D0 F7             BNE &BA0A
BA13   20 1E 8C          JSR .L160
BA16   4C DA B9          JMP &B9DA
BA19   A5 27             LDA &27
BA1B   F0 A7             BEQ &B9C4
BA1D   30 0C             BMI &BA2B
BA1F   A2 03             LDX #&03
BA21   20 D7 FF          JSR &FFD7
BA24   95 2A             STA &2A,X
BA26   CA                DEX
BA27   10 F8             BPL &BA21
BA29   30 0E             BMI &BA39
BA2B   A2 04             LDX #&04
BA2D   20 D7 FF          JSR &FFD7
BA30   9D 6C 04          STA &046C,X
BA33   CA                DEX
BA34   10 F7             BPL &BA2D
BA36   20 B2 A3          JSR &A3B2
BA39   20 B4 B4          JSR .L564
BA3C   4C DA B9          JMP &B9DA
BA3F   68                PLA                "h"
BA40   68                PLA                "h"
BA41   4C 98 8B          JMP &8B98
BA44   20 97 8A          JSR .L136
BA47   C9 23             CMP #&23
BA49   F0 84             BEQ &B9CF
BA4B   C9 86             CMP #&86
BA4D   F0 03             BEQ &BA52
BA4F   C6 0A             DEC &0A
BA51   18                CLC
BA52   66 4D             ROR &4D            "fM"
BA54   46 4D             LSR &4D            "FM"
BA56   A9 FF             LDA #&FF
BA58   85 4E             STA &4E
BA5A   20 8A 8E          JSR &8E8A
BA5D   B0 0A             BCS &BA69
BA5F   20 8A 8E          JSR &8E8A
BA62   90 FB             BCC &BA5F
BA64   A2 FF             LDX #&FF
BA66   86 4E             STX &4E
BA68   18                CLC
BA69   08                PHP
BA6A   06 4D             ASL &4D
BA6C   28                PLP                "("
BA6D   66 4D             ROR &4D            "fM"
BA6F   C9 2C             CMP #&2C
BA71   F0 E7             BEQ &BA5A
BA73   C9 3B             CMP #&3B
BA75   F0 E3             BEQ &BA5A
BA77   C6 0A             DEC &0A
BA79   A5 4D             LDA &4D
BA7B   48                PHA                "H"
BA7C   A5 4E             LDA &4E
BA7E   48                PHA                "H"
BA7F   20 82 95          JSR .L205
BA82   F0 BB             BEQ &BA3F
BA84   68                PLA                "h"
BA85   85 4E             STA &4E
BA87   68                PLA                "h"
BA88   85 4D             STA &4D
BA8A   A5 1B             LDA &1B
BA8C   85 0A             STA &0A
BA8E   08                PHP
BA8F   24 4D             BIT &4D            "$M"
BA91   70 06             BVS &BA99
BA93   A5 4E             LDA &4E
BA95   C9 FF             CMP #&FF
BA97   D0 17             BNE &BAB0
BA99   24 4D             BIT &4D            "$M"
BA9B   10 05             BPL &BAA2
BA9D   A9 3F             LDA #&3F
BA9F   20 58 B5          JSR .L578
BAA2   20 FC BB          JSR &BBFC
BAA5   84 36             STY &36
BAA7   06 4D             ASL &4D
BAA9   18                CLC
BAAA   66 4D             ROR &4D            "fM"
BAAC   24 4D             BIT &4D            "$M"
BAAE   70 1D             BVS &BACD
BAB0   85 1B             STA &1B
BAB2   A9 00             LDA #&00
BAB4   85 19             STA &19
BAB6   A9 06             LDA #&06
BAB8   85 1A             STA &1A
BABA   20 AD AD          JSR &ADAD
BABD   20 8C 8A          JSR .L134
BAC0   C9 2C             CMP #&2C
BAC2   F0 06             BEQ &BACA
BAC4   C9 0D             CMP #&0D
BAC6   D0 F5             BNE &BABD
BAC8   A0 FE             LDY #&FE
BACA   C8                INY
BACB   84 4E             STY &4E
BACD   28                PLP                "("
BACE   B0 0C             BCS &BADC
BAD0   20 94 BD          JSR .L608
BAD3   20 34 AC          JSR &AC34
BAD6   20 B4 B4          JSR .L564
BAD9   4C 5A BA          JMP &BA5A
BADC   A9 00             LDA #&00
BADE   85 27             STA &27
BAE0   20 21 8C          JSR &8C21
BAE3   4C 5A BA          JMP &BA5A
BAE6   A0 00             LDY #&00
BAE8   84 3D             STY &3D
BAEA   A4 18             LDY &18
BAEC   84 3E             STY &3E
BAEE   20 97 8A          JSR .L136
BAF1   C6 0A             DEC &0A
BAF3   C9 3A             CMP #&3A
BAF5   F0 10             BEQ &BB07
BAF7   C9 0D             CMP #&0D
BAF9   F0 0C             BEQ &BB07
BAFB   C9 8B             CMP #&8B
BAFD   F0 08             BEQ &BB07
BAFF   20 9A B9          JSR &B99A
BB02   A0 01             LDY #&01
BB04   20 55 BE          JSR &BE55
BB07   20 57 98          JSR .L254
BB0A   A5 3D             LDA &3D
BB0C   85 1C             STA &1C
BB0E   A5 3E             LDA &3E
BB10   85 1D             STA &1D
BB12   4C 9B 8B          JMP .L151
BB15   20 97 8A          JSR .L136
BB18   C9 2C             CMP #&2C
BB1A   F0 03             BEQ &BB1F
BB1C   4C 96 8B          JMP .L150
BB1F   20 82 95          JSR .L205
BB22   F0 F1             BEQ &BB15
BB24   B0 0C             BCS &BB32
BB26   20 50 BB          JSR &BB50
BB29   20 94 BD          JSR .L608
BB2C   20 B1 B4          JSR &B4B1
BB2F   4C 40 BB          JMP &BB40
BB32   20 50 BB          JSR &BB50
BB35   20 94 BD          JSR .L608
BB38   20 AD AD          JSR &ADAD
BB3B   85 27             STA &27
BB3D   20 1E 8C          JSR .L160
BB40   18                CLC
BB41   A5 1B             LDA &1B
BB43   65 19             ADC &19
BB45   85 1C             STA &1C
BB47   A5 1A             LDA &1A
BB49   69 00             ADC #&00
BB4B   85 1D             STA &1D
BB4D   4C 15 BB          JMP &BB15
BB50   A5 1B             LDA &1B
BB52   85 0A             STA &0A
BB54   A5 1C             LDA &1C
BB56   85 19             STA &19
BB58   A5 1D             LDA &1D
BB5A   85 1A             STA &1A
BB5C   A0 00             LDY #&00
BB5E   84 1B             STY &1B
BB60   20 8C 8A          JSR .L134
BB63   C9 2C             CMP #&2C
BB65   F0 49             BEQ &BBB0
BB67   C9 DC             CMP #&DC
BB69   F0 45             BEQ &BBB0
BB6B   C9 0D             CMP #&0D
BB6D   F0 0B             BEQ &BB7A
BB6F   20 8C 8A          JSR .L134
BB72   C9 2C             CMP #&2C
BB74   F0 3A             BEQ &BBB0
BB76   C9 0D             CMP #&0D
BB78   D0 F5             BNE &BB6F
BB7A   A4 1B             LDY &1B
BB7C   B1 19             LDA (&19),Y
BB7E   30 1C             BMI &BB9C
BB80   C8                INY
BB81   C8                INY
BB82   B1 19             LDA (&19),Y
BB84   AA                TAX
BB85   C8                INY
BB86   B1 19             LDA (&19),Y
BB88   C9 20             CMP #&20
BB8A   F0 F9             BEQ &BB85
BB8C   C9 DC             CMP #&DC
BB8E   F0 1D             BEQ &BBAD
BB90   8A                TXA
BB91   18                CLC
BB92   65 19             ADC &19
BB94   85 19             STA &19
BB96   90 E2             BCC &BB7A
BB98   E6 1A             INC &1A
BB9A   B0 DE             BCS &BB7A
BB9C   00                BRK
BB9D   2A                ROL A              "*"
BB9E   4F                                   "O"
BB9F   75 74             ADC &74,X          "ut"
BBA1   20 6F 66          JSR &666F          " of"
BBA4   20 DC 00          JSR &00DC
BBA7   2B                                   "+"
BBA8   4E 6F 20          LSR &206F          "No "
BBAB   F5 00             SBC &00,X
BBAD   C8                INY
BBAE   84 1B             STY &1B
BBB0   60                RTS                "`"
BBB1   20 1D 9B          JSR .L297
BBB4   20 4C 98          JSR .L253
BBB7   20 EE 92          JSR &92EE
BBBA   A6 24             LDX &24
BBBC   F0 E8             BEQ &BBA6
BBBE   A5 2A             LDA &2A
BBC0   05 2B             ORA &2B
BBC2   05 2C             ORA &2C
BBC4   05 2D             ORA &2D
BBC6   F0 05             BEQ &BBCD
BBC8   C6 24             DEC &24
BBCA   4C 9B 8B          JMP .L151
BBCD   BC A3 05          LDY &05A3,X
BBD0   BD B7 05          LDA &05B7,X
BBD3   4C DD B8          JMP &B8DD
BBD6   00                BRK
BBD7   2C 54 6F          BIT &6F54          ",To"
BBDA   6F                                   "o"
BBDB   20 6D 61          JSR &616D          " ma"
BBDE   6E 79 20          ROR &2079          "ny "
BBE1   F5 73             SBC &73,X
BBE3   00                BRK
BBE4   A6 24             LDX &24
BBE6   E0 14             CPX #&14
BBE8   B0 EC             BCS &BBD6
BBEA   20 6D 98          JSR .L258
BBED   A5 0B             LDA &0B
BBEF   9D A4 05          STA &05A4,X
BBF2   A5 0C             LDA &0C
BBF4   9D B8 05          STA &05B8,X
BBF7   E6 24             INC &24
BBF9   4C A3 8B          JMP .L152
BBFC   A0 00             LDY #&00
BBFE   A9 06             LDA #&06
BC00   D0 07             BNE &BC09
BC02   20 58 B5   .L583  JSR .L578
BC05   A0 00             LDY #&00
BC07   A9 07             LDA #&07
BC09   84 37             STY &37
BC0B   85 38             STA &38
BC0D   A9 EE             LDA #&EE
BC0F   85 39             STA &39
BC11   A9 20             LDA #&20
BC13   85 3A             STA &3A
BC15   A0 FF             LDY #&FF
BC17   84 3B             STY &3B
BC19   C8                INY
BC1A   A2 37             LDX #&37
BC1C   98                TYA
BC1D   20 F1 FF          JSR .L641
BC20   90 06             BCC .L585
BC22   4C 38 98          JMP .L250
BC25   20 E7 FF   .L584  JSR .L639
BC28   A9 00      .L585  LDA #&00
BC2A   85 1E             STA &1E
BC2C   60                RTS
BC2D   20 70 99   .L586  JSR .L275
BC30   B0 4E             BCS .L593
BC32   A5 3D             LDA &3D
BC34   E9 02             SBC #&02
BC36   85 37             STA &37
BC38   85 3D             STA &3D
BC3A   85 12             STA &12
BC3C   A5 3E             LDA &3E
BC3E   E9 00             SBC #&00
BC40   85 38             STA &38
BC42   85 13             STA &13
BC44   85 3E             STA &3E
BC46   A0 03             LDY #&03
BC48   B1 37             LDA (&37),Y
BC4A   18                CLC
BC4B   65 37             ADC &37
BC4D   85 37             STA &37
BC4F   90 02             BCC .L587
BC51   E6 38             INC &38
BC53   A0 00      .L587  LDY #&00
BC55   B1 37      .L588  LDA (&37),Y
BC57   91 12             STA (&12),Y
BC59   C9 0D             CMP #&0D
BC5B   F0 09             BEQ .L590
BC5D   C8         .L589  INY
BC5E   D0 F5             BNE .L588
BC60   E6 38             INC &38
BC62   E6 13             INC &13
BC64   D0 EF             BNE .L588
BC66   C8         .L590  INY
BC67   D0 04             BNE .L591
BC69   E6 38             INC &38
BC6B   E6 13             INC &13
BC6D   B1 37      .L591  LDA (&37),Y
BC6F   91 12             STA (&12),Y
BC71   30 09             BMI .L592
BC73   20 81 BC          JSR .L594
BC76   20 81 BC          JSR .L594
BC79   4C 5D BC          JMP .L589
BC7C   20 92 BE   .L592  JSR .L630
BC7F   18                CLC
BC80   60         .L593  RTS
BC81   C8         .L594  INY
BC82   D0 04             BNE .L595
BC84   E6 13             INC &13
BC86   E6 38             INC &38
BC88   B1 37      .L595  LDA (&37),Y
BC8A   91 12             STA (&12),Y
BC8C   60                RTS
BC8D   84 3B      .L596  STY &3B
BC8F   20 2D BC          JSR .L586
BC92   A0 07             LDY #&07
BC94   84 3C             STY &3C
BC96   A0 00             LDY #&00
BC98   A9 0D             LDA #&0D
BC9A   D1 3B             CMP (&3B),Y
BC9C   F0 72             BEQ .L602
BC9E   C8         .L597  INY
BC9F   D1 3B             CMP (&3B),Y
BCA1   D0 FB             BNE .L597
BCA3   C8                INY
BCA4   C8                INY
BCA5   C8                INY
BCA6   84 3F             STY &3F
BCA8   E6 3F             INC &3F
BCAA   A5 12             LDA &12
BCAC   85 39             STA &39
BCAE   A5 13             LDA &13
BCB0   85 3A             STA &3A
BCB2   20 92 BE          JSR .L630
BCB5   85 37             STA &37
BCB7   A5 13             LDA &13
BCB9   85 38             STA &38
BCBB   88                DEY
BCBC   A5 06             LDA &06
BCBE   C5 12             CMP &12
BCC0   A5 07             LDA &07
BCC2   E5 13             SBC &13
BCC4   B0 10             BCS .L598
BCC6   20 6F BE          JSR .L627
BCC9   20 20 BD          JSR .L603
BCCC   00                BRK
BCCD   00                BRK
BCCE   86 20             STX &20
BCD0   73                                   "s"
BCD1   70 61             BVS &BD34          "pa"
BCD3   63                                   "c"
BCD4   65 00             ADC &00
BCD6   B1 39      .L598  LDA (&39),Y
BCD8   91 37             STA (&37),Y
BCDA   98                TYA
BCDB   D0 04             BNE .L599
BCDD   C6 3A             DEC &3A
BCDF   C6 38             DEC &38
BCE1   88         .L599  DEY
BCE2   98                TYA
BCE3   65 39             ADC &39
BCE5   A6 3A             LDX &3A
BCE7   90 01             BCC .L600
BCE9   E8                INX
BCEA   C5 3D      .L600  CMP &3D
BCEC   8A                TXA
BCED   E5 3E             SBC &3E
BCEF   B0 E5             BCS .L598
BCF1   38                SEC
BCF2   A0 01             LDY #&01
BCF4   A5 2B             LDA &2B
BCF6   91 3D             STA (&3D),Y
BCF8   C8                INY
BCF9   A5 2A             LDA &2A
BCFB   91 3D             STA (&3D),Y
BCFD   C8                INY
BCFE   A5 3F             LDA &3F
BD00   91 3D             STA (&3D),Y
BD02   20 56 BE          JSR .L625
BD05   A0 FF             LDY #&FF
BD07   C8         .L601  INY
BD08   B1 3B             LDA (&3B),Y
BD0A   91 3D             STA (&3D),Y
BD0C   C9 0D             CMP #&0D
BD0E   D0 F7             BNE .L601
BD10   60         .L602  RTS
BD11   20 57 98          JSR .L254
BD14   20 20 BD          JSR .L603
BD17   A5 18             LDA &18
BD19   85 0C             STA &0C
BD1B   86 0B             STX &0B
BD1D   4C 0B 8B          JMP &8B0B
BD20   A5 12      .L603  LDA &12
BD22   85 00             STA &00
BD24   85 02             STA &02
BD26   A5 13             LDA &13
BD28   85 01             STA &01
BD2A   85 03             STA &03
BD2C   20 3A BD          JSR .L605
BD2F   A2 80             LDX #&80
BD31   A9 00             LDA #&00
BD33   9D 7F 04   .L604  STA &047F,X
BD36   CA                DEX
BD37   D0 FA             BNE .L604
BD39   60                RTS
BD3A   A5 18      .L605  LDA &18
BD3C   85 1D             STA &1D
BD3E   A5 06             LDA &06
BD40   85 04             STA &04
BD42   A5 07             LDA &07
BD44   85 05             STA &05
BD46   A9 00             LDA #&00
BD48   85 24             STA &24
BD4A   85 26             STA &26
BD4C   85 25             STA &25
BD4E   85 1C             STA &1C
BD50   60                RTS
BD51   A5 04      .L606  LDA &04
BD53   38                SEC
BD54   E9 05             SBC #&05
BD56   20 2E BE          JSR .L620
BD59   A0 00             LDY #&00
BD5B   A5 30             LDA &30
BD5D   91 04             STA (&04),Y
BD5F   C8                INY
BD60   A5 2E             LDA &2E
BD62   29 80             AND #&80
BD64   85 2E             STA &2E
BD66   A5 31             LDA &31
BD68   29 7F             AND #&7F
BD6A   05 2E             ORA &2E
BD6C   91 04             STA (&04),Y
BD6E   C8                INY
BD6F   A5 32             LDA &32
BD71   91 04             STA (&04),Y
BD73   C8                INY
BD74   A5 33             LDA &33
BD76   91 04             STA (&04),Y
BD78   C8                INY
BD79   A5 34             LDA &34
BD7B   91 04             STA (&04),Y
BD7D   60                RTS
BD7E   A5 04      .L607  LDA &04
BD80   18                CLC
BD81   85 4B             STA &4B
BD83   69 05             ADC #&05
BD85   85 04             STA &04
BD87   A5 05             LDA &05
BD89   85 4C             STA &4C
BD8B   69 00             ADC #&00
BD8D   85 05             STA &05
BD8F   60                RTS
BD90   F0 20             BEQ .L609
BD92   30 BD             BMI .L606
BD94   A5 04      .L608  LDA &04
BD96   38                SEC
BD97   E9 04             SBC #&04
BD99   20 2E BE          JSR .L620
BD9C   A0 03             LDY #&03
BD9E   A5 2D             LDA &2D
BDA0   91 04             STA (&04),Y
BDA2   88                DEY
BDA3   A5 2C             LDA &2C
BDA5   91 04             STA (&04),Y
BDA7   88                DEY
BDA8   A5 2B             LDA &2B
BDAA   91 04             STA (&04),Y
BDAC   88                DEY
BDAD   A5 2A             LDA &2A
BDAF   91 04             STA (&04),Y
BDB1   60                RTS
BDB2   18         .L609  CLC
BDB3   A5 04             LDA &04
BDB5   E5 36             SBC &36
BDB7   20 2E BE          JSR .L620
BDBA   A4 36             LDY &36
BDBC   F0 08             BEQ .L611
BDBE   B9 FF 05   .L610  LDA &05FF,Y
BDC1   91 04             STA (&04),Y
BDC3   88                DEY
BDC4   D0 F8             BNE .L610
BDC6   A5 36      .L611  LDA &36
BDC8   91 04             STA (&04),Y
BDCA   60                RTS
BDCB   A0 00      .L612  LDY #&00
BDCD   B1 04             LDA (&04),Y
BDCF   85 36             STA &36
BDD1   F0 09             BEQ .L614
BDD3   A8                TAY
BDD4   B1 04      .L613  LDA (&04),Y
BDD6   99 FF 05          STA &05FF,Y
BDD9   88                DEY
BDDA   D0 F8             BNE .L613
BDDC   A0 00      .L614  LDY #&00
BDDE   B1 04             LDA (&04),Y
BDE0   38                SEC
BDE1   65 04             ADC &04
BDE3   85 04             STA &04
BDE5   90 23             BCC .L617
BDE7   E6 05             INC &05
BDE9   60                RTS
BDEA   A0 03      .L615  LDY #&03
BDEC   B1 04             LDA (&04),Y
BDEE   85 2D             STA &2D
BDF0   88                DEY
BDF1   B1 04             LDA (&04),Y
BDF3   85 2C             STA &2C
BDF5   88                DEY
BDF6   B1 04             LDA (&04),Y
BDF8   85 2B             STA &2B
BDFA   88                DEY
BDFB   B1 04             LDA (&04),Y
BDFD   85 2A             STA &2A
BDFF   18         .L616  CLC
BE00   A5 04             LDA &04
BE02   69 04             ADC #&04
BE04   85 04             STA &04
BE06   90 02             BCC .L617
BE08   E6 05             INC &05
BE0A   60         .L617  RTS
BE0B   A2 37      .L618  LDX #&37
BE0D   A0 03      .L619  LDY #&03
BE0F   B1 04             LDA (&04),Y
BE11   95 03             STA &03,X
BE13   88                DEY
BE14   B1 04             LDA (&04),Y
BE16   95 02             STA &02,X
BE18   88                DEY
BE19   B1 04             LDA (&04),Y
BE1B   95 01             STA &01,X
BE1D   88                DEY
BE1E   B1 04             LDA (&04),Y
BE20   95 00             STA &00,X
BE22   18                CLC
BE23   A5 04             LDA &04
BE25   69 04             ADC #&04
BE27   85 04             STA &04
BE29   90 DF             BCC .L617
BE2B   E6 05             INC &05
BE2D   60                RTS
BE2E   85 04      .L620  STA &04
BE30   B0 02             BCS .L621
BE32   C6 05             DEC &05
BE34   A4 05      .L621  LDY &05
BE36   C4 03             CPY &03
BE38   90 07             BCC .L623
BE3A   D0 04             BNE .L622
BE3C   C5 02             CMP &02
BE3E   90 01             BCC .L623
BE40   60         .L622  RTS
BE41   4C B7 8C   .L623  JMP .L169
BE44   A5 2A      .L624  LDA &2A
BE46   95 00             STA &00,X
BE48   A5 2B             LDA &2B
BE4A   95 01             STA &01,X
BE4C   A5 2C             LDA &2C
BE4E   95 02             STA &02,X
BE50   A5 2D             LDA &2D
BE52   95 03             STA &03,X
BE54   60                RTS
BE55   18                CLC
BE56   98         .L625  TYA
BE57   65 3D             ADC &3D
BE59   85 3D             STA &3D
BE5B   90 02             BCC .L626
BE5D   E6 3E             INC &3E
BE5F   A0 01      .L626  LDY #&01
BE61   60                RTS
BE62   20 DD BE          JSR &BEDD
BE65   A8                TAY
BE66   A9 FF             LDA #&FF
BE68   84 3D             STY &3D
BE6A   A2 37             LDX #&37
BE6C   20 DD FF          JSR &FFDD
BE6F   A5 18      .L627  LDA &18
BE71   85 13             STA &13
BE73   A0 00             LDY #&00
BE75   84 12             STY &12
BE77   C8                INY
BE78   88         .L628  DEY
BE79   B1 12             LDA (&12),Y
BE7B   C9 0D             CMP #&0D
BE7D   D0 1F             BNE .L633
BE7F   C8                INY
BE80   B1 12             LDA (&12),Y
BE82   30 0C             BMI .L629
BE84   A0 03             LDY #&03
BE86   B1 12             LDA (&12),Y
BE88   F0 14             BEQ .L633
BE8A   18                CLC
BE8B   20 93 BE          JSR .L631
BE8E   D0 E8             BNE .L628
BE90   C8         .L629  INY
BE91   18                CLC
BE92   98         .L630  TYA
BE93   65 12      .L631  ADC &12
BE95   85 12             STA &12
BE97   90 02             BCC .L632
BE99   E6 13             INC &13
BE9B   A0 01      .L632  LDY #&01
BE9D   60                RTS
BE9E   20 CF BF   .L633  JSR .L635
BEA1   0D 42 61          ORA &6142
BEA4   64                ???
BEA5   20 70 72          JSR &7270          " pr"
BEA8   6F                                   "o"
BEA9   67                                   "g"
BEAA   72                                   "r"
BEAB   61 6D             ADC (&6D,X)        "am"
BEAD   0D EA 4C          ORA &4CEA
BEB0   F6 8A             INC &8A,X
BEB2   A9 00             LDA #&00
BEB4   85 37             STA &37
BEB6   A9 06             LDA #&06
BEB8   85 38             STA &38
BEBA   A4 36      .L634  LDY &36
BEBC   A9 0D             LDA #&0D
BEBE   99 00 06          STA &0600,Y
BEC1   60                RTS
BEC2   20 D2 BE          JSR &BED2
BEC5   A2 00             LDX #&00
BEC7   A0 06             LDY #&06
BEC9   20 F7 FF          JSR .L643
BECC   4C 9B 8B          JMP .L151
BECF   4C 0E 8C          JMP .L159
BED2   20 1D 9B          JSR .L297
BED5   D0 F8             BNE &BECF
BED7   20 B2 BE          JSR &BEB2
BEDA   4C 4C 98          JMP .L253
BEDD   20 D2 BE          JSR &BED2
BEE0   88                DEY
BEE1   84 39             STY &39
BEE3   A5 18             LDA &18
BEE5   85 3A             STA &3A
BEE7   A9 82             LDA #&82
BEE9   20 F4 FF          JSR .L642
BEEC   86 3B             STX &3B
BEEE   84 3C             STY &3C
BEF0   A9 00             LDA #&00
BEF2   60                RTS                "`"
BEF3   20 6F BE          JSR .L627
BEF6   A5 12             LDA &12
BEF8   85 45             STA &45
BEFA   A5 13             LDA &13
BEFC   85 46             STA &46
BEFE   A9 23             LDA #&23
BF00   85 3D             STA &3D
BF02   A9 80             LDA #&80
BF04   85 3E             STA &3E
BF06   A5 18             LDA &18
BF08   85 42             STA &42
BF0A   20 DD BE          JSR &BEDD
BF0D   86 3F             STX &3F
BF0F   84 40             STY &40
BF11   86 43             STX &43
BF13   84 44             STY &44
BF15   86 47             STX &47
BF17   84 48             STY &48
BF19   85 41             STA &41
BF1B   A8                TAY
BF1C   A2 37             LDX #&37
BF1E   20 DD FF          JSR &FFDD
BF21   4C 9B 8B          JMP .L151
BF24   20 62 BE          JSR &BE62
BF27   4C F3 8A          JMP .L138
BF2A   20 62 BE          JSR &BE62
BF2D   4C 14 BD          JMP &BD14
BF30   20 A9 BF          JSR &BFA9
BF33   48                PHA                "H"
BF34   20 13 98          JSR .L247
BF37   20 EE 92          JSR &92EE
BF3A   68                PLA                "h"
BF3B   A8                TAY
BF3C   A2 2A             LDX #&2A
BF3E   A9 01             LDA #&01
BF40   20 DA FF          JSR &FFDA
BF43   4C 9B 8B          JMP .L151
BF46   38                SEC                "8"
BF47   A9 00             LDA #&00
BF49   2A                ROL A              "*"
BF4A   2A                ROL A              "*"
BF4B   48                PHA                "H"
BF4C   20 B5 BF          JSR &BFB5
BF4F   A2 2A             LDX #&2A
BF51   68                PLA                "h"
BF52   20 DA FF          JSR &FFDA
BF55   A9 40             LDA #&40
BF57   60                RTS                "`"
BF58   20 A9 BF          JSR &BFA9
BF5B   48                PHA                "H"
BF5C   20 AE 8A          JSR &8AAE
BF5F   20 49 98          JSR .L252
BF62   20 EE 92          JSR &92EE
BF65   68                PLA                "h"
BF66   A8                TAY
BF67   A5 2A             LDA &2A
BF69   20 D4 FF          JSR &FFD4
BF6C   4C 9B 8B          JMP .L151
BF6F   20 B5 BF          JSR &BFB5
BF72   20 D7 FF          JSR &FFD7
BF75   4C D8 AE          JMP .L548
BF78   A9 40             LDA #&40
BF7A   D0 06             BNE &BF82
BF7C   A9 80             LDA #&80
BF7E   D0 02             BNE &BF82
BF80   A9 C0             LDA #&C0
BF82   48                PHA                "H"
BF83   20 EC AD          JSR .L530
BF86   D0 0E             BNE &BF96
BF88   20 BA BE          JSR .L634
BF8B   A2 00             LDX #&00
BF8D   A0 06             LDY #&06
BF8F   68                PLA                "h"
BF90   20 CE FF          JSR &FFCE
BF93   4C D8 AE          JMP .L548
BF96   4C 0E 8C          JMP .L159
BF99   20 A9 BF          JSR &BFA9
BF9C   20 52 98          JSR &9852
BF9F   A4 2A             LDY &2A
BFA1   A9 00             LDA #&00
BFA3   20 CE FF          JSR &FFCE
BFA6   4C 9B 8B          JMP .L151
BFA9   A5 0A             LDA &0A
BFAB   85 1B             STA &1B
BFAD   A5 0B             LDA &0B
BFAF   85 19             STA &19
BFB1   A5 0C             LDA &0C
BFB3   85 1A             STA &1A
BFB5   20 8C 8A          JSR .L134
BFB8   C9 23             CMP #&23
BFBA   D0 07             BNE &BFC3
BFBC   20 E3 92          JSR .L177
BFBF   A4 2A             LDY &2A
BFC1   98                TYA
BFC2   60                RTS                "`"
BFC3   00                BRK
BFC4   2D 4D 69          AND &694D          "-Mi"
BFC7   73                                   "s"
BFC8   73                                   "s"
BFC9   69 6E             ADC #&6E           "in"
BFCB   67                                   "g"
BFCC   20 23 00          JSR &0023
BFCF   68         .L635  PLA
BFD0   85 37             STA &37
BFD2   68                PLA
BFD3   85 38             STA &38
BFD5   A0 00             LDY #&00
BFD7   F0 03             BEQ .L637
BFD9   20 E3 FF   .L636  JSR .L638
BFDC   20 4B 89   .L637  JSR .L99
BFDF   10 F8             BPL .L636
BFE1   6C 37 00          JMP (&0037)
BFE4   20 57 98          JSR .L254
BFE7   20 25 BC          JSR .L584
BFEA   A0 01             LDY #&01
BFEC   B1 FD             LDA (&FD),Y
BFEE   F0 06             BEQ &BFF6
BFF0   20 0E B5          JSR .L569
BFF3   C8                INY
BFF4   D0 F6             BNE &BFEC
BFF6   4C 9B 8B          JMP .L151
BFF9   00                BRK
BFFA   52                                   "R"
BFFB   6F                                   "o"
BFFC   67                                   "g"
BFFD   65 72             ADC &72            "er"
BFFF   00                BRK
