**disassemble... (Mos,Spec {path = "roms/Os12.rom", loadA = C000, vectorExecA = [FFFA,FFFC,FFFE]})
C000   00                BRK
C001   00                BRK
C002   00                BRK
C003   00                BRK
C004   00                BRK
C005   00                BRK
C006   00                BRK
C007   00                BRK
C008   18                CLC
C009   18                CLC
C00A   18                CLC
C00B   18                CLC
C00C   18                CLC
C00D   00                BRK
C00E   18                CLC
C00F   00                BRK
C010   6C 6C 6C          JMP (&6C6C)        "lll"
C013   00                BRK
C014   00                BRK
C015   00                BRK
C016   00                BRK
C017   00                BRK
C018   36 36             ROL &36,X          "66"
C01A   7F
C01B   36 7F             ROL &7F,X
C01D   36 36             ROL &36,X          "66"
C01F   00                BRK
C020   0C
C021   3F                                   "?"
C022   68                PLA                "h"
C023   3E 0B 7E          ROL &7E0B,X
C026   18                CLC
C027   00                BRK
C028   60                RTS                "`"
C029   66 0C             ROR &0C
C02B   18                CLC
C02C   30 66             BMI &C094          "0f"
C02E   06 00             ASL &00
C030   38                SEC                "8"
C031   6C 6C 38          JMP (&386C)        "ll8"
C034   6D 66 3B          ADC &3B66          "mf;"
C037   00                BRK
C038   0C
C039   18                CLC
C03A   30 00             BMI &C03C
C03C   00                BRK
C03D   00                BRK
C03E   00                BRK
C03F   00                BRK
C040   0C
C041   18                CLC
C042   30 30             BMI &C074          "00"
C044   30 18             BMI &C05E
C046   0C
C047   00                BRK
C048   30 18             BMI &C062
C04A   0C
C04B   0C
C04C   0C
C04D   18                CLC
C04E   30 00             BMI &C050
C050   00                BRK
C051   18                CLC
C052   7E 3C 7E          ROR &7E3C,X        "~<~"
C055   18                CLC
C056   00                BRK
C057   00                BRK
C058   00                BRK
C059   18                CLC
C05A   18                CLC
C05B   7E 18 18          ROR &1818,X
C05E   00                BRK
C05F   00                BRK
C060   00                BRK
C061   00                BRK
C062   00                BRK
C063   00                BRK
C064   00                BRK
C065   18                CLC
C066   18                CLC
C067   30 00             BMI &C069
C069   00                BRK
C06A   00                BRK
C06B   7E 00 00          ROR &0000,X
C06E   00                BRK
C06F   00                BRK
C070   00                BRK
C071   00                BRK
C072   00                BRK
C073   00                BRK
C074   00                BRK
C075   18                CLC
C076   18                CLC
C077   00                BRK
C078   00                BRK
C079   06 0C             ASL &0C
C07B   18                CLC
C07C   30 60             BMI &C0DE          "0`"
C07E   00                BRK
C07F   00                BRK
C080   3C                                   "<"
C081   66 6E             ROR &6E            "fn"
C083   7E 76 66          ROR &6676,X        "~vf"
C086   3C                                   "<"
C087   00                BRK
C088   18                CLC
C089   38                SEC                "8"
C08A   18                CLC
C08B   18                CLC
C08C   18                CLC
C08D   18                CLC
C08E   7E 00 3C          ROR &3C00,X
C091   66 06             ROR &06
C093   0C
C094   18                CLC
C095   30 7E             BMI &C115          "0~"
C097   00                BRK
C098   3C                                   "<"
C099   66 06             ROR &06
C09B   1C
C09C   06 66             ASL &66
C09E   3C                                   "<"
C09F   00                BRK
C0A0   0C
C0A1   1C
C0A2   3C                                   "<"
C0A3   6C 7E 0C          JMP (&0C7E)
C0A6   0C
C0A7   00                BRK
C0A8   7E 60 7C          ROR &7C60,X        "~`|"
C0AB   06 06             ASL &06
C0AD   66 3C             ROR &3C            "f<"
C0AF   00                BRK
C0B0   1C
C0B1   30 60             BMI &C113          "0`"
C0B3   7C                                   "|"
C0B4   66 66             ROR &66            "ff"
C0B6   3C                                   "<"
C0B7   00                BRK
C0B8   7E 06 0C          ROR &0C06,X
C0BB   18                CLC
C0BC   30 30             BMI &C0EE          "00"
C0BE   30 00             BMI &C0C0
C0C0   3C                                   "<"
C0C1   66 66             ROR &66            "ff"
C0C3   3C                                   "<"
C0C4   66 66             ROR &66            "ff"
C0C6   3C                                   "<"
C0C7   00                BRK
C0C8   3C                                   "<"
C0C9   66 66             ROR &66            "ff"
C0CB   3E 06 0C          ROL &0C06,X
C0CE   38                SEC                "8"
C0CF   00                BRK
C0D0   00                BRK
C0D1   00                BRK
C0D2   18                CLC
C0D3   18                CLC
C0D4   00                BRK
C0D5   18                CLC
C0D6   18                CLC
C0D7   00                BRK
C0D8   00                BRK
C0D9   00                BRK
C0DA   18                CLC
C0DB   18                CLC
C0DC   00                BRK
C0DD   18                CLC
C0DE   18                CLC
C0DF   30 0C             BMI &C0ED
C0E1   18                CLC
C0E2   30 60             BMI &C144          "0`"
C0E4   30 18             BMI &C0FE
C0E6   0C
C0E7   00                BRK
C0E8   00                BRK
C0E9   00                BRK
C0EA   7E 00 7E          ROR &7E00,X
C0ED   00                BRK
C0EE   00                BRK
C0EF   00                BRK
C0F0   30 18             BMI &C10A
C0F2   0C
C0F3   06 0C             ASL &0C
C0F5   18                CLC
C0F6   30 00             BMI &C0F8
C0F8   3C                                   "<"
C0F9   66 0C             ROR &0C
C0FB   18                CLC
C0FC   18                CLC
C0FD   00                BRK
C0FE   18                CLC
C0FF   00                BRK
C100   3C                                   "<"
C101   66 6E             ROR &6E            "fn"
C103   6A                ROR A              "j"
C104   6E 60 3C          ROR &3C60          "n`<"
C107   00                BRK
C108   3C                                   "<"
C109   66 66             ROR &66            "ff"
C10B   7E 66 66          ROR &6666,X        "~ff"
C10E   66 00             ROR &00
C110   7C                                   "|"
C111   66 66             ROR &66            "ff"
C113   7C                                   "|"
C114   66 66             ROR &66            "ff"
C116   7C                                   "|"
C117   00                BRK
C118   3C                                   "<"
C119   66 60             ROR &60            "f`"
C11B   60                RTS                "`"
C11C   60                RTS                "`"
C11D   66 3C             ROR &3C            "f<"
C11F   00                BRK
C120   78                SEI                "x"
C121   6C 66 66          JMP (&6666)        "lff"
C124   66 6C             ROR &6C            "fl"
C126   78                SEI                "x"
C127   00                BRK
C128   7E 60 60          ROR &6060,X        "~``"
C12B   7C                                   "|"
C12C   60                RTS                "`"
C12D   60                RTS                "`"
C12E   7E 00 7E          ROR &7E00,X
C131   60                RTS                "`"
C132   60                RTS                "`"
C133   7C                                   "|"
C134   60                RTS                "`"
C135   60                RTS                "`"
C136   60                RTS                "`"
C137   00                BRK
C138   3C                                   "<"
C139   66 60             ROR &60            "f`"
C13B   6E 66 66          ROR &6666          "nff"
C13E   3C                                   "<"
C13F   00                BRK
C140   66 66             ROR &66            "ff"
C142   66 7E             ROR &7E            "f~"
C144   66 66             ROR &66            "ff"
C146   66 00             ROR &00
C148   7E 18 18          ROR &1818,X
C14B   18                CLC
C14C   18                CLC
C14D   18                CLC
C14E   7E 00 3E          ROR &3E00,X
C151   0C
C152   0C
C153   0C
C154   0C
C155   6C 38 00          JMP (&0038)
C158   66 6C             ROR &6C            "fl"
C15A   78                SEI                "x"
C15B   70 78             BVS &C1D5          "px"
C15D   6C 66 00          JMP (&0066)
C160   60                RTS                "`"
C161   60                RTS                "`"
C162   60                RTS                "`"
C163   60                RTS                "`"
C164   60                RTS                "`"
C165   60                RTS                "`"
C166   7E 00 63          ROR &6300,X
C169   77                                   "w"
C16A   7F
C16B   6B                                   "k"
C16C   6B                                   "k"
C16D   63                                   "c"
C16E   63                                   "c"
C16F   00                BRK
C170   66 66             ROR &66            "ff"
C172   76 7E             ROR &7E,X          "v~"
C174   6E 66 66          ROR &6666          "nff"
C177   00                BRK
C178   3C                                   "<"
C179   66 66             ROR &66            "ff"
C17B   66 66             ROR &66            "ff"
C17D   66 3C             ROR &3C            "f<"
C17F   00                BRK
C180   7C                                   "|"
C181   66 66             ROR &66            "ff"
C183   7C                                   "|"
C184   60                RTS                "`"
C185   60                RTS                "`"
C186   60                RTS                "`"
C187   00                BRK
C188   3C                                   "<"
C189   66 66             ROR &66            "ff"
C18B   66 6A             ROR &6A            "fj"
C18D   6C 36 00          JMP (&0036)
C190   7C                                   "|"
C191   66 66             ROR &66            "ff"
C193   7C                                   "|"
C194   6C 66 66          JMP (&6666)        "lff"
C197   00                BRK
C198   3C                                   "<"
C199   66 60             ROR &60            "f`"
C19B   3C                                   "<"
C19C   06 66             ASL &66
C19E   3C                                   "<"
C19F   00                BRK
C1A0   7E 18 18          ROR &1818,X
C1A3   18                CLC
C1A4   18                CLC
C1A5   18                CLC
C1A6   18                CLC
C1A7   00                BRK
C1A8   66 66             ROR &66            "ff"
C1AA   66 66             ROR &66            "ff"
C1AC   66 66             ROR &66            "ff"
C1AE   3C                                   "<"
C1AF   00                BRK
C1B0   66 66             ROR &66            "ff"
C1B2   66 66             ROR &66            "ff"
C1B4   66 3C             ROR &3C            "f<"
C1B6   18                CLC
C1B7   00                BRK
C1B8   63                                   "c"
C1B9   63                                   "c"
C1BA   6B                                   "k"
C1BB   6B                                   "k"
C1BC   7F
C1BD   77                                   "w"
C1BE   63                                   "c"
C1BF   00                BRK
C1C0   66 66             ROR &66            "ff"
C1C2   3C                                   "<"
C1C3   18                CLC
C1C4   3C                                   "<"
C1C5   66 66             ROR &66            "ff"
C1C7   00                BRK
C1C8   66 66             ROR &66            "ff"
C1CA   66 3C             ROR &3C            "f<"
C1CC   18                CLC
C1CD   18                CLC
C1CE   18                CLC
C1CF   00                BRK
C1D0   7E 06 0C          ROR &0C06,X
C1D3   18                CLC
C1D4   30 60             BMI &C236          "0`"
C1D6   7E 00 7C          ROR &7C00,X
C1D9   60                RTS                "`"
C1DA   60                RTS                "`"
C1DB   60                RTS                "`"
C1DC   60                RTS                "`"
C1DD   60                RTS                "`"
C1DE   7C                                   "|"
C1DF   00                BRK
C1E0   00                BRK
C1E1   60                RTS                "`"
C1E2   30 18             BMI &C1FC
C1E4   0C
C1E5   06 00             ASL &00
C1E7   00                BRK
C1E8   3E 06 06          ROL &0606,X
C1EB   06 06             ASL &06
C1ED   06 3E             ASL &3E
C1EF   00                BRK
C1F0   18                CLC
C1F1   3C                                   "<"
C1F2   66 42             ROR &42            "fB"
C1F4   00                BRK
C1F5   00                BRK
C1F6   00                BRK
C1F7   00                BRK
C1F8   00                BRK
C1F9   00                BRK
C1FA   00                BRK
C1FB   00                BRK
C1FC   00                BRK
C1FD   00                BRK
C1FE   00                BRK
C1FF   FF
C200   1C
C201   36 30             ROL &30,X          "60"
C203   7C                                   "|"
C204   30 30             BMI &C236          "00"
C206   7E 00 00          ROR &0000,X
C209   00                BRK
C20A   3C                                   "<"
C20B   06 3E             ASL &3E
C20D   66 3E             ROR &3E            "f>"
C20F   00                BRK
C210   60                RTS                "`"
C211   60                RTS                "`"
C212   7C                                   "|"
C213   66 66             ROR &66            "ff"
C215   66 7C             ROR &7C            "f|"
C217   00                BRK
C218   00                BRK
C219   00                BRK
C21A   3C                                   "<"
C21B   66 60             ROR &60            "f`"
C21D   66 3C             ROR &3C            "f<"
C21F   00                BRK
C220   06 06             ASL &06
C222   3E 66 66          ROL &6666,X        ">ff"
C225   66 3E             ROR &3E            "f>"
C227   00                BRK
C228   00                BRK
C229   00                BRK
C22A   3C                                   "<"
C22B   66 7E             ROR &7E            "f~"
C22D   60                RTS                "`"
C22E   3C                                   "<"
C22F   00                BRK
C230   1C
C231   30 30             BMI &C263          "00"
C233   7C                                   "|"
C234   30 30             BMI &C266          "00"
C236   30 00             BMI &C238
C238   00                BRK
C239   00                BRK
C23A   3E 66 66          ROL &6666,X        ">ff"
C23D   3E 06 3C          ROL &3C06,X
C240   60                RTS                "`"
C241   60                RTS                "`"
C242   7C                                   "|"
C243   66 66             ROR &66            "ff"
C245   66 66             ROR &66            "ff"
C247   00                BRK
C248   18                CLC
C249   00                BRK
C24A   38                SEC                "8"
C24B   18                CLC
C24C   18                CLC
C24D   18                CLC
C24E   3C                                   "<"
C24F   00                BRK
C250   18                CLC
C251   00                BRK
C252   38                SEC                "8"
C253   18                CLC
C254   18                CLC
C255   18                CLC
C256   18                CLC
C257   70 60             BVS &C2B9          "p`"
C259   60                RTS                "`"
C25A   66 6C             ROR &6C            "fl"
C25C   78                SEI                "x"
C25D   6C 66 00          JMP (&0066)
C260   38                SEC                "8"
C261   18                CLC
C262   18                CLC
C263   18                CLC
C264   18                CLC
C265   18                CLC
C266   3C                                   "<"
C267   00                BRK
C268   00                BRK
C269   00                BRK
C26A   36 7F             ROL &7F,X
C26C   6B                                   "k"
C26D   6B                                   "k"
C26E   63                                   "c"
C26F   00                BRK
C270   00                BRK
C271   00                BRK
C272   7C                                   "|"
C273   66 66             ROR &66            "ff"
C275   66 66             ROR &66            "ff"
C277   00                BRK
C278   00                BRK
C279   00                BRK
C27A   3C                                   "<"
C27B   66 66             ROR &66            "ff"
C27D   66 3C             ROR &3C            "f<"
C27F   00                BRK
C280   00                BRK
C281   00                BRK
C282   7C                                   "|"
C283   66 66             ROR &66            "ff"
C285   7C                                   "|"
C286   60                RTS                "`"
C287   60                RTS                "`"
C288   00                BRK
C289   00                BRK
C28A   3E 66 66          ROL &6666,X        ">ff"
C28D   3E 06 07          ROL &0706,X
C290   00                BRK
C291   00                BRK
C292   6C 76 60          JMP (&6076)        "lv`"
C295   60                RTS                "`"
C296   60                RTS                "`"
C297   00                BRK
C298   00                BRK
C299   00                BRK
C29A   3E 60 3C          ROL &3C60,X        ">`<"
C29D   06 7C             ASL &7C
C29F   00                BRK
C2A0   30 30             BMI &C2D2          "00"
C2A2   7C                                   "|"
C2A3   30 30             BMI &C2D5          "00"
C2A5   30 1C             BMI &C2C3
C2A7   00                BRK
C2A8   00                BRK
C2A9   00                BRK
C2AA   66 66             ROR &66            "ff"
C2AC   66 66             ROR &66            "ff"
C2AE   3E 00 00          ROL &0000,X
C2B1   00                BRK
C2B2   66 66             ROR &66            "ff"
C2B4   66 3C             ROR &3C            "f<"
C2B6   18                CLC
C2B7   00                BRK
C2B8   00                BRK
C2B9   00                BRK
C2BA   63                                   "c"
C2BB   6B                                   "k"
C2BC   6B                                   "k"
C2BD   7F
C2BE   36 00             ROL &00,X
C2C0   00                BRK
C2C1   00                BRK
C2C2   66 3C             ROR &3C            "f<"
C2C4   18                CLC
C2C5   3C                                   "<"
C2C6   66 00             ROR &00
C2C8   00                BRK
C2C9   00                BRK
C2CA   66 66             ROR &66            "ff"
C2CC   66 3E             ROR &3E            "f>"
C2CE   06 3C             ASL &3C
C2D0   00                BRK
C2D1   00                BRK
C2D2   7E 0C 18          ROR &180C,X
C2D5   30 7E             BMI &C355          "0~"
C2D7   00                BRK
C2D8   0C
C2D9   18                CLC
C2DA   18                CLC
C2DB   70 18             BVS &C2F5
C2DD   18                CLC
C2DE   0C
C2DF   00                BRK
C2E0   18                CLC
C2E1   18                CLC
C2E2   18                CLC
C2E3   00                BRK
C2E4   18                CLC
C2E5   18                CLC
C2E6   18                CLC
C2E7   00                BRK
C2E8   30 18             BMI &C302
C2EA   18                CLC
C2EB   0E 18 18          ASL &1818
C2EE   30 00             BMI &C2F0
C2F0   31 6B             AND (&6B),Y        "1k"
C2F2   46 00             LSR &00
C2F4   00                BRK
C2F5   00                BRK
C2F6   00                BRK
C2F7   00                BRK
C2F8   FF
C2F9   FF
C2FA   FF
C2FB   FF
C2FC   FF
C2FD   FF
C2FE   FF
C2FF   FF
C300   4C 1D CB   .L01   JMP .L38
C303   0D 42 42          ORA &4242
C306   43                                   "C"
C307   20 43 6F          JSR &6F43          " Co"
C30A   6D 70 75          ADC &7570          "mpu"
C30D   74                                   "t"
C30E   65 72             ADC &72            "er"
C310   20 00 31          JSR &3100
C313   36 4B             ROL &4B,X          "6K"
C315   07
C316   00                BRK
C317   33                                   "3"
C318   32                                   "2"
C319   4B                                   "K"
C31A   07
C31B   00                BRK
C31C   08                PHP
C31D   0D 0D 00          ORA &000D
C320   11 22             ORA (&22),Y
C322   33                                   "3"
C323   44                                   "D"
C324   55 66             EOR &66,X          "Uf"
C326   77                                   "w"
C327   88                DEY
C328   99 AA BB          STA &BBAA,Y
C32B   CC DD EE          CPY &EEDD
C32E   FF
C32F   00                BRK
C330   55 AA             EOR &AA,X
C332   FF
C333   11 3B             ORA (&3B),Y
C335   96 A1             STX &A1,Y
C337   AD B9 11          LDA &11B9
C33A   6F                                   "o"
C33B   C5 64             CMP &64
C33D   F0 5B             BEQ &C39A
C33F   59 AF 8D          EOR &8DAF,Y
C342   A6 C0             LDX &C0
C344   F9 FD 92          SBC &92FD,Y
C347   39 9B EB          AND &EB9B,Y
C34A   F1 39             SBC (&39),Y
C34C   8C BD 11          STY &11BD
C34F   FA
C350   A2 79             LDX #&79
C352   87
C353   AC C5 2F          LDY &2FC5
C356   C5 C5             CMP &C5
C358   C5 C5             CMP &C5
C35A   C5 E8             CMP &E8
C35C   C5 C6             CMP &C6
C35E   C6 C6             DEC &C6
C360   C7
C361   C7
C362   C5 C5             CMP &C5
C364   C7
C365   4F                                   "O"
C366   4E 5B C8          LSR &C85B
C369   C5 5F             CMP &5F
C36B   57                                   "W"
C36C   78                SEI                "x"
C36D   6B                                   "k"
C36E   C9 C5             CMP #&C5
C370   3C                                   "<"
C371   7C                                   "|"
C372   C7
C373   4E CA 00          LSR &00CA
C376   00                BRK
C377   02
C378   80
C379   05 00             ORA &00
C37B   07
C37C   80
C37D   0A                ASL A
C37E   00                BRK
C37F   0C
C380   80
C381   0F
C382   00                BRK
C383   11 80             ORA (&80),Y
C385   14
C386   00                BRK
C387   16 80             ASL &80,X
C389   19 00 1B          ORA &1B00,Y
C38C   80
C38D   1E 00 20          ASL &2000,X
C390   80
C391   23                                   "#"
C392   00                BRK
C393   25 80             AND &80
C395   28                PLP                "("
C396   00                BRK
C397   2A                ROL A              "*"
C398   80
C399   2D 00 2F          AND &2F00
C39C   80
C39D   32                                   "2"
C39E   00                BRK
C39F   34                                   "4"
C3A0   80
C3A1   37                                   "7"
C3A2   00                BRK
C3A3   39 80 3C          AND &3C80,Y
C3A6   00                BRK
C3A7   3E 80 41          ROL &4180,X
C3AA   00                BRK
C3AB   43                                   "C"
C3AC   80
C3AD   46 00             LSR &00
C3AF   48                PHA                "H"
C3B0   80
C3B1   4B                                   "K"
C3B2   00                BRK
C3B3   4D 80 00          EOR &0080
C3B6   00                BRK
C3B7   00                BRK
C3B8   28                PLP                "("
C3B9   00                BRK
C3BA   50 00             BVC &C3BC
C3BC   78                SEI                "x"
C3BD   00                BRK
C3BE   A0 00             LDY #&00
C3C0   C8                INY
C3C1   00                BRK
C3C2   F0 01             BEQ &C3C5
C3C4   18                CLC
C3C5   01 40             ORA (&40,X)
C3C7   01 68             ORA (&68,X)
C3C9   01 90             ORA (&90,X)
C3CB   01 B8             ORA (&B8,X)
C3CD   01 E0             ORA (&E0,X)
C3CF   02
C3D0   08                PHP
C3D1   02
C3D2   30 02             BMI &C3D6
C3D4   58                CLI                "X"
C3D5   02
C3D6   80
C3D7   02
C3D8   A8                TAY
C3D9   02
C3DA   D0 02             BNE &C3DE
C3DC   F8                SED
C3DD   03
C3DE   20 03 48          JSR &4803
C3E1   03
C3E2   70 03             BVS &C3E7
C3E4   98                TYA
C3E5   03
C3E6   C0 1F             CPY #&1F
C3E8   1F
C3E9   1F
C3EA   18                CLC
C3EB   1F
C3EC   1F
C3ED   18                CLC
C3EE   18                CLC
C3EF   4F                                   "O"
C3F0   27                                   "'"
C3F1   13
C3F2   4F                                   "O"
C3F3   27                                   "'"
C3F4   13
C3F5   27                                   "'"
C3F6   27                                   "'"
C3F7   9C
C3F8   D8                CLD
C3F9   F4
C3FA   9C
C3FB   88                DEY
C3FC   C4 88             CPY &88
C3FE   4B                                   "K"
C3FF   08                PHP
C400   10 20             BPL &C422
C402   08                PHP
C403   08                PHP
C404   10 08             BPL &C40E
C406   01 AA             ORA (&AA,X)
C408   55 88             EOR &88,X
C40A   44                                   "D"
C40B   22                                   "\""
C40C   11 80             ORA (&80),Y
C40E   40                RTI                "@"
C40F   20 10 08          JSR &0810
C412   04
C413   02
C414   01 03             ORA (&03,X)
C416   0F
C417   01 01             ORA (&01,X)
C419   03
C41A   01 00             ORA (&00,X)
C41C   FF
C41D   00                BRK
C41E   00                BRK
C41F   FF
C420   FF
C421   FF
C422   FF
C423   00                BRK
C424   00                BRK
C425   FF
C426   00                BRK
C427   0F
C428   F0 FF             BEQ &C429
C42A   00                BRK
C42B   03
C42C   0C
C42D   0F
C42E   30 33             BMI &C463          "03"
C430   3C                                   "<"
C431   3F                                   "?"
C432   C0 C3             CPY #&C3
C434   CC CF F0          CPY &F0CF
C437   F3
C438   FC
C439   FF
C43A   07
C43B   03
C43C   01 00             ORA (&00,X)
C43E   07
C43F   03
C440   00                BRK
C441   00                BRK
C442   00                BRK
C443   01 02             ORA (&02,X)
C445   02
C446   03
C447   04
C448   00                BRK
C449   06 02             ASL &02
C44B   0D 05 0D          ORA &0D05
C44E   05 04             ORA &04
C450   04
C451   0C
C452   0C
C453   04
C454   02
C455   32                                   "2"
C456   7A                                   "z"
C457   92
C458   E6 50             INC &50
C45A   40                RTI                "@"
C45B   28                PLP                "("
C45C   20 04 30          JSR &3004
C45F   40                RTI                "@"
C460   58                CLI                "X"
C461   60                RTS                "`"
C462   7C                                   "|"
C463   28                PLP                "("
C464   40                RTI                "@"
C465   80
C466   B5 75             LDA &75,X
C468   75 0B             ADC &0B,X
C46A   17
C46B   23                                   "#"
C46C   2F                                   "/"
C46D   3B                                   ";"
C46E   7F
C46F   50 62             BVC &C4D3          "Pb"
C471   28                PLP                "("
C472   26 00             ROL &00
C474   20 22 01          JSR &0122
C477   07
C478   67                                   "g"
C479   08                PHP
C47A   7F
C47B   50 62             BVC &C4DF          "Pb"
C47D   28                PLP                "("
C47E   1E 02 19          ASL &1902,X
C481   1B
C482   01 09             ORA (&09,X)
C484   67                                   "g"
C485   09 3F             ORA #&3F
C487   28                PLP                "("
C488   31 24             AND (&24),Y        "1$"
C48A   26 00             ROL &00
C48C   20 22 01          JSR &0122
C48F   07
C490   67                                   "g"
C491   08                PHP
C492   3F                                   "?"
C493   28                PLP                "("
C494   31 24             AND (&24),Y        "1$"
C496   1E 02 19          ASL &1902,X
C499   1B
C49A   01 09             ORA (&09,X)
C49C   67                                   "g"
C49D   09 3F             ORA #&3F
C49F   28                PLP                "("
C4A0   33                                   "3"
C4A1   24 1E             BIT &1E
C4A3   02
C4A4   19 1B 93          ORA &931B,Y
C4A7   12
C4A8   72                                   "r"
C4A9   13
C4AA   86 D3             STX &D3
C4AC   7E D3 6A          ROR &6AD3,X
C4AF   74                                   "t"
C4B0   42                                   "B"
C4B1   4B                                   "K"
C4B2   D3
C4B3   D3
C4B4   D3
C4B5   D3
C4B6   23                                   "#"
C4B7   5F                                   "_"
C4B8   60                RTS                "`"
C4B9   23                                   "#"
C4BA   04
C4BB   05 06             ORA &06
C4BD   00                BRK
C4BE   01 02             ORA (&02,X)
C4C0   AE 6A 02          LDX &026A
C4C3   D0 4D             BNE &C512
C4C5   24 D0             BIT &D0
C4C7   50 0F             BVC &C4D8
C4C9   20 68 C5          JSR &C568
C4CC   20 6A CD          JSR &CD6A
C4CF   30 07             BMI &C4D8
C4D1   C9 0D             CMP #&0D
C4D3   D0 03             BNE &C4D8
C4D5   20 18 D9          JSR &D918
C4D8   C9 7F             CMP #&7F
C4DA   F0 11             BEQ &C4ED
C4DC   C9 20             CMP #&20
C4DE   90 0F             BCC &C4EF
C4E0   24 D0             BIT &D0
C4E2   30 06             BMI &C4EA
C4E4   20 B7 CF          JSR &CFB7
C4E7   20 64 C6          JSR &C664
C4EA   4C 5E C5          JMP &C55E
C4ED   A9 20             LDA #&20
C4EF   A8                TAY
C4F0   B9 33 C3          LDA &C333,Y
C4F3   8D 5D 03          STA &035D
C4F6   B9 54 C3          LDA &C354,Y
C4F9   30 4A             BMI &C545          "0J"
C4FB   AA                TAX
C4FC   09 F0             ORA #&F0
C4FE   8D 6A 02          STA &026A
C501   8A                TXA
C502   4A                LSR A              "J"
C503   4A                LSR A              "J"
C504   4A                LSR A              "J"
C505   4A                LSR A              "J"
C506   18                CLC
C507   69 C3             ADC #&C3
C509   8D 5E 03          STA &035E
C50C   24 D0             BIT &D0
C50E   70 1F             BVS &C52F
C510   18                CLC
C511   60                RTS                "`"
C512   9D 24 02          STA &0224,X
C515   E8                INX
C516   8E 6A 02          STX &026A
C519   D0 17             BNE &C532
C51B   24 D0             BIT &D0
C51D   30 15             BMI &C534
C51F   70 05             BVS &C526
C521   20 F5 CC          JSR &CCF5
C524   18                CLC
C525   60                RTS                "`"
C526   20 68 C5          JSR &C568
C529   20 6A CD          JSR &CD6A
C52C   20 F5 CC          JSR &CCF5
C52F   20 65 C5          JSR &C565
C532   18                CLC
C533   60                RTS                "`"
C534   AC 5E 03          LDY &035E
C537   C0 C5             CPY #&C5
C539   D0 F7             BNE &C532
C53B   AA                TAX
C53C   A5 D0             LDA &D0
C53E   4A                LSR A              "J"
C53F   90 D0             BCC &C511
C541   8A                TXA
C542   4C 1E E1          JMP &E11E
C545   8D 5E 03          STA &035E
C548   98                TYA
C549   C9 08             CMP #&08
C54B   90 06             BCC &C553
C54D   49 FF             EOR #&FF
C54F   C9 F2             CMP #&F2
C551   49 FF             EOR #&FF
C553   24 D0             BIT &D0
C555   30 29             BMI &C580          "0)"
C557   08                PHP
C558   20 F5 CC          JSR &CCF5
C55B   28                PLP                "("
C55C   90 03             BCC &C561
C55E   A5 D0             LDA &D0
C560   4A                LSR A              "J"
C561   24 D0             BIT &D0
C563   50 AC             BVC &C511
C565   20 7A CD          JSR &CD7A
C568   08                PHP
C569   48                PHA                "H"
C56A   A2 18             LDX #&18
C56C   A0 64             LDY #&64
C56E   20 DE CD          JSR &CDDE
C571   20 06 CF          JSR &CF06
C574   20 02 CA          JSR .L28
C577   A5 D0             LDA &D0
C579   49 02             EOR #&02
C57B   85 D0             STA &D0
C57D   68                PLA                "h"
C57E   28                PLP                "("
C57F   60                RTS                "`"
C580   49 06             EOR #&06
C582   D0 08             BNE &C58C
C584   A9 7F             LDA #&7F
C586   90 20             BCC .L02
C588   A5 D0             LDA &D0
C58A   29 20             AND #&20           ") "
C58C   60                RTS                "`"
C58D   A0 00             LDY #&00
C58F   8C 69 02          STY &0269
C592   A9 04             LDA #&04
C594   D0 07             BNE &C59D
C596   20 A2 E1          JSR &E1A2
C599   A9 94             LDA #&94
C59B   49 95             EOR #&95
C59D   05 D0             ORA &D0
C59F   D0 09             BNE .L03
C5A1   20 A2 E1          JSR &E1A2
C5A4   A9 0A             LDA #&0A
C5A6   49 F4             EOR #&F4
C5A8   25 D0      .L02   AND &D0
C5AA   85 D0      .L03   STA &D0
C5AC   60         .L04   RTS
C5AD   AD 61 03          LDA &0361
C5B0   F0 FA             BEQ .L04
C5B2   20 51 C9          JSR &C951
C5B5   A9 DF             LDA #&DF
C5B7   D0 EF             BNE .L02
C5B9   AD 61 03          LDA &0361
C5BC   F0 EE             BEQ .L04
C5BE   A9 20             LDA #&20
C5C0   20 54 C9          JSR &C954
C5C3   D0 D8             BNE &C59D
C5C5   20 88 C5          JSR &C588
C5C8   D0 55             BNE &C61F
C5CA   CE 18 03          DEC &0318
C5CD   AE 18 03          LDX &0318
C5D0   EC 08 03          CPX &0308
C5D3   30 19             BMI &C5EE
C5D5   AD 4A 03          LDA &034A
C5D8   38                SEC                "8"
C5D9   ED 4F 03          SBC &034F
C5DC   AA                TAX
C5DD   AD 4B 03          LDA &034B
C5E0   E9 00             SBC #&00
C5E2   CD 4E 03          CMP &034E
C5E5   B0 03             BCS &C5EA
C5E7   6D 54 03          ADC &0354
C5EA   A8                TAY
C5EB   4C F6 C9          JMP .L27
C5EE   AD 0A 03          LDA &030A
C5F1   8D 18 03          STA &0318
C5F4   CE 69 02          DEC &0269
C5F7   10 03             BPL &C5FC
C5F9   EE 69 02          INC &0269
C5FC   AE 19 03          LDX &0319
C5FF   EC 0B 03          CPX &030B
C602   F0 06             BEQ &C60A
C604   CE 19 03          DEC &0319
C607   4C AF C6          JMP &C6AF
C60A   18                CLC
C60B   20 3F CD          JSR &CD3F
C60E   A9 08             LDA #&08
C610   24 D0             BIT &D0
C612   D0 05             BNE &C619
C614   20 94 C9          JSR &C994
C617   D0 03             BNE &C61C
C619   20 A4 CD          JSR &CDA4
C61C   4C AC C6          JMP &C6AC
C61F   A2 00             LDX #&00
C621   86 DB             STX &DB
C623   20 0D D1          JSR &D10D
C626   A6 DB             LDX &DB
C628   38                SEC                "8"
C629   BD 24 03          LDA &0324,X
C62C   E9 08             SBC #&08
C62E   9D 24 03          STA &0324,X
C631   B0 03             BCS &C636
C633   DE 25 03          DEC &0325,X
C636   A5 DA             LDA &DA
C638   D0 1E             BNE &C658
C63A   20 0D D1          JSR &D10D
C63D   F0 19             BEQ &C658
C63F   A6 DB             LDX &DB
C641   BD 04 03          LDA &0304,X
C644   E0 01             CPX #&01
C646   B0 02             BCS &C64A
C648   E9 06             SBC #&06
C64A   9D 24 03          STA &0324,X
C64D   BD 05 03          LDA &0305,X
C650   E9 00             SBC #&00
C652   9D 25 03          STA &0325,X
C655   8A                TXA
C656   F0 08             BEQ &C660
C658   4C B8 D1          JMP &D1B8
C65B   20 88 C5          JSR &C588
C65E   F0 94             BEQ &C5F4
C660   A2 02             LDX #&02
C662   D0 52             BNE &C6B6
C664   A5 D0             LDA &D0
C666   29 20             AND #&20           ") "
C668   D0 4A             BNE &C6B4
C66A   AE 18 03          LDX &0318
C66D   EC 0A 03          CPX &030A
C670   B0 12             BCS &C684
C672   EE 18 03          INC &0318
C675   AD 4A 03          LDA &034A
C678   6D 4F 03          ADC &034F
C67B   AA                TAX
C67C   AD 4B 03          LDA &034B
C67F   69 00             ADC #&00
C681   4C F6 C9          JMP .L27
C684   AD 08 03          LDA &0308
C687   8D 18 03          STA &0318
C68A   18                CLC
C68B   20 E3 CA          JSR &CAE3
C68E   AE 19 03          LDX &0319
C691   EC 09 03          CPX &0309
C694   B0 05             BCS &C69B
C696   EE 19 03          INC &0319
C699   90 14             BCC &C6AF
C69B   20 3F CD          JSR &CD3F
C69E   A9 08             LDA #&08
C6A0   24 D0             BIT &D0
C6A2   D0 05             BNE &C6A9
C6A4   20 A4 C9          JSR &C9A4
C6A7   D0 03             BNE &C6AC
C6A9   20 FF CD          JSR &CDFF
C6AC   20 AC CE          JSR &CEAC
C6AF   20 06 CF          JSR &CF06
C6B2   90 7E             BCC &C732
C6B4   A2 00             LDX #&00
C6B6   86 DB             STX &DB
C6B8   20 0D D1          JSR &D10D
C6BB   A6 DB             LDX &DB
C6BD   18                CLC
C6BE   BD 24 03          LDA &0324,X
C6C1   69 08             ADC #&08
C6C3   9D 24 03          STA &0324,X
C6C6   90 03             BCC &C6CB
C6C8   FE 25 03          INC &0325,X
C6CB   A5 DA             LDA &DA
C6CD   D0 89             BNE &C658
C6CF   20 0D D1          JSR &D10D
C6D2   F0 84             BEQ &C658
C6D4   A6 DB             LDX &DB
C6D6   BD 00 03          LDA &0300,X
C6D9   E0 01             CPX #&01
C6DB   90 02             BCC &C6DF
C6DD   69 06             ADC #&06
C6DF   9D 24 03          STA &0324,X
C6E2   BD 01 03          LDA &0301,X
C6E5   69 00             ADC #&00
C6E7   9D 25 03          STA &0325,X
C6EA   8A                TXA
C6EB   F0 08             BEQ &C6F5
C6ED   4C B8 D1          JMP &D1B8
C6F0   20 88 C5          JSR &C588
C6F3   F0 95             BEQ &C68A
C6F5   A2 02             LDX #&02
C6F7   4C 21 C6          JMP &C621
C6FA   AE 55 03          LDX &0355
C6FD   AD 21 03          LDA &0321
C700   CD 23 03          CMP &0323
C703   90 53             BCC &C758
C705   DD E7 C3          CMP &C3E7,X
C708   F0 02             BEQ &C70C
C70A   B0 4C             BCS &C758
C70C   AD 22 03          LDA &0322
C70F   A8                TAY
C710   DD EF C3          CMP &C3EF,X
C713   F0 02             BEQ &C717
C715   B0 41             BCS &C758
C717   38                SEC                "8"
C718   ED 20 03          SBC &0320
C71B   30 3B             BMI &C758          "0;"
C71D   A8                TAY
C71E   20 88 CA          JSR .L35
C721   A9 08             LDA #&08
C723   20 9D C5          JSR &C59D
C726   A2 20             LDX #&20
C728   A0 08             LDY #&08
C72A   20 8A D4          JSR .L71
C72D   20 E8 CE          JSR &CEE8
C730   B0 47             BCS &C779
C732   4C 02 CA          JMP .L28
C735   A0 03             LDY #&03
C737   B1 F0             LDA (&F0),Y
C739   99 28 03          STA &0328,Y
C73C   88                DEY
C73D   10 F8             BPL &C737
C73F   A9 28             LDA #&28
C741   20 39 D8          JSR &D839
C744   A0 04             LDY #&04
C746   D0 08             BNE &C750
C748   2D 60 03          AND &0360
C74B   AA                TAX
C74C   BD 6F 03          LDA &036F,X
C74F   C8                INY
C750   91 F0             STA (&F0),Y
C752   A9 00             LDA #&00
C754   C0 04             CPY #&04
C756   D0 F7             BNE &C74F
C758   60                RTS                "`"
C759   20 88 C5          JSR &C588
C75C   D0 5F             BNE &C7BD
C75E   A5 D0             LDA &D0
C760   29 08             AND #&08
C762   D0 03             BNE &C767
C764   4C C1 CB          JMP .L45
C767   AE 0B 03          LDX &030B
C76A   8E 19 03          STX &0319
C76D   20 AC CE          JSR &CEAC
C770   AE 19 03          LDX &0319
C773   EC 09 03          CPX &0309
C776   E8                INX
C777   90 F1             BCC &C76A
C779   20 88 C5          JSR &C588
C77C   F0 03             BEQ &C781
C77E   4C A6 CF          JMP &CFA6
C781   8D 23 03          STA &0323
C784   8D 22 03          STA &0322
C787   20 88 C5          JSR &C588
C78A   D0 CC             BNE &C758
C78C   20 A8 C7          JSR &C7A8
C78F   18                CLC
C790   AD 22 03          LDA &0322
C793   6D 08 03          ADC &0308
C796   8D 18 03          STA &0318
C799   AD 23 03          LDA &0323
C79C   18                CLC
C79D   6D 0B 03          ADC &030B
C7A0   8D 19 03          STA &0319
C7A3   20 E8 CE          JSR &CEE8
C7A6   90 8A             BCC &C732
C7A8   A2 18             LDX #&18
C7AA   A0 28             LDY #&28
C7AC   4C DE CD          JMP &CDDE
C7AF   20 88 C5          JSR &C588
C7B2   F0 03             BEQ &C7B7
C7B4   4C AD CF          JMP &CFAD
C7B7   20 6E CE          JSR &CE6E
C7BA   4C AF C6          JMP &C6AF
C7BD   20 A6 CF          JSR &CFA6
C7C0   AD 61 03          LDA &0361
C7C3   F0 33             BEQ &C7F8
C7C5   AE 5A 03          LDX &035A
C7C8   AC 5C 03          LDY &035C
C7CB   20 B3 D0          JSR &D0B3
C7CE   A2 00             LDX #&00
C7D0   A0 28             LDY #&28
C7D2   20 7C D4          JSR .L66
C7D5   38                SEC                "8"
C7D6   AD 06 03          LDA &0306
C7D9   ED 02 03          SBC &0302
C7DC   A8                TAY
C7DD   C8                INY
C7DE   8C 30 03          STY &0330
C7E1   A2 2C             LDX #&2C
C7E3   A0 28             LDY #&28
C7E5   20 A6 D6          JSR &D6A6
C7E8   AD 2E 03          LDA &032E
C7EB   D0 03             BNE &C7F0
C7ED   CE 2F 03          DEC &032F
C7F0   CE 2E 03          DEC &032E
C7F3   CE 30 03          DEC &0330
C7F6   D0 E9             BNE &C7E1
C7F8   60                RTS                "`"
C7F9   A0 00             LDY #&00
C7FB   F0 02             BEQ &C7FF
C7FD   A0 02             LDY #&02
C7FF   AD 23 03          LDA &0323
C802   10 01             BPL &C805
C804   C8                INY
C805   2D 60 03          AND &0360
C808   85 DA             STA &DA
C80A   AD 60 03          LDA &0360
C80D   F0 1C             BEQ &C82B
C80F   29 07             AND #&07
C811   18                CLC
C812   65 DA             ADC &DA
C814   AA                TAX
C815   BD 23 C4          LDA &C423,X
C818   99 57 03          STA &0357,Y
C81B   C0 02             CPY #&02
C81D   B0 0D             BCS &C82C
C81F   AD 57 03          LDA &0357
C822   49 FF             EOR #&FF
C824   85 D3             STA &D3
C826   4D 58 03          EOR &0358
C829   85 D2             STA &D2
C82B   60                RTS                "`"
C82C   AD 22 03          LDA &0322
C82F   99 59 03          STA &0359,Y
C832   60                RTS                "`"
C833   A9 20      .L05   LDA #&20
C835   8D 58 03   .      STA &0358
C838   60         .      RTS
C839   A2 05      .L06   LDX #&05
C83B   A9 00      .      LDA #&00
C83D   9D 57 03   .L07   STA &0357,X
C840   CA         .      DEX
C841   10 FA      .      BPL .L07
C843   AE 60 03   .      LDX &0360
C846   F0 EB      .      BEQ .L05
C848   A9 FF      .      LDA #&FF
C84A   E0 0F      .      CPX #&0F
C84C   D0 02      .      BNE .L08
C84E   A9 3F      .      LDA #&3F
C850   8D 57 03   .L08   STA &0357
C853   8D 59 03   .      STA &0359
C856   49 FF      .      EOR #&FF
C858   85 D2      .      STA &D2
C85A   85 D3      .      STA &D3
C85C   8E 1F 03   .      STX &031F
C85F   E0 03      .      CPX #&03
C861   F0 11      .      BEQ .L10
C863   90 20      .      BCC .L12
C865   8E 20 03   .      STX &0320
C868   20 92 C8   .L09   JSR .L14
C86B   CE 20 03   .      DEC &0320
C86E   CE 1F 03   .      DEC &031F
C871   10 F5      .      BPL .L09
C873   60         .      RTS
C874   A2 07      .L10   LDX #&07
C876   8E 20 03   .      STX &0320
C879   20 92 C8   .L11   JSR .L14
C87C   4E 20 03   .      LSR &0320
C87F   CE 1F 03   .      DEC &031F
C882   10 F5      .      BPL .L11
C884   60         .      RTS
C885   A2 07      .L12   LDX #&07
C887   20 8F C8   .      JSR .L13
C88A   A2 00      .      LDX #&00
C88C   8E 1F 03   .      STX &031F
C88F   8E 20 03   .L13   STX &0320
C892   08         .L14   PHP
C893   78         .      SEI
C894   AD 1F 03   .      LDA &031F
C897   2D 60 03   .      AND &0360
C89A   AA         .      TAX
C89B   AD 20 03   .      LDA &0320
C89E   29 0F      .L15   AND #&0F
C8A0   9D 6F 03   .      STA &036F,X
C8A3   A8         .      TAY
C8A4   AD 60 03   .      LDA &0360
C8A7   85 FA      .      STA &FA
C8A9   C9 03      .      CMP #&03
C8AB   08         .      PHP
C8AC   8A         .      TXA
C8AD   6A         .L16   ROR A
C8AE   66 FA      .      ROR &FA
C8B0   B0 FB      .      BCS .L16
C8B2   06 FA      .      ASL &FA
C8B4   98         .      TYA
C8B5   05 FA      .      ORA &FA
C8B7   AA         .      TAX
C8B8   A0 00      .      LDY #&00
C8BA   28         .L17   PLP
C8BB   08         .      PHP
C8BC   D0 0E      .      BNE .L19
C8BE   29 60      .      AND #&60
C8C0   F0 09      .      BEQ .L18
C8C2   C9 60      .      CMP #&60
C8C4   F0 05      .      BEQ .L18
C8C6   8A         .      TXA
C8C7   49 60      .      EOR #&60
C8C9   D0 01      .      BNE .L19
C8CB   8A         .L18   TXA
C8CC   20 11 EA   .L19   JSR .L143
C8CF   98         .      TYA
C8D0   38         .      SEC
C8D1   6D 60 03   .      ADC &0360
C8D4   A8         .      TAY
C8D5   8A         .      TXA
C8D6   69 10      .      ADC #&10
C8D8   AA         .      TAX
C8D9   C0 10      .      CPY #&10
C8DB   90 DD      .      BCC .L17
C8DD   28         .      PLP
C8DE   28         .      PLP
C8DF   60         .      RTS
C8E0   08                PHP
C8E1   2D 60 03          AND &0360
C8E4   AA                TAX
C8E5   C8                INY
C8E6   B1 F0             LDA (&F0),Y
C8E8   4C 9E C8          JMP .L15
C8EB   AD 23 03          LDA &0323
C8EE   4C 33 CB          JMP .L40
C8F1   AD 1B 03          LDA &031B
C8F4   C9 20             CMP #&20
C8F6   90 47             BCC &C93F
C8F8   48                PHA                "H"
C8F9   4A                LSR A              "J"
C8FA   4A                LSR A              "J"
C8FB   4A                LSR A              "J"
C8FC   4A                LSR A              "J"
C8FD   4A                LSR A              "J"
C8FE   AA                TAX
C8FF   BD 0D C4          LDA &C40D,X
C902   2C 67 03          BIT &0367
C905   D0 20             BNE &C927
C907   0D 67 03          ORA &0367
C90A   8D 67 03          STA &0367
C90D   8A                TXA
C90E   29 03             AND #&03
C910   18                CLC
C911   69 BF             ADC #&BF
C913   85 DF             STA &DF
C915   BD 67 03          LDA &0367,X
C918   85 DD             STA &DD
C91A   A0 00             LDY #&00
C91C   84 DC             STY &DC
C91E   84 DE             STY &DE
C920   B1 DE             LDA (&DE),Y
C922   91 DC             STA (&DC),Y
C924   88                DEY
C925   D0 F9             BNE &C920
C927   68                PLA                "h"
C928   20 3E D0          JSR &D03E
C92B   A0 07             LDY #&07
C92D   B9 1C 03          LDA &031C,Y
C930   91 DE             STA (&DE),Y
C932   88                DEY
C933   10 F8             BPL &C92D
C935   60                RTS                "`"
C936   68                PLA                "h"
C937   60                RTS                "`"
C938   AD 1F 03          LDA &031F
C93B   18                CLC
C93C   6C 26 02          JMP (&0226)
C93F   C9 01             CMP #&01
C941   90 15             BCC &C958
C943   D0 F7             BNE &C93C
C945   20 88 C5          JSR &C588
C948   D0 ED             BNE &C937
C94A   A9 20             LDA #&20
C94C   AC 1C 03          LDY &031C
C94F   F0 03             BEQ &C954
C951   AD 5F 03          LDA &035F
C954   A0 0A             LDY #&0A
C956   D0 2D             BNE .L23
C958   AD 1D 03          LDA &031D
C95B   AC 1C 03          LDY &031C
C95E   C0 07      .L20   CPY #&07
C960   90 23      .      BCC .L23
C962   D0 03      .      BNE .L21
C964   6D 90 02   .      ADC &0290
C967   C0 08      .L21   CPY #&08
C969   D0 07      .      BNE .L22
C96B   09 00      .      ORA #&00
C96D   30 03      .      BMI .L22
C96F   4D 91 02   .      EOR &0291
C972   C0 0A      .L22   CPY #&0A
C974   D0 0F      .      BNE .L23
C976   8D 5F 03   .      STA &035F
C979   A8         .      TAY
C97A   A5 D0      .      LDA &D0
C97C   29 20      .      AND #&20
C97E   08         .      PHP
C97F   98         .      TYA
C980   A0 0A      .      LDY #&0A
C982   28         .      PLP
C983   D0 06      .      BNE .L24
C985   8C 00 FE   .L23   STY &FE00
C988   8D 01 FE   .      STA &FE01
C98B   60         .L24   RTS
C98C   AE 61 03          LDX &0361
C98F   F0 A7             BEQ &C938
C991   4C 60 D0          JMP &D060
C994   AE 50 03          LDX &0350
C997   AD 51 03          LDA &0351
C99A   20 F8 CC          JSR &CCF8
C99D   B0 14             BCS &C9B3
C99F   6D 54 03          ADC &0354
C9A2   90 0F             BCC &C9B3
C9A4   AE 50 03          LDX &0350
C9A7   AD 51 03          LDA &0351
C9AA   20 D4 CA          JSR &CAD4
C9AD   10 04             BPL &C9B3
C9AF   38                SEC                "8"
C9B0   ED 54 03          SBC &0354
C9B3   8D 51 03          STA &0351
C9B6   8E 50 03          STX &0350
C9B9   A0 0C             LDY #&0C
C9BB   D0 51             BNE .L29
C9BD   A9 00      .L25   LDA #&00
C9BF   A2 2C      .      LDX #&2C
C9C1   9D 00 03   .L26   STA &0300,X
C9C4   CA         .      DEX
C9C5   10 FA      .      BPL .L26
C9C7   AE 55 03   .      LDX &0355
C9CA   BC EF C3   .      LDY &C3EF,X
C9CD   8C 0A 03   .      STY &030A
C9D0   20 88 CA   .      JSR .L35
C9D3   BC E7 C3   .      LDY &C3E7,X
C9D6   8C 09 03   .      STY &0309
C9D9   A0 03      .      LDY #&03
C9DB   8C 23 03   .      STY &0323
C9DE   C8         .      INY
C9DF   8C 21 03   .      STY &0321
C9E2   CE 22 03   .      DEC &0322
C9E5   CE 20 03   .      DEC &0320
C9E8   20 39 CA   .      JSR .L32
C9EB   A9 F7      .      LDA #&F7
C9ED   20 A8 C5   .      JSR .L02
C9F0   AE 50 03   .      LDX &0350
C9F3   AD 51 03   .      LDA &0351
C9F6   8E 4A 03   .L27   STX &034A
C9F9   8D 4B 03   .      STA &034B
C9FC   10 04      .      BPL .L28
C9FE   38         .      SEC
C9FF   ED 54 03   .      SBC &0354
CA02   86 D8      .L28   STX &D8
CA04   85 D9      .      STA &D9
CA06   AE 4A 03   .      LDX &034A
CA09   AD 4B 03   .      LDA &034B
CA0C   A0 0E      .      LDY #&0E
CA0E   48         .L29   PHA
CA0F   AD 55 03   .      LDA &0355
CA12   C9 07      .      CMP #&07
CA14   68         .      PLA
CA15   B0 10      .      BCS .L30
CA17   86 DA      .      STX &DA
CA19   4A         .      LSR A
CA1A   66 DA      .      ROR &DA
CA1C   4A         .      LSR A
CA1D   66 DA      .      ROR &DA
CA1F   4A         .      LSR A
CA20   66 DA      .      ROR &DA
CA22   A6 DA      .      LDX &DA
CA24   4C 2B CA   .      JMP .L31
CA27   E9 74      .L30   SBC #&74
CA29   49 20      .      EOR #&20
CA2B   8C 00 FE   .L31   STY &FE00
CA2E   8D 01 FE   .      STA &FE01
CA31   C8         .      INY
CA32   8C 00 FE   .      STY &FE00
CA35   8E 01 FE   .      STX &FE01
CA38   60         .      RTS
CA39   20 81 CA   .L32   JSR .L34
CA3C   A2 1C      .      LDX #&1C
CA3E   A0 2C      .      LDY #&2C
CA40   20 11 D4   .      JSR .L64
CA43   0D 2D 03   .      ORA &032D
CA46   30 39      .      BMI .L34
CA48   A2 20      .      LDX #&20
CA4A   20 49 D1   .      JSR .L55
CA4D   A2 1C      .      LDX #&1C
CA4F   20 49 D1   .      JSR .L55
CA52   AD 1F 03   .      LDA &031F
CA55   0D 1D 03   .      ORA &031D
CA58   30 27      .      BMI .L34
CA5A   AD 23 03   .      LDA &0323
CA5D   D0 22      .      BNE .L34
CA5F   AE 55 03   .      LDX &0355
CA62   AD 21 03   .      LDA &0321
CA65   85 DA      .      STA &DA
CA67   AD 20 03   .      LDA &0320
CA6A   46 DA      .      LSR &DA
CA6C   6A         .      ROR A
CA6D   46 DA      .      LSR &DA
CA6F   D0 10      .      BNE .L34
CA71   6A         .      ROR A
CA72   4A         .      LSR A
CA73   DD EF C3   .      CMP &C3EF,X
CA76   F0 02      .      BEQ .L33
CA78   10 07      .      BPL .L34
CA7A   A0 00      .L33   LDY #&00
CA7C   A2 1C      .      LDX #&1C
CA7E   20 7C D4   .      JSR .L66
CA81   A2 10      .L34   LDX #&10
CA83   A0 28      .      LDY #&28
CA85   4C E6 CD   .      JMP .L52
CA88   C8         .L35   INY
CA89   98         .      TYA
CA8A   A0 00      .      LDY #&00
CA8C   8C 4D 03   .      STY &034D
CA8F   8D 4C 03   .      STA &034C
CA92   AD 4F 03   .      LDA &034F
CA95   4A         .      LSR A
CA96   F0 09      .      BEQ .L37
CA98   0E 4C 03   .L36   ASL &034C
CA9B   2E 4D 03   .      ROL &034D
CA9E   4A         .      LSR A
CA9F   90 F7      .      BCC .L36
CAA1   60         .L37   RTS
CAA2   A2 20             LDX #&20
CAA4   A0 0C             LDY #&0C
CAA6   20 8A D4          JSR .L71
CAA9   4C B8 D1          JMP &D1B8
CAAC   20 C5 C5          JSR &C5C5
CAAF   20 88 C5          JSR &C588
CAB2   D0 13             BNE &CAC7
CAB4   AE 60 03          LDX &0360
CAB7   F0 09             BEQ &CAC2
CAB9   85 DE             STA &DE
CABB   A9 C0             LDA #&C0
CABD   85 DF             STA &DF
CABF   4C BF CF          JMP &CFBF
CAC2   A9 20             LDA #&20
CAC4   4C DC CF          JMP &CFDC
CAC7   A9 7F             LDA #&7F
CAC9   20 3E D0          JSR &D03E
CACC   AE 5A 03          LDX &035A
CACF   A0 00             LDY #&00
CAD1   4C 63 CF          JMP &CF63
CAD4   48                PHA                "H"
CAD5   8A                TXA
CAD6   18                CLC
CAD7   6D 52 03          ADC &0352
CADA   AA                TAX
CADB   68                PLA                "h"
CADC   6D 53 03          ADC &0353
CADF   60                RTS                "`"
CAE0   20 14 CB          JSR &CB14
CAE3   20 D9 E9          JSR .L137
CAE6   90 02             BCC &CAEA
CAE8   30 F6             BMI &CAE0
CAEA   A5 D0             LDA &D0
CAEC   49 04             EOR #&04
CAEE   29 46             AND #&46           ")F"
CAF0   D0 2A             BNE &CB1C
CAF2   AD 69 02          LDA &0269
CAF5   30 22             BMI &CB19          "0\""
CAF7   AD 19 03          LDA &0319
CAFA   CD 09 03          CMP &0309
CAFD   90 1A             BCC &CB19
CAFF   4A                LSR A              "J"
CB00   4A                LSR A              "J"
CB01   38                SEC                "8"
CB02   6D 69 02          ADC &0269
CB05   6D 0B 03          ADC &030B
CB08   CD 09 03          CMP &0309
CB0B   90 0C             BCC &CB19
CB0D   18                CLC
CB0E   20 D9 E9          JSR .L137
CB11   38                SEC                "8"
CB12   10 FA             BPL &CB0E
CB14   A9 FF             LDA #&FF
CB16   8D 69 02          STA &0269
CB19   EE 69 02          INC &0269
CB1C   60                RTS                "`"
CB1D   48         .L38   PHA
CB1E   A2 7F      .      LDX #&7F
CB20   A9 00      .      LDA #&00
CB22   85 D0      .      STA &D0
CB24   9D FF 02   .L39   STA &02FF,X
CB27   CA         .      DEX
CB28   D0 FA      .      BNE .L39
CB2A   20 07 CD   .      JSR .L47
CB2D   68         .      PLA
CB2E   A2 7F      .      LDX #&7F
CB30   8E 66 03   .      STX &0366
CB33   2C 8E 02   .L40   BIT &028E
CB36   30 02      .      BMI .L41
CB38   09 04      .      ORA #&04
CB3A   29 07      .L41   AND #&07
CB3C   AA         .      TAX
CB3D   8E 55 03   .      STX &0355
CB40   BD 14 C4   .      LDA &C414,X
CB43   8D 60 03   .      STA &0360
CB46   BD FF C3   .      LDA &C3FF,X
CB49   8D 4F 03   .      STA &034F
CB4C   BD 3A C4   .      LDA &C43A,X
CB4F   8D 61 03   .      STA &0361
CB52   D0 02      .      BNE .L42
CB54   A9 07      .      LDA #&07
CB56   0A         .L42   ASL A
CB57   A8         .      TAY
CB58   B9 06 C4   .      LDA &C406,Y
CB5B   8D 63 03   .      STA &0363
CB5E   0A         .L43   ASL A
CB5F   10 FD      .      BPL .L43
CB61   8D 62 03   .      STA &0362
CB64   BC 40 C4   .      LDY &C440,X
CB67   8C 56 03   .      STY &0356
CB6A   B9 4F C4   .      LDA &C44F,Y
CB6D   20 F8 E9   .      JSR .L141
CB70   B9 4B C4   .      LDA &C44B,Y
CB73   20 F8 E9   .      JSR .L141
CB76   B9 59 C4   .      LDA &C459,Y
CB79   8D 54 03   .      STA &0354
CB7C   B9 5E C4   .      LDA &C45E,Y
CB7F   8D 4E 03   .      STA &034E
CB82   98         .      TYA
CB83   69 02      .      ADC #&02
CB85   49 07      .      EOR #&07
CB87   4A         .      LSR A
CB88   AA         .      TAX
CB89   BD 66 C4   .      LDA &C466,X
CB8C   85 E0      .      STA &E0
CB8E   A9 C3      .      LDA #&C3
CB90   85 E1      .      STA &E1
CB92   BD 63 C4   .      LDA &C463,X
CB95   8D 52 03   .      STA &0352
CB98   8E 53 03   .      STX &0353
CB9B   A9 43      .      LDA #&43
CB9D   20 A8 C5   .      JSR .L02
CBA0   AE 55 03   .      LDX &0355
CBA3   BD F7 C3   .      LDA &C3F7,X
CBA6   20 00 EA   .      JSR .L142
CBA9   08         .      PHP
CBAA   78         .      SEI
CBAB   BE 69 C4   .      LDX &C469,Y
CBAE   A0 0B      .      LDY #&0B
CBB0   BD 6E C4   .L44   LDA &C46E,X
CBB3   20 5E C9   .      JSR .L20
CBB6   CA         .      DEX
CBB7   88         .      DEY
CBB8   10 F6      .      BPL .L44
CBBA   28         .      PLP
CBBB   20 39 C8   .      JSR .L06
CBBE   20 BD C9   .      JSR .L25
CBC1   A2 00      .L45   LDX #&00
CBC3   AD 4E 03   .      LDA &034E
CBC6   8E 50 03   .      STX &0350
CBC9   8D 51 03   .      STA &0351
CBCC   20 F6 C9   .      JSR .L27
CBCF   A0 0C      .      LDY #&0C
CBD1   20 2B CA   .      JSR .L31
CBD4   AD 58 03   .      LDA &0358
CBD7   AE 56 03   .      LDX &0356
CBDA   BC 54 C4   .      LDY &C454,X
CBDD   8C 5D 03   .      STY &035D
CBE0   A0 CC      .      LDY #&CC
CBE2   8C 5E 03   .      STY &035E
CBE5   A2 00      .      LDX #&00
CBE7   8E 69 02   .      STX &0269
CBEA   8E 18 03   .      STX &0318
CBED   8E 19 03   .      STX &0319
CBF0   6C 5D 03   .      JMP (&035D)
CBF3   20 3E D0          JSR &D03E
CBF6   A0 00             LDY #&00
CBF8   B1 DE             LDA (&DE),Y
CBFA   C8                INY
CBFB   91 F0             STA (&F0),Y
CBFD   C0 08             CPY #&08
CBFF   D0 F7             BNE &CBF8
CC01   60                RTS                "`"
CC02   9D 00 30          STA &3000,X
CC05   9D 00 31          STA &3100,X
CC08   9D 00 32          STA &3200,X
CC0B   9D 00 33          STA &3300,X
CC0E   9D 00 34          STA &3400,X
CC11   9D 00 35          STA &3500,X
CC14   9D 00 36          STA &3600,X
CC17   9D 00 37          STA &3700,X
CC1A   9D 00 38          STA &3800,X
CC1D   9D 00 39          STA &3900,X
CC20   9D 00 3A          STA &3A00,X
CC23   9D 00 3B          STA &3B00,X
CC26   9D 00 3C          STA &3C00,X
CC29   9D 00 3D          STA &3D00,X
CC2C   9D 00 3E          STA &3E00,X
CC2F   9D 00 3F          STA &3F00,X
CC32   9D 00 40          STA &4000,X
CC35   9D 00 41          STA &4100,X
CC38   9D 00 42          STA &4200,X
CC3B   9D 00 43          STA &4300,X
CC3E   9D 00 44          STA &4400,X
CC41   9D 00 45          STA &4500,X
CC44   9D 00 46          STA &4600,X
CC47   9D 00 47          STA &4700,X
CC4A   9D 00 48          STA &4800,X
CC4D   9D 00 49          STA &4900,X
CC50   9D 00 4A          STA &4A00,X
CC53   9D 00 4B          STA &4B00,X
CC56   9D 00 4C          STA &4C00,X
CC59   9D 00 4D          STA &4D00,X
CC5C   9D 00 4E          STA &4E00,X
CC5F   9D 00 4F          STA &4F00,X
CC62   9D 00 50          STA &5000,X
CC65   9D 00 51          STA &5100,X
CC68   9D 00 52          STA &5200,X
CC6B   9D 00 53          STA &5300,X
CC6E   9D 00 54          STA &5400,X
CC71   9D 00 55          STA &5500,X
CC74   9D 00 56          STA &5600,X
CC77   9D 00 57          STA &5700,X
CC7A   9D 00 58          STA &5800,X
CC7D   9D 00 59          STA &5900,X
CC80   9D 00 5A          STA &5A00,X
CC83   9D 00 5B          STA &5B00,X
CC86   9D 00 5C          STA &5C00,X
CC89   9D 00 5D          STA &5D00,X
CC8C   9D 00 5E          STA &5E00,X
CC8F   9D 00 5F          STA &5F00,X
CC92   9D 00 60          STA &6000,X
CC95   9D 00 61          STA &6100,X
CC98   9D 00 62          STA &6200,X
CC9B   9D 00 63          STA &6300,X
CC9E   9D 00 64          STA &6400,X
CCA1   9D 00 65          STA &6500,X
CCA4   9D 00 66          STA &6600,X
CCA7   9D 00 67          STA &6700,X
CCAA   9D 00 68          STA &6800,X
CCAD   9D 00 69          STA &6900,X
CCB0   9D 00 6A          STA &6A00,X
CCB3   9D 00 6B          STA &6B00,X
CCB6   9D 00 6C          STA &6C00,X
CCB9   9D 00 6D          STA &6D00,X
CCBC   9D 00 6E          STA &6E00,X
CCBF   9D 00 6F          STA &6F00,X
CCC2   9D 00 70          STA &7000,X
CCC5   9D 00 71          STA &7100,X
CCC8   9D 00 72          STA &7200,X
CCCB   9D 00 73          STA &7300,X
CCCE   9D 00 74          STA &7400,X
CCD1   9D 00 75          STA &7500,X
CCD4   9D 00 76          STA &7600,X
CCD7   9D 00 77          STA &7700,X
CCDA   9D 00 78          STA &7800,X
CCDD   9D 00 79          STA &7900,X
CCE0   9D 00 7A          STA &7A00,X
CCE3   9D 00 7B          STA &7B00,X
CCE6   9D 00 7C          STA &7C00,X
CCE9   9D 00 7D          STA &7D00,X
CCEC   9D 00 7E          STA &7E00,X
CCEF   9D 00 7F          STA &7F00,X
CCF2   E8                INX
CCF3   F0 70             BEQ &CD65
CCF5   6C 5D 03          JMP (&035D)
CCF8   48                PHA                "H"
CCF9   8A                TXA
CCFA   38                SEC                "8"
CCFB   ED 52 03          SBC &0352
CCFE   AA                TAX
CCFF   68                PLA                "h"
CD00   ED 53 03          SBC &0353
CD03   CD 4E 03          CMP &034E
CD06   60         .L46   RTS
CD07   A9 0F      .L47   LDA #&0F
CD09   8D 67 03   .      STA &0367
CD0C   A9 0C      .      LDA #&0C
CD0E   A0 06      .      LDY #&06
CD10   99 68 03   .L48   STA &0368,Y
CD13   88         .      DEY
CD14   10 FA      .      BPL .L48
CD16   E0 07      .      CPX #&07
CD18   90 02      .      BCC .L49
CD1A   A2 06      .      LDX #&06
CD1C   8E 46 02   .L49   STX &0246
CD1F   AD 43 02   .      LDA &0243
CD22   A2 00      .      LDX #&00
CD24   EC 46 02   .L50   CPX &0246
CD27   B0 0B      .      BCS .L51
CD29   BC BA C4   .      LDY &C4BA,X
CD2C   99 68 03   .      STA &0368,Y
CD2F   69 01      .      ADC #&01
CD31   E8         .      INX
CD32   D0 F0      .      BNE .L50
CD34   8D 44 02   .L51   STA &0244
CD37   A8         .      TAY
CD38   F0 CC      .      BEQ .L46
CD3A   A2 11      .      LDX #&11
CD3C   4C 68 F1   .      JMP .L186
CD3F   A9 02             LDA #&02
CD41   24 D0             BIT &D0
CD43   D0 02             BNE &CD47
CD45   50 32             BVC &CD79          "P2"
CD47   AD 09 03          LDA &0309
CD4A   90 03             BCC &CD4F
CD4C   AD 0B 03          LDA &030B
CD4F   70 08             BVS &CD59
CD51   8D 19 03          STA &0319
CD54   68                PLA                "h"
CD55   68                PLA                "h"
CD56   4C AF C6          JMP &C6AF
CD59   08                PHP
CD5A   CD 65 03          CMP &0365
CD5D   F0 19             BEQ &CD78
CD5F   28                PLP                "("
CD60   90 04             BCC &CD66
CD62   CE 65 03          DEC &0365
CD65   60                RTS                "`"
CD66   EE 65 03          INC &0365
CD69   60                RTS                "`"
CD6A   08                PHP
CD6B   48                PHA                "H"
CD6C   AC 4F 03          LDY &034F
CD6F   88                DEY
CD70   D0 1D             BNE &CD8F
CD72   AD 38 03          LDA &0338
CD75   91 D8             STA (&D8),Y
CD77   68                PLA                "h"
CD78   28                PLP                "("
CD79   60                RTS                "`"
CD7A   08                PHP
CD7B   48                PHA                "H"
CD7C   AC 4F 03          LDY &034F
CD7F   88                DEY
CD80   D0 0D             BNE &CD8F
CD82   B1 D8             LDA (&D8),Y
CD84   8D 38 03          STA &0338
CD87   AD 66 03          LDA &0366
CD8A   91 D8             STA (&D8),Y
CD8C   4C 77 CD          JMP &CD77
CD8F   A9 FF             LDA #&FF
CD91   C0 1F             CPY #&1F
CD93   D0 02             BNE &CD97
CD95   A9 3F             LDA #&3F
CD97   85 DA             STA &DA
CD99   B1 D8             LDA (&D8),Y
CD9B   45 DA             EOR &DA
CD9D   91 D8             STA (&D8),Y
CD9F   88                DEY
CDA0   10 F7             BPL &CD99
CDA2   30 D3             BMI &CD77
CDA4   20 5B CE          JSR &CE5B
CDA7   AD 09 03          LDA &0309
CDAA   8D 19 03          STA &0319
CDAD   20 06 CF          JSR &CF06
CDB0   20 F8 CC          JSR &CCF8
CDB3   B0 03             BCS &CDB8
CDB5   6D 54 03          ADC &0354
CDB8   85 DB             STA &DB
CDBA   86 DA             STX &DA
CDBC   85 DC             STA &DC
CDBE   B0 06             BCS &CDC6
CDC0   20 73 CE          JSR &CE73
CDC3   4C CE CD          JMP &CDCE
CDC6   20 F8 CC          JSR &CCF8
CDC9   90 F5             BCC &CDC0
CDCB   20 38 CE          JSR &CE38
CDCE   A5 DC             LDA &DC
CDD0   A6 DA             LDX &DA
CDD2   85 D9             STA &D9
CDD4   86 D8             STX &D8
CDD6   C6 DE             DEC &DE
CDD8   D0 D6             BNE &CDB0
CDDA   A2 28             LDX #&28
CDDC   A0 18             LDY #&18
CDDE   A9 02             LDA #&02
CDE0   D0 06             BNE .L53
CDE2   A2 24             LDX #&24
CDE4   A0 14             LDY #&14
CDE6   A9 04      .L52   LDA #&04
CDE8   85 DA      .L53   STA &DA
CDEA   BD 00 03   .L54   LDA &0300,X
CDED   48         .      PHA
CDEE   B9 00 03   .      LDA &0300,Y
CDF1   9D 00 03   .      STA &0300,X
CDF4   68         .      PLA
CDF5   99 00 03   .      STA &0300,Y
CDF8   E8         .      INX
CDF9   C8         .      INY
CDFA   C6 DA      .      DEC &DA
CDFC   D0 EC      .      BNE .L54
CDFE   60         .      RTS
CDFF   20 5B CE          JSR &CE5B
CE02   AC 0B 03          LDY &030B
CE05   8C 19 03          STY &0319
CE08   20 06 CF          JSR &CF06
CE0B   20 D4 CA          JSR &CAD4
CE0E   10 04             BPL &CE14
CE10   38                SEC                "8"
CE11   ED 54 03          SBC &0354
CE14   85 DB             STA &DB
CE16   86 DA             STX &DA
CE18   85 DC             STA &DC
CE1A   90 06             BCC &CE22
CE1C   20 73 CE          JSR &CE73
CE1F   4C 2A CE          JMP &CE2A
CE22   20 D4 CA          JSR &CAD4
CE25   30 F5             BMI &CE1C
CE27   20 38 CE          JSR &CE38
CE2A   A5 DC             LDA &DC
CE2C   A6 DA             LDX &DA
CE2E   85 D9             STA &D9
CE30   86 D8             STX &D8
CE32   C6 DE             DEC &DE
CE34   D0 D5             BNE &CE0B
CE36   F0 A2             BEQ &CDDA
CE38   AE 4D 03          LDX &034D
CE3B   F0 10             BEQ &CE4D
CE3D   A0 00             LDY #&00
CE3F   B1 DA             LDA (&DA),Y
CE41   91 D8             STA (&D8),Y
CE43   C8                INY
CE44   D0 F9             BNE &CE3F
CE46   E6 D9             INC &D9
CE48   E6 DB             INC &DB
CE4A   CA                DEX
CE4B   D0 F2             BNE &CE3F
CE4D   AC 4C 03          LDY &034C
CE50   F0 08             BEQ &CE5A
CE52   88                DEY
CE53   B1 DA             LDA (&DA),Y
CE55   91 D8             STA (&D8),Y
CE57   98                TYA
CE58   D0 F8             BNE &CE52
CE5A   60                RTS                "`"
CE5B   20 DA CD          JSR &CDDA
CE5E   38                SEC                "8"
CE5F   AD 09 03          LDA &0309
CE62   ED 0B 03          SBC &030B
CE65   85 DE             STA &DE
CE67   D0 05             BNE &CE6E
CE69   68                PLA                "h"
CE6A   68                PLA                "h"
CE6B   4C DA CD          JMP &CDDA
CE6E   AD 08 03          LDA &0308
CE71   10 70             BPL &CEE3
CE73   A5 DA             LDA &DA
CE75   48                PHA                "H"
CE76   38                SEC                "8"
CE77   AD 0A 03          LDA &030A
CE7A   ED 08 03          SBC &0308
CE7D   85 DF             STA &DF
CE7F   AC 4F 03          LDY &034F
CE82   88                DEY
CE83   B1 DA             LDA (&DA),Y
CE85   91 D8             STA (&D8),Y
CE87   88                DEY
CE88   10 F9             BPL &CE83
CE8A   A2 02             LDX #&02
CE8C   18                CLC
CE8D   B5 D8             LDA &D8,X
CE8F   6D 4F 03          ADC &034F
CE92   95 D8             STA &D8,X
CE94   B5 D9             LDA &D9,X
CE96   69 00             ADC #&00
CE98   10 04             BPL &CE9E
CE9A   38                SEC                "8"
CE9B   ED 54 03          SBC &0354
CE9E   95 D9             STA &D9,X
CEA0   CA                DEX
CEA1   CA                DEX
CEA2   F0 E8             BEQ &CE8C
CEA4   C6 DF             DEC &DF
CEA6   10 D7             BPL &CE7F
CEA8   68                PLA                "h"
CEA9   85 DA             STA &DA
CEAB   60                RTS                "`"
CEAC   AD 18 03          LDA &0318
CEAF   48                PHA                "H"
CEB0   20 6E CE          JSR &CE6E
CEB3   20 06 CF          JSR &CF06
CEB6   38                SEC                "8"
CEB7   AD 0A 03          LDA &030A
CEBA   ED 08 03          SBC &0308
CEBD   85 DC             STA &DC
CEBF   AD 58 03          LDA &0358
CEC2   AC 4F 03          LDY &034F
CEC5   88                DEY
CEC6   91 D8             STA (&D8),Y
CEC8   D0 FB             BNE &CEC5
CECA   8A                TXA
CECB   18                CLC
CECC   6D 4F 03          ADC &034F
CECF   AA                TAX
CED0   A5 D9             LDA &D9
CED2   69 00             ADC #&00
CED4   10 04             BPL &CEDA
CED6   38                SEC                "8"
CED7   ED 54 03          SBC &0354
CEDA   86 D8             STX &D8
CEDC   85 D9             STA &D9
CEDE   C6 DC             DEC &DC
CEE0   10 DD             BPL &CEBF
CEE2   68                PLA                "h"
CEE3   8D 18 03          STA &0318
CEE6   38                SEC                "8"
CEE7   60                RTS                "`"
CEE8   AE 18 03          LDX &0318
CEEB   EC 08 03          CPX &0308
CEEE   30 F6             BMI &CEE6
CEF0   EC 0A 03          CPX &030A
CEF3   F0 02             BEQ &CEF7
CEF5   10 EF             BPL &CEE6
CEF7   AE 19 03          LDX &0319
CEFA   EC 0B 03          CPX &030B
CEFD   30 E7             BMI &CEE6
CEFF   EC 09 03          CPX &0309
CF02   F0 02             BEQ &CF06
CF04   10 E0             BPL &CEE6
CF06   AD 19 03          LDA &0319
CF09   0A                ASL A
CF0A   A8                TAY
CF0B   B1 E0             LDA (&E0),Y
CF0D   85 D9             STA &D9
CF0F   C8                INY
CF10   A9 02             LDA #&02
CF12   2D 56 03          AND &0356
CF15   08                PHP
CF16   B1 E0             LDA (&E0),Y
CF18   28                PLP                "("
CF19   F0 03             BEQ &CF1E
CF1B   46 D9             LSR &D9
CF1D   6A                ROR A              "j"
CF1E   6D 50 03          ADC &0350
CF21   85 D8             STA &D8
CF23   A5 D9             LDA &D9
CF25   6D 51 03          ADC &0351
CF28   A8                TAY
CF29   AD 18 03          LDA &0318
CF2C   AE 4F 03          LDX &034F
CF2F   CA                DEX
CF30   F0 12             BEQ &CF44
CF32   E0 0F             CPX #&0F
CF34   F0 03             BEQ &CF39
CF36   90 02             BCC &CF3A
CF38   0A                ASL A
CF39   0A                ASL A
CF3A   0A                ASL A
CF3B   0A                ASL A
CF3C   90 02             BCC &CF40
CF3E   C8                INY
CF3F   C8                INY
CF40   0A                ASL A
CF41   90 02             BCC &CF45
CF43   C8                INY
CF44   18                CLC
CF45   65 D8             ADC &D8
CF47   85 D8             STA &D8
CF49   8D 4A 03          STA &034A
CF4C   AA                TAX
CF4D   98                TYA
CF4E   69 00             ADC #&00
CF50   8D 4B 03          STA &034B
CF53   10 04             BPL &CF59
CF55   38                SEC                "8"
CF56   ED 54 03          SBC &0354
CF59   85 D9             STA &D9
CF5B   18                CLC
CF5C   60                RTS                "`"
CF5D   AE 59 03          LDX &0359
CF60   AC 5B 03          LDY &035B
CF63   20 B3 D0          JSR &D0B3
CF66   20 86 D4          JSR .L69
CF69   A0 00             LDY #&00
CF6B   84 DC             STY &DC
CF6D   A4 DC             LDY &DC
CF6F   B1 DE             LDA (&DE),Y
CF71   F0 13             BEQ &CF86
CF73   85 DD             STA &DD
CF75   10 03             BPL &CF7A
CF77   20 E3 D0          JSR &D0E3
CF7A   EE 24 03          INC &0324
CF7D   D0 03             BNE &CF82
CF7F   EE 25 03          INC &0325
CF82   06 DD             ASL &DD
CF84   D0 EF             BNE &CF75
CF86   A2 28             LDX #&28
CF88   A0 24             LDY #&24
CF8A   20 82 D4          JSR .L68
CF8D   AC 26 03          LDY &0326
CF90   D0 03             BNE &CF95
CF92   CE 27 03          DEC &0327
CF95   CE 26 03          DEC &0326
CF98   A4 DC             LDY &DC
CF9A   C8                INY
CF9B   C0 08             CPY #&08
CF9D   D0 CC             BNE &CF6B
CF9F   A2 28             LDX #&28
CFA1   A0 24             LDY #&24
CFA3   4C 8A D4          JMP .L71
CFA6   A2 06             LDX #&06
CFA8   A0 26             LDY #&26
CFAA   20 82 D4          JSR .L68
CFAD   A2 00             LDX #&00
CFAF   A0 24             LDY #&24
CFB1   20 82 D4          JSR .L68
CFB4   4C B8 D1          JMP &D1B8
CFB7   AE 60 03          LDX &0360
CFBA   F0 20             BEQ &CFDC
CFBC   20 3E D0          JSR &D03E
CFBF   AE 60 03          LDX &0360
CFC2   A5 D0             LDA &D0
CFC4   29 20             AND #&20           ") "
CFC6   D0 95             BNE &CF5D
CFC8   A0 07             LDY #&07
CFCA   E0 03             CPX #&03
CFCC   F0 20             BEQ &CFEE
CFCE   B0 4E             BCS &D01E
CFD0   B1 DE             LDA (&DE),Y
CFD2   05 D2             ORA &D2
CFD4   45 D3             EOR &D3
CFD6   91 D8             STA (&D8),Y
CFD8   88                DEY
CFD9   10 F5             BPL &CFD0
CFDB   60                RTS                "`"
CFDC   A0 02             LDY #&02
CFDE   D9 B6 C4          CMP &C4B6,Y
CFE1   F0 06             BEQ &CFE9
CFE3   88                DEY
CFE4   10 F8             BPL &CFDE
CFE6   81 D8             STA (&D8,X)
CFE8   60                RTS                "`"
CFE9   B9 B7 C4          LDA &C4B7,Y
CFEC   D0 F8             BNE &CFE6
CFEE   B1 DE             LDA (&DE),Y
CFF0   48                PHA                "H"
CFF1   4A                LSR A              "J"
CFF2   4A                LSR A              "J"
CFF3   4A                LSR A              "J"
CFF4   4A                LSR A              "J"
CFF5   AA                TAX
CFF6   BD 1F C3          LDA &C31F,X
CFF9   05 D2             ORA &D2
CFFB   45 D3             EOR &D3
CFFD   91 D8             STA (&D8),Y
CFFF   98                TYA
D000   18                CLC
D001   69 08             ADC #&08
D003   A8                TAY
D004   68                PLA                "h"
D005   29 0F             AND #&0F
D007   AA                TAX
D008   BD 1F C3          LDA &C31F,X
D00B   05 D2             ORA &D2
D00D   45 D3             EOR &D3
D00F   91 D8             STA (&D8),Y
D011   98                TYA
D012   E9 08             SBC #&08
D014   A8                TAY
D015   10 D7             BPL &CFEE
D017   60                RTS                "`"
D018   98                TYA
D019   E9 21             SBC #&21
D01B   30 FA             BMI &D017
D01D   A8                TAY
D01E   B1 DE             LDA (&DE),Y
D020   85 DC             STA &DC
D022   38                SEC                "8"
D023   A9 00             LDA #&00
D025   26 DC             ROL &DC
D027   F0 EF             BEQ &D018
D029   2A                ROL A              "*"
D02A   06 DC             ASL &DC
D02C   2A                ROL A              "*"
D02D   AA                TAX
D02E   BD 2F C3          LDA &C32F,X
D031   05 D2             ORA &D2
D033   45 D3             EOR &D3
D035   91 D8             STA (&D8),Y
D037   18                CLC
D038   98                TYA
D039   69 08             ADC #&08
D03B   A8                TAY
D03C   90 E5             BCC &D023
D03E   0A                ASL A
D03F   2A                ROL A              "*"
D040   2A                ROL A              "*"
D041   85 DE             STA &DE
D043   29 03             AND #&03
D045   2A                ROL A              "*"
D046   AA                TAX
D047   29 03             AND #&03
D049   69 BF             ADC #&BF
D04B   A8                TAY
D04C   BD 0D C4          LDA &C40D,X
D04F   2C 67 03          BIT &0367
D052   F0 03             BEQ &D057
D054   BC 67 03          LDY &0367,X
D057   84 DF             STY &DF
D059   A5 DE             LDA &DE
D05B   29 F8             AND #&F8
D05D   85 DE             STA &DE
D05F   60                RTS                "`"
D060   A2 20             LDX #&20
D062   20 4D D1          JSR .L56
D065   AD 1F 03          LDA &031F
D068   C9 04             CMP #&04
D06A   F0 6D             BEQ &D0D9
D06C   A0 05             LDY #&05
D06E   29 03             AND #&03
D070   F0 0E             BEQ &D080
D072   4A                LSR A              "J"
D073   B0 03             BCS &D078
D075   88                DEY
D076   D0 08             BNE &D080
D078   AA                TAX
D079   BC 5B 03          LDY &035B,X
D07C   BD 59 03          LDA &0359,X
D07F   AA                TAX
D080   20 B3 D0          JSR &D0B3
D083   AD 1F 03          LDA &031F
D086   30 23             BMI &D0AB          "0#"
D088   0A                ASL A
D089   10 3B             BPL &D0C6
D08B   29 F0             AND #&F0
D08D   0A                ASL A
D08E   F0 46             BEQ &D0D6
D090   49 40             EOR #&40           "I@"
D092   F0 14             BEQ &D0A8
D094   48                PHA                "H"
D095   20 DC D0          JSR &D0DC
D098   68                PLA                "h"
D099   49 60             EOR #&60           "I`"
D09B   F0 11             BEQ &D0AE
D09D   C9 40             CMP #&40
D09F   D0 0A             BNE &D0AB
D0A1   A9 02             LDA #&02
D0A3   85 DC             STA &DC
D0A5   4C 06 D5          JMP &D506
D0A8   4C EA D5          JMP &D5EA
D0AB   4C 38 C9          JMP &C938
D0AE   85 DC             STA &DC
D0B0   4C BF D4          JMP &D4BF
D0B3   8A                TXA
D0B4   19 1C C4          ORA &C41C,Y
D0B7   59 1D C4          EOR &C41D,Y
D0BA   85 D4             STA &D4
D0BC   8A                TXA
D0BD   19 1B C4          ORA &C41B,Y
D0C0   59 20 C4          EOR &C420,Y
D0C3   85 D5             STA &D5
D0C5   60                RTS                "`"
D0C6   0A                ASL A
D0C7   30 E2             BMI &D0AB
D0C9   0A                ASL A
D0CA   0A                ASL A
D0CB   10 03             BPL &D0D0
D0CD   20 EB D0          JSR &D0EB
D0D0   20 ED D1          JSR &D1ED
D0D3   4C D9 D0          JMP &D0D9
D0D6   20 EB D0          JSR &D0EB
D0D9   20 E2 CD          JSR &CDE2
D0DC   A0 24             LDY #&24
D0DE   A2 20             LDX #&20
D0E0   4C 8A D4          JMP .L71
D0E3   A2 24             LDX #&24
D0E5   20 5F D8          JSR &D85F
D0E8   F0 06             BEQ &D0F0
D0EA   60                RTS                "`"
D0EB   20 5D D8          JSR &D85D
D0EE   D0 13             BNE &D103
D0F0   AC 1A 03          LDY &031A
D0F3   A5 D1             LDA &D1
D0F5   25 D4             AND &D4
D0F7   11 D6             ORA (&D6),Y
D0F9   85 DA             STA &DA
D0FB   A5 D5             LDA &D5
D0FD   25 D1             AND &D1
D0FF   45 DA             EOR &DA
D101   91 D6             STA (&D6),Y
D103   60                RTS                "`"
D104   B1 D6             LDA (&D6),Y
D106   05 D4             ORA &D4
D108   45 D5             EOR &D5
D10A   91 D6             STA (&D6),Y
D10C   60                RTS                "`"
D10D   A2 24             LDX #&24
D10F   A0 00             LDY #&00
D111   84 DA             STY &DA
D113   A0 02             LDY #&02
D115   20 28 D1          JSR &D128
D118   06 DA             ASL &DA
D11A   06 DA             ASL &DA
D11C   CA                DEX
D11D   CA                DEX
D11E   A0 00             LDY #&00
D120   20 28 D1          JSR &D128
D123   E8                INX
D124   E8                INX
D125   A5 DA             LDA &DA
D127   60                RTS                "`"
D128   BD 02 03          LDA &0302,X
D12B   D9 00 03          CMP &0300,Y
D12E   BD 03 03          LDA &0303,X
D131   F9 01 03          SBC &0301,Y
D134   30 10             BMI &D146
D136   B9 04 03          LDA &0304,Y
D139   DD 02 03          CMP &0302,X
D13C   B9 05 03          LDA &0305,Y
D13F   FD 03 03          SBC &0303,X
D142   10 04             BPL &D148
D144   E6 DA             INC &DA
D146   E6 DA             INC &DA
D148   60                RTS                "`"
D149   A9 FF      .L55   LDA #&FF
D14B   D0 03      .      BNE .L57
D14D   AD 1F 03   .L56   LDA &031F
D150   85 DA      .L57   STA &DA
D152   A0 02      .      LDY #&02
D154   20 76 D1   .      JSR .L60
D157   20 AD D1   .      JSR .L63
D15A   A0 00      .      LDY #&00
D15C   CA         .      DEX
D15D   CA         .      DEX
D15E   20 76 D1   .      JSR .L60
D161   AC 61 03   .      LDY &0361
D164   C0 03      .      CPY #&03
D166   F0 05      .      BEQ .L58
D168   B0 06      .      BCS .L59
D16A   20 AD D1   .      JSR .L63
D16D   20 AD D1   .L58   JSR .L63
D170   AD 56 03   .L59   LDA &0356
D173   D0 38      .      BNE .L63
D175   60         .      RTS
D176   18         .L60   CLC
D177   A5 DA      .      LDA &DA
D179   29 04      .      AND #&04
D17B   F0 09      .      BEQ .L61
D17D   BD 02 03   .      LDA &0302,X
D180   48         .      PHA
D181   BD 03 03   .      LDA &0303,X
D184   90 0E      .      BCC .L62
D186   BD 02 03   .L61   LDA &0302,X
D189   79 10 03   .      ADC &0310,Y
D18C   48         .      PHA
D18D   BD 03 03   .      LDA &0303,X
D190   79 11 03   .      ADC &0311,Y
D193   18         .      CLC
D194   99 11 03   .L62   STA &0311,Y
D197   79 0D 03   .      ADC &030D,Y
D19A   9D 03 03   .      STA &0303,X
D19D   68         .      PLA
D19E   99 10 03   .      STA &0310,Y
D1A1   18         .      CLC
D1A2   79 0C 03   .      ADC &030C,Y
D1A5   9D 02 03   .      STA &0302,X
D1A8   90 03      .      BCC .L63
D1AA   FE 03 03   .      INC &0303,X
D1AD   BD 03 03   .L63   LDA &0303,X
D1B0   0A         .      ASL A
D1B1   7E 03 03   .      ROR &0303,X
D1B4   7E 02 03   .      ROR &0302,X
D1B7   60         .      RTS
D1B8   A0 10             LDY #&10
D1BA   20 88 D4          JSR .L70
D1BD   A2 02             LDX #&02
D1BF   A0 02             LDY #&02
D1C1   20 D5 D1          JSR &D1D5
D1C4   A2 00             LDX #&00
D1C6   A0 04             LDY #&04
D1C8   AD 61 03          LDA &0361
D1CB   88                DEY
D1CC   4A                LSR A              "J"
D1CD   D0 FC             BNE &D1CB
D1CF   AD 56 03          LDA &0356
D1D2   F0 01             BEQ &D1D5
D1D4   C8                INY
D1D5   1E 10 03          ASL &0310,X
D1D8   3E 11 03          ROL &0311,X
D1DB   88                DEY
D1DC   D0 F7             BNE &D1D5
D1DE   38                SEC                "8"
D1DF   20 E3 D1          JSR &D1E3
D1E2   E8                INX
D1E3   BD 10 03          LDA &0310,X
D1E6   FD 0C 03          SBC &030C,X
D1E9   9D 10 03          STA &0310,X
D1EC   60                RTS                "`"
D1ED   20 0D D4          JSR &D40D
D1F0   AD 2B 03          LDA &032B
D1F3   4D 29 03          EOR &0329
D1F6   30 0F             BMI &D207
D1F8   AD 2A 03          LDA &032A
D1FB   CD 28 03          CMP &0328
D1FE   AD 2B 03          LDA &032B
D201   ED 29 03          SBC &0329
D204   4C 14 D2          JMP &D214
D207   AD 28 03          LDA &0328
D20A   18                CLC
D20B   6D 2A 03          ADC &032A
D20E   AD 29 03          LDA &0329
D211   6D 2B 03          ADC &032B
D214   6A                ROR A              "j"
D215   A2 00             LDX #&00
D217   4D 2B 03          EOR &032B
D21A   10 02             BPL &D21E
D21C   A2 02             LDX #&02
D21E   86 DE             STX &DE
D220   BD AA C4          LDA &C4AA,X
D223   8D 5D 03          STA &035D
D226   BD AB C4          LDA &C4AB,X
D229   8D 5E 03          STA &035E
D22C   BD 29 03          LDA &0329,X
D22F   10 04             BPL &D235
D231   A2 24             LDX #&24
D233   D0 02             BNE &D237
D235   A2 20             LDX #&20
D237   86 DF             STX &DF
D239   A0 2C             LDY #&2C
D23B   20 8A D4          JSR .L71
D23E   A5 DF             LDA &DF
D240   49 04             EOR #&04
D242   85 DD             STA &DD
D244   05 DE             ORA &DE
D246   AA                TAX
D247   20 80 D4          JSR .L67
D24A   AD 1F 03          LDA &031F
D24D   29 10             AND #&10
D24F   0A                ASL A
D250   0A                ASL A
D251   0A                ASL A
D252   85 DB             STA &DB
D254   A2 2C             LDX #&2C
D256   20 0F D1          JSR &D10F
D259   85 DC             STA &DC
D25B   F0 06             BEQ &D263
D25D   A9 40             LDA #&40
D25F   05 DB             ORA &DB
D261   85 DB             STA &DB
D263   A6 DD             LDX &DD
D265   20 0F D1          JSR &D10F
D268   24 DC             BIT &DC
D26A   F0 01             BEQ &D26D
D26C   60                RTS                "`"
D26D   A6 DE             LDX &DE
D26F   F0 02             BEQ &D273
D271   4A                LSR A              "J"
D272   4A                LSR A              "J"
D273   29 02             AND #&02
D275   F0 07             BEQ &D27E
D277   8A                TXA
D278   09 04             ORA #&04
D27A   AA                TAX
D27B   20 80 D4          JSR .L67
D27E   20 2C D4          JSR &D42C
D281   A5 DE             LDA &DE
D283   49 02             EOR #&02
D285   AA                TAX
D286   A8                TAY
D287   AD 29 03          LDA &0329
D28A   4D 2B 03          EOR &032B
D28D   10 01             BPL &D290
D28F   E8                INX
D290   BD AE C4          LDA &C4AE,X
D293   8D 32 03          STA &0332
D296   BD B2 C4          LDA &C4B2,X
D299   8D 33 03          STA &0333
D29C   A9 7F             LDA #&7F
D29E   8D 34 03          STA &0334
D2A1   24 DB             BIT &DB
D2A3   70 29             BVS &D2CE          "p)"
D2A5   BD 47 C4          LDA &C447,X
D2A8   AA                TAX
D2A9   38                SEC                "8"
D2AA   BD 00 03          LDA &0300,X
D2AD   F9 2C 03          SBC &032C,Y
D2B0   85 DA             STA &DA
D2B2   BD 01 03          LDA &0301,X
D2B5   F9 2D 03          SBC &032D,Y
D2B8   A4 DA             LDY &DA
D2BA   AA                TAX
D2BB   10 03             BPL &D2C0
D2BD   20 9B D4          JSR &D49B
D2C0   AA                TAX
D2C1   C8                INY
D2C2   D0 01             BNE &D2C5
D2C4   E8                INX
D2C5   8A                TXA
D2C6   F0 02             BEQ &D2CA
D2C8   A0 00             LDY #&00
D2CA   84 DF             STY &DF
D2CC   F0 09             BEQ &D2D7
D2CE   8A                TXA
D2CF   4A                LSR A              "J"
D2D0   6A                ROR A              "j"
D2D1   09 02             ORA #&02
D2D3   45 DE             EOR &DE
D2D5   85 DE             STA &DE
D2D7   A2 2C             LDX #&2C
D2D9   20 64 D8          JSR &D864
D2DC   A6 DC             LDX &DC
D2DE   D0 02             BNE &D2E2
D2E0   C6 DD             DEC &DD
D2E2   CA                DEX
D2E3   A5 DB             LDA &DB
D2E5   F0 1F             BEQ &D306
D2E7   10 10             BPL &D2F9
D2E9   2C 34 03          BIT &0334
D2EC   10 05             BPL &D2F3
D2EE   CE 34 03          DEC &0334
D2F1   D0 23             BNE &D316
D2F3   EE 34 03          INC &0334
D2F6   0A                ASL A
D2F7   10 0D             BPL &D306
D2F9   86 DC             STX &DC
D2FB   A2 2C             LDX #&2C
D2FD   20 5F D8          JSR &D85F
D300   A6 DC             LDX &DC
D302   09 00             ORA #&00
D304   D0 10             BNE &D316
D306   A5 D1             LDA &D1
D308   25 D4             AND &D4
D30A   11 D6             ORA (&D6),Y
D30C   85 DA             STA &DA
D30E   A5 D5             LDA &D5
D310   25 D1             AND &D1
D312   45 DA             EOR &DA
D314   91 D6             STA (&D6),Y
D316   38                SEC                "8"
D317   AD 35 03          LDA &0335
D31A   ED 37 03          SBC &0337
D31D   8D 35 03          STA &0335
D320   AD 36 03          LDA &0336
D323   ED 38 03          SBC &0338
D326   B0 11             BCS &D339
D328   85 DA             STA &DA
D32A   AD 35 03          LDA &0335
D32D   6D 39 03          ADC &0339
D330   8D 35 03          STA &0335
D333   A5 DA             LDA &DA
D335   6D 3A 03          ADC &033A
D338   18                CLC
D339   8D 36 03          STA &0336
D33C   08                PHP
D33D   B0 09             BCS &D348
D33F   6C 32 03          JMP (&0332)
D342   88                DEY
D343   10 03             BPL &D348
D345   20 D3 D3          JSR &D3D3
D348   6C 5D 03          JMP (&035D)
D34B   C8                INY
D34C   C0 08             CPY #&08
D34E   D0 F8             BNE &D348
D350   18                CLC
D351   A5 D6             LDA &D6
D353   6D 52 03          ADC &0352
D356   85 D6             STA &D6
D358   A5 D7             LDA &D7
D35A   6D 53 03          ADC &0353
D35D   10 04             BPL &D363
D35F   38                SEC                "8"
D360   ED 54 03          SBC &0354
D363   85 D7             STA &D7
D365   A0 00             LDY #&00
D367   6C 5D 03          JMP (&035D)
D36A   46 D1             LSR &D1
D36C   90 DA             BCC &D348
D36E   20 ED D3          JSR &D3ED
D371   6C 5D 03          JMP (&035D)
D374   06 D1             ASL &D1
D376   90 D0             BCC &D348
D378   20 FD D3          JSR &D3FD
D37B   6C 5D 03          JMP (&035D)
D37E   88                DEY
D37F   10 0C             BPL &D38D
D381   20 D3 D3          JSR &D3D3
D384   D0 07             BNE &D38D
D386   46 D1             LSR &D1
D388   90 03             BCC &D38D
D38A   20 ED D3          JSR &D3ED
D38D   28                PLP                "("
D38E   E8                INX
D38F   D0 04             BNE &D395
D391   E6 DD             INC &DD
D393   F0 0A             BEQ &D39F
D395   24 DB             BIT &DB
D397   70 07             BVS &D3A0
D399   B0 35             BCS &D3D0
D39B   C6 DF             DEC &DF
D39D   D0 31             BNE &D3D0
D39F   60                RTS                "`"
D3A0   A5 DE             LDA &DE
D3A2   86 DC             STX &DC
D3A4   29 02             AND #&02
D3A6   AA                TAX
D3A7   B0 19             BCS &D3C2
D3A9   24 DE             BIT &DE
D3AB   30 0A             BMI &D3B7
D3AD   FE 2C 03          INC &032C,X
D3B0   D0 10             BNE &D3C2
D3B2   FE 2D 03          INC &032D,X
D3B5   90 0B             BCC &D3C2
D3B7   BD 2C 03          LDA &032C,X
D3BA   D0 03             BNE &D3BF
D3BC   DE 2D 03          DEC &032D,X
D3BF   DE 2C 03          DEC &032C,X
D3C2   8A                TXA
D3C3   49 02             EOR #&02
D3C5   AA                TAX
D3C6   FE 2C 03          INC &032C,X
D3C9   D0 03             BNE &D3CE
D3CB   FE 2D 03          INC &032D,X
D3CE   A6 DC             LDX &DC
D3D0   4C E3 D2          JMP &D2E3
D3D3   38                SEC                "8"
D3D4   A5 D6             LDA &D6
D3D6   ED 52 03          SBC &0352
D3D9   85 D6             STA &D6
D3DB   A5 D7             LDA &D7
D3DD   ED 53 03          SBC &0353
D3E0   CD 4E 03          CMP &034E
D3E3   B0 03             BCS &D3E8
D3E5   6D 54 03          ADC &0354
D3E8   85 D7             STA &D7
D3EA   A0 07             LDY #&07
D3EC   60                RTS                "`"
D3ED   AD 62 03          LDA &0362
D3F0   85 D1             STA &D1
D3F2   A5 D6             LDA &D6
D3F4   69 07             ADC #&07
D3F6   85 D6             STA &D6
D3F8   90 02             BCC &D3FC
D3FA   E6 D7             INC &D7
D3FC   60                RTS                "`"
D3FD   AD 63 03          LDA &0363
D400   85 D1             STA &D1
D402   A5 D6             LDA &D6
D404   D0 02             BNE &D408
D406   C6 D7             DEC &D7
D408   E9 08             SBC #&08
D40A   85 D6             STA &D6
D40C   60                RTS                "`"
D40D   A0 28             LDY #&28
D40F   A2 20             LDX #&20
D411   20 18 D4   .L64   JSR .L65
D414   E8         .      INX
D415   E8         .      INX
D416   C8         .      INY
D417   C8         .      INY
D418   38         .L65   SEC
D419   BD 04 03   .      LDA &0304,X
D41C   FD 00 03   .      SBC &0300,X
D41F   99 00 03   .      STA &0300,Y
D422   BD 05 03   .      LDA &0305,X
D425   FD 01 03   .      SBC &0301,X
D428   99 01 03   .      STA &0301,Y
D42B   60         .      RTS
D42C   A5 DE             LDA &DE
D42E   D0 07             BNE &D437
D430   A2 28             LDX #&28
D432   A0 2A             LDY #&2A
D434   20 DE CD          JSR &CDDE
D437   A2 28             LDX #&28
D439   A0 37             LDY #&37
D43B   20 8A D4          JSR .L71
D43E   38                SEC                "8"
D43F   A6 DE             LDX &DE
D441   AD 30 03          LDA &0330
D444   FD 2C 03          SBC &032C,X
D447   A8                TAY
D448   AD 31 03          LDA &0331
D44B   FD 2D 03          SBC &032D,X
D44E   30 03             BMI &D453
D450   20 9B D4          JSR &D49B
D453   85 DD             STA &DD
D455   84 DC             STY &DC
D457   A2 35             LDX #&35
D459   20 67 D4          JSR &D467
D45C   4A                LSR A              "J"
D45D   9D 01 03          STA &0301,X
D460   98                TYA
D461   6A                ROR A              "j"
D462   9D 00 03          STA &0300,X
D465   CA                DEX
D466   CA                DEX
D467   BC 04 03          LDY &0304,X
D46A   BD 05 03          LDA &0305,X
D46D   10 0C             BPL &D47B
D46F   20 9B D4          JSR &D49B
D472   9D 05 03          STA &0305,X
D475   48                PHA                "H"
D476   98                TYA
D477   9D 04 03          STA &0304,X
D47A   68                PLA                "h"
D47B   60                RTS                "`"
D47C   A9 08      .L66   LDA #&08
D47E   D0 0C      .      BNE .L72
D480   A0 30      .L67   LDY #&30
D482   A9 02      .L68   LDA #&02
D484   D0 06      .      BNE .L72
D486   A0 28      .L69   LDY #&28
D488   A2 24      .L70   LDX #&24
D48A   A9 04      .L71   LDA #&04
D48C   85 DA      .L72   STA &DA
D48E   BD 00 03   .L73   LDA &0300,X
D491   99 00 03   .      STA &0300,Y
D494   E8         .      INX
D495   C8         .      INY
D496   C6 DA      .      DEC &DA
D498   D0 F4      .      BNE .L73
D49A   60         .      RTS
D49B   48                PHA                "H"
D49C   98                TYA
D49D   49 FF             EOR #&FF
D49F   A8                TAY
D4A0   68                PLA                "h"
D4A1   49 FF             EOR #&FF
D4A3   C8                INY
D4A4   D0 03             BNE &D4A9
D4A6   18                CLC
D4A7   69 01             ADC #&01
D4A9   60                RTS                "`"
D4AA   20 5D D8          JSR &D85D
D4AD   D0 08             BNE &D4B7
D4AF   B1 D6             LDA (&D6),Y
D4B1   4D 5A 03          EOR &035A
D4B4   85 DA             STA &DA
D4B6   60                RTS                "`"
D4B7   68                PLA                "h"
D4B8   68                PLA                "h"
D4B9   EE 26 03          INC &0326
D4BC   4C 45 D5          JMP &D545
D4BF   20 AA D4          JSR &D4AA
D4C2   25 D1             AND &D1
D4C4   D0 F3             BNE &D4B9
D4C6   A2 00             LDX #&00
D4C8   20 92 D5          JSR &D592
D4CB   F0 2D             BEQ &D4FA
D4CD   AC 1A 03          LDY &031A
D4D0   06 D1             ASL &D1
D4D2   B0 05             BCS &D4D9
D4D4   20 74 D5          JSR &D574
D4D7   90 21             BCC &D4FA
D4D9   20 FD D3          JSR &D3FD
D4DC   B1 D6             LDA (&D6),Y
D4DE   4D 5A 03          EOR &035A
D4E1   85 DA             STA &DA
D4E3   D0 12             BNE &D4F7
D4E5   38                SEC                "8"
D4E6   8A                TXA
D4E7   6D 61 03          ADC &0361
D4EA   90 04             BCC &D4F0
D4EC   E6 DB             INC &DB
D4EE   10 07             BPL &D4F7
D4F0   AA                TAX
D4F1   20 04 D1          JSR &D104
D4F4   38                SEC                "8"
D4F5   B0 E2             BCS &D4D9
D4F7   20 74 D5          JSR &D574
D4FA   A0 00             LDY #&00
D4FC   20 AC D5          JSR &D5AC
D4FF   A0 20             LDY #&20
D501   A2 24             LDX #&24
D503   20 E6 CD          JSR .L52
D506   20 AA D4          JSR &D4AA
D509   A2 04             LDX #&04
D50B   20 92 D5          JSR &D592
D50E   8A                TXA
D50F   D0 02             BNE &D513
D511   C6 DB             DEC &DB
D513   CA                DEX
D514   20 4B D5          JSR &D54B
D517   90 27             BCC &D540
D519   20 ED D3          JSR &D3ED
D51C   B1 D6             LDA (&D6),Y
D51E   4D 5A 03          EOR &035A
D521   85 DA             STA &DA
D523   A5 DC             LDA &DC
D525   D0 ED             BNE &D514
D527   A5 DA             LDA &DA
D529   D0 12             BNE &D53D
D52B   38                SEC                "8"
D52C   8A                TXA
D52D   6D 61 03          ADC &0361
D530   90 04             BCC &D536
D532   E6 DB             INC &DB
D534   10 07             BPL &D53D
D536   AA                TAX
D537   20 04 D1          JSR &D104
D53A   38                SEC                "8"
D53B   B0 DC             BCS &D519
D53D   20 4B D5          JSR &D54B
D540   A0 04             LDY #&04
D542   20 AC D5          JSR &D5AC
D545   20 D9 D0          JSR &D0D9
D548   4C B8 D1          JMP &D1B8
D54B   A5 D1             LDA &D1
D54D   48                PHA                "H"
D54E   18                CLC
D54F   90 0F             BCC &D560
D551   68                PLA                "h"
D552   E8                INX
D553   D0 04             BNE &D559
D555   E6 DB             INC &DB
D557   10 16             BPL &D56F
D559   46 D1             LSR &D1
D55B   B0 12             BCS &D56F
D55D   05 D1             ORA &D1
D55F   48                PHA                "H"
D560   A5 D1             LDA &D1
D562   24 DA             BIT &DA
D564   08                PHP
D565   68                PLA                "h"
D566   45 DC             EOR &DC
D568   48                PHA                "H"
D569   28                PLP                "("
D56A   F0 E5             BEQ &D551
D56C   68                PLA                "h"
D56D   45 D1             EOR &D1
D56F   85 D1             STA &D1
D571   4C F0 D0          JMP &D0F0
D574   A9 00             LDA #&00
D576   18                CLC
D577   90 0A             BCC &D583
D579   E8                INX
D57A   D0 04             BNE &D580
D57C   E6 DB             INC &DB
D57E   10 EF             BPL &D56F
D580   0A                ASL A
D581   B0 0B             BCS &D58E
D583   05 D1             ORA &D1
D585   24 DA             BIT &DA
D587   F0 F0             BEQ &D579
D589   45 D1             EOR &D1
D58B   4A                LSR A              "J"
D58C   90 E1             BCC &D56F
D58E   6A                ROR A              "j"
D58F   38                SEC                "8"
D590   B0 DD             BCS &D56F
D592   BD 00 03          LDA &0300,X
D595   38                SEC                "8"
D596   ED 20 03          SBC &0320
D599   A8                TAY
D59A   BD 01 03          LDA &0301,X
D59D   ED 21 03          SBC &0321
D5A0   30 03             BMI &D5A5
D5A2   20 9B D4          JSR &D49B
D5A5   85 DB             STA &DB
D5A7   98                TYA
D5A8   AA                TAX
D5A9   05 DB             ORA &DB
D5AB   60                RTS                "`"
D5AC   84 DA             STY &DA
D5AE   8A                TXA
D5AF   A8                TAY
D5B0   A5 DB             LDA &DB
D5B2   30 02             BMI &D5B6
D5B4   A9 00             LDA #&00
D5B6   A6 DA             LDX &DA
D5B8   D0 03             BNE &D5BD
D5BA   20 9B D4          JSR &D49B
D5BD   48                PHA                "H"
D5BE   18                CLC
D5BF   98                TYA
D5C0   7D 00 03          ADC &0300,X
D5C3   8D 20 03          STA &0320
D5C6   68                PLA                "h"
D5C7   7D 01 03          ADC &0301,X
D5CA   8D 21 03          STA &0321
D5CD   60                RTS                "`"
D5CE   A9 03             LDA #&03
D5D0   20 D5 D5          JSR &D5D5
D5D3   A9 07             LDA #&07
D5D5   48                PHA                "H"
D5D6   20 E2 CD          JSR &CDE2
D5D9   20 B8 D1          JSR &D1B8
D5DC   A2 03             LDX #&03
D5DE   68                PLA                "h"
D5DF   A8                TAY
D5E0   BD 10 03          LDA &0310,X
D5E3   91 F0             STA (&F0),Y
D5E5   88                DEY
D5E6   CA                DEX
D5E7   10 F7             BPL &D5E0
D5E9   60                RTS                "`"
D5EA   A2 20             LDX #&20
D5EC   A0 3E             LDY #&3E
D5EE   20 7C D4          JSR .L66
D5F1   20 32 D6          JSR &D632
D5F4   A2 14             LDX #&14
D5F6   A0 24             LDY #&24
D5F8   20 36 D6          JSR &D636
D5FB   20 32 D6          JSR &D632
D5FE   A2 20             LDX #&20
D600   A0 2A             LDY #&2A
D602   20 11 D4          JSR .L64
D605   AD 2B 03          LDA &032B
D608   8D 32 03          STA &0332
D60B   A2 28             LDX #&28
D60D   20 59 D4          JSR &D459
D610   A0 2E             LDY #&2E
D612   20 DE D0          JSR &D0DE
D615   20 E2 CD          JSR &CDE2
D618   18                CLC
D619   20 58 D6          JSR &D658
D61C   20 E2 CD          JSR &CDE2
D61F   A2 20             LDX #&20
D621   20 E4 CD          JSR &CDE4
D624   38                SEC                "8"
D625   20 58 D6          JSR &D658
D628   A2 3E             LDX #&3E
D62A   A0 20             LDY #&20
D62C   20 7C D4          JSR .L66
D62F   4C D9 D0          JMP &D0D9
D632   A2 20             LDX #&20
D634   A0 14             LDY #&14
D636   BD 02 03          LDA &0302,X
D639   D9 02 03          CMP &0302,Y
D63C   BD 03 03          LDA &0303,X
D63F   F9 03 03          SBC &0303,Y
D642   30 13             BMI &D657
D644   4C E6 CD          JMP .L52
D647   AD 18 03          LDA &0318
D64A   38                SEC                "8"
D64B   ED 08 03          SBC &0308
D64E   AA                TAX
D64F   AD 19 03          LDA &0319
D652   38                SEC                "8"
D653   ED 0B 03          SBC &030B
D656   A8                TAY
D657   60                RTS                "`"
D658   08                PHP
D659   A2 20             LDX #&20
D65B   A0 35             LDY #&35
D65D   20 11 D4          JSR .L64
D660   AD 36 03          LDA &0336
D663   8D 3D 03          STA &033D
D666   A2 33             LDX #&33
D668   20 59 D4          JSR &D459
D66B   A0 39             LDY #&39
D66D   20 DE D0          JSR &D0DE
D670   38                SEC                "8"
D671   AD 22 03          LDA &0322
D674   ED 26 03          SBC &0326
D677   8D 1B 03          STA &031B
D67A   AD 23 03          LDA &0323
D67D   ED 27 03          SBC &0327
D680   8D 1C 03          STA &031C
D683   0D 1B 03          ORA &031B
D686   F0 17             BEQ &D69F
D688   20 A2 D6          JSR &D6A2
D68B   A2 33             LDX #&33
D68D   20 74 D7          JSR &D774
D690   A2 28             LDX #&28
D692   20 74 D7          JSR &D774
D695   EE 1B 03          INC &031B
D698   D0 EE             BNE &D688
D69A   EE 1C 03          INC &031C
D69D   D0 E9             BNE &D688
D69F   28                PLP                "("
D6A0   90 B5             BCC &D657
D6A2   A2 39             LDX #&39
D6A4   A0 2E             LDY #&2E
D6A6   86 DE             STX &DE
D6A8   BD 00 03          LDA &0300,X
D6AB   D9 00 03          CMP &0300,Y
D6AE   BD 01 03          LDA &0301,X
D6B1   F9 01 03          SBC &0301,Y
D6B4   30 06             BMI &D6BC
D6B6   98                TYA
D6B7   A4 DE             LDY &DE
D6B9   AA                TAX
D6BA   86 DE             STX &DE
D6BC   84 DF             STY &DF
D6BE   B9 00 03          LDA &0300,Y
D6C1   48                PHA                "H"
D6C2   B9 01 03          LDA &0301,Y
D6C5   48                PHA                "H"
D6C6   A6 DF             LDX &DF
D6C8   20 0F D1          JSR &D10F
D6CB   F0 0D             BEQ &D6DA
D6CD   C9 02             CMP #&02
D6CF   D0 3D             BNE &D70E
D6D1   A2 04             LDX #&04
D6D3   A4 DF             LDY &DF
D6D5   20 82 D4          JSR .L68
D6D8   A6 DF             LDX &DF
D6DA   20 64 D8          JSR &D864
D6DD   A6 DE             LDX &DE
D6DF   20 0F D1          JSR &D10F
D6E2   4A                LSR A              "J"
D6E3   D0 29             BNE &D70E
D6E5   90 02             BCC &D6E9
D6E7   A2 00             LDX #&00
D6E9   A4 DF             LDY &DF
D6EB   38                SEC                "8"
D6EC   B9 00 03          LDA &0300,Y
D6EF   FD 00 03          SBC &0300,X
D6F2   85 DC             STA &DC
D6F4   B9 01 03          LDA &0301,Y
D6F7   FD 01 03          SBC &0301,X
D6FA   85 DD             STA &DD
D6FC   A9 00             LDA #&00
D6FE   0A                ASL A
D6FF   05 D1             ORA &D1
D701   A4 DC             LDY &DC
D703   D0 14             BNE &D719
D705   C6 DD             DEC &DD
D707   10 10             BPL &D719
D709   85 D1             STA &D1
D70B   20 F0 D0          JSR &D0F0
D70E   A6 DF             LDX &DF
D710   68                PLA                "h"
D711   9D 01 03          STA &0301,X
D714   68                PLA                "h"
D715   9D 00 03          STA &0300,X
D718   60                RTS                "`"
D719   C6 DC             DEC &DC
D71B   AA                TAX
D71C   10 E0             BPL &D6FE
D71E   85 D1             STA &D1
D720   20 F0 D0          JSR &D0F0
D723   A6 DC             LDX &DC
D725   E8                INX
D726   D0 02             BNE &D72A
D728   E6 DD             INC &DD
D72A   8A                TXA
D72B   48                PHA                "H"
D72C   46 DD             LSR &DD
D72E   6A                ROR A              "j"
D72F   AC 61 03          LDY &0361
D732   C0 03             CPY #&03
D734   F0 05             BEQ &D73B
D736   90 06             BCC &D73E
D738   46 DD             LSR &DD
D73A   6A                ROR A              "j"
D73B   46 DD             LSR &DD
D73D   4A                LSR A              "J"
D73E   AC 1A 03          LDY &031A
D741   AA                TAX
D742   F0 0F             BEQ &D753
D744   98                TYA
D745   38                SEC                "8"
D746   E9 08             SBC #&08
D748   A8                TAY
D749   B0 02             BCS &D74D
D74B   C6 D7             DEC &D7
D74D   20 04 D1          JSR &D104
D750   CA                DEX
D751   D0 F1             BNE &D744
D753   68                PLA                "h"
D754   2D 61 03          AND &0361
D757   F0 B5             BEQ &D70E
D759   AA                TAX
D75A   A9 00             LDA #&00
D75C   0A                ASL A
D75D   0D 63 03          ORA &0363
D760   CA                DEX
D761   D0 F9             BNE &D75C
D763   85 D1             STA &D1
D765   98                TYA
D766   38                SEC                "8"
D767   E9 08             SBC #&08
D769   A8                TAY
D76A   B0 02             BCS &D76E
D76C   C6 D7             DEC &D7
D76E   20 F3 D0          JSR &D0F3
D771   4C 0E D7          JMP &D70E
D774   FE 08 03          INC &0308,X
D777   D0 03             BNE &D77C
D779   FE 09 03          INC &0309,X
D77C   38                SEC                "8"
D77D   BD 00 03          LDA &0300,X
D780   FD 02 03          SBC &0302,X
D783   9D 00 03          STA &0300,X
D786   BD 01 03          LDA &0301,X
D789   FD 03 03          SBC &0303,X
D78C   9D 01 03          STA &0301,X
D78F   10 30             BPL &D7C1
D791   BD 0A 03          LDA &030A,X
D794   30 0B             BMI &D7A1
D796   FE 06 03          INC &0306,X
D799   D0 11             BNE &D7AC
D79B   FE 07 03          INC &0307,X
D79E   4C AC D7          JMP &D7AC
D7A1   BD 06 03          LDA &0306,X
D7A4   D0 03             BNE &D7A9
D7A6   DE 07 03          DEC &0307,X
D7A9   DE 06 03          DEC &0306,X
D7AC   18                CLC
D7AD   BD 00 03          LDA &0300,X
D7B0   7D 04 03          ADC &0304,X
D7B3   9D 00 03          STA &0300,X
D7B6   BD 01 03          LDA &0301,X
D7B9   7D 05 03          ADC &0305,X
D7BC   9D 01 03          STA &0301,X
D7BF   30 D0             BMI &D791
D7C1   60                RTS                "`"
D7C2   AC 60 03          LDY &0360
D7C5   D0 15             BNE &D7DC
D7C7   B1 D8             LDA (&D8),Y
D7C9   A0 02             LDY #&02
D7CB   D9 B7 C4          CMP &C4B7,Y
D7CE   D0 04             BNE &D7D4
D7D0   B9 B6 C4          LDA &C4B6,Y
D7D3   88                DEY
D7D4   88                DEY
D7D5   10 F4             BPL &D7CB
D7D7   AC 55 03          LDY &0355
D7DA   AA                TAX
D7DB   60                RTS                "`"
D7DC   20 08 D8          JSR &D808
D7DF   A2 20             LDX #&20
D7E1   8A                TXA
D7E2   48                PHA                "H"
D7E3   20 3E D0          JSR &D03E
D7E6   68                PLA                "h"
D7E7   AA                TAX
D7E8   A0 07             LDY #&07
D7EA   B9 28 03          LDA &0328,Y
D7ED   D1 DE             CMP (&DE),Y
D7EF   D0 08             BNE &D7F9
D7F1   88                DEY
D7F2   10 F6             BPL &D7EA
D7F4   8A                TXA
D7F5   E0 7F             CPX #&7F
D7F7   D0 DE             BNE &D7D7
D7F9   E8                INX
D7FA   A5 DE             LDA &DE
D7FC   18                CLC
D7FD   69 08             ADC #&08
D7FF   85 DE             STA &DE
D801   D0 E5             BNE &D7E8
D803   8A                TXA
D804   D0 DB             BNE &D7E1
D806   F0 CF             BEQ &D7D7
D808   A0 07             LDY #&07
D80A   84 DA             STY &DA
D80C   A9 01             LDA #&01
D80E   85 DB             STA &DB
D810   AD 62 03          LDA &0362
D813   85 DC             STA &DC
D815   B1 D8             LDA (&D8),Y
D817   4D 58 03          EOR &0358
D81A   18                CLC
D81B   24 DC             BIT &DC
D81D   F0 01             BEQ &D820
D81F   38                SEC                "8"
D820   26 DB             ROL &DB
D822   B0 0A             BCS &D82E
D824   46 DC             LSR &DC
D826   90 F3             BCC &D81B
D828   98                TYA
D829   69 07             ADC #&07
D82B   A8                TAY
D82C   90 E2             BCC &D810
D82E   A4 DA             LDY &DA
D830   A5 DB             LDA &DB
D832   99 28 03          STA &0328,Y
D835   88                DEY
D836   10 D2             BPL &D80A
D838   60                RTS                "`"
D839   48                PHA                "H"
D83A   AA                TAX
D83B   20 49 D1          JSR .L55
D83E   68                PLA                "h"
D83F   AA                TAX
D840   20 5F D8          JSR &D85F
D843   D0 15             BNE &D85A
D845   B1 D6             LDA (&D6),Y
D847   0A                ASL A
D848   26 DA             ROL &DA
D84A   06 D1             ASL &D1
D84C   08                PHP
D84D   B0 02             BCS &D851
D84F   46 DA             LSR &DA
D851   28                PLP                "("
D852   D0 F3             BNE &D847
D854   A5 DA             LDA &DA
D856   2D 60 03          AND &0360
D859   60                RTS                "`"
D85A   A9 FF             LDA #&FF
D85C   60                RTS                "`"
D85D   A2 20             LDX #&20
D85F   20 0F D1          JSR &D10F
D862   D0 F8             BNE &D85C
D864   BD 02 03          LDA &0302,X
D867   49 FF             EOR #&FF
D869   A8                TAY
D86A   29 07             AND #&07
D86C   8D 1A 03          STA &031A
D86F   98                TYA
D870   4A                LSR A              "J"
D871   4A                LSR A              "J"
D872   4A                LSR A              "J"
D873   0A                ASL A
D874   A8                TAY
D875   B1 E0             LDA (&E0),Y
D877   85 DA             STA &DA
D879   C8                INY
D87A   B1 E0             LDA (&E0),Y
D87C   AC 56 03          LDY &0356
D87F   F0 03             BEQ &D884
D881   46 DA             LSR &DA
D883   6A                ROR A              "j"
D884   6D 50 03          ADC &0350
D887   85 D6             STA &D6
D889   A5 DA             LDA &DA
D88B   6D 51 03          ADC &0351
D88E   85 D7             STA &D7
D890   BD 01 03          LDA &0301,X
D893   85 DA             STA &DA
D895   BD 00 03          LDA &0300,X
D898   48                PHA                "H"
D899   2D 61 03          AND &0361
D89C   6D 61 03          ADC &0361
D89F   A8                TAY
D8A0   B9 06 C4          LDA &C406,Y
D8A3   85 D1             STA &D1
D8A5   68                PLA                "h"
D8A6   AC 61 03          LDY &0361
D8A9   C0 03             CPY #&03
D8AB   F0 05             BEQ &D8B2
D8AD   B0 06             BCS &D8B5
D8AF   0A                ASL A
D8B0   26 DA             ROL &DA
D8B2   0A                ASL A
D8B3   26 DA             ROL &DA
D8B5   29 F8             AND #&F8
D8B7   18                CLC
D8B8   65 D6             ADC &D6
D8BA   85 D6             STA &D6
D8BC   A5 DA             LDA &DA
D8BE   65 D7             ADC &D7
D8C0   10 04             BPL &D8C6
D8C2   38                SEC                "8"
D8C3   ED 54 03          SBC &0354
D8C6   85 D7             STA &D7
D8C8   AC 1A 03          LDY &031A
D8CB   A9 00             LDA #&00
D8CD   60                RTS                "`"
D8CE   48                PHA                "H"
D8CF   A9 A0             LDA #&A0
D8D1   AE 6A 02          LDX &026A
D8D4   D0 40             BNE &D916
D8D6   24 D0             BIT &D0
D8D8   D0 3C             BNE &D916
D8DA   70 19             BVS &D8F5
D8DC   AD 5F 03          LDA &035F
D8DF   29 9F             AND #&9F
D8E1   09 40             ORA #&40
D8E3   20 54 C9          JSR &C954
D8E6   A2 18             LDX #&18
D8E8   A0 64             LDY #&64
D8EA   20 82 D4          JSR .L68
D8ED   20 7A CD          JSR &CD7A
D8F0   A9 02             LDA #&02
D8F2   20 9D C5          JSR &C59D
D8F5   A9 BF             LDA #&BF
D8F7   20 A8 C5          JSR .L02
D8FA   68                PLA                "h"
D8FB   29 7F             AND #&7F
D8FD   20 C0 C4          JSR &C4C0
D900   A9 40             LDA #&40
D902   4C 9D C5          JMP &C59D
D905   A9 20             LDA #&20
D907   24 D0             BIT &D0
D909   50 C0             BVC &D8CB
D90B   D0 BE             BNE &D8CB
D90D   20 C2 D7          JSR &D7C2
D910   F0 05             BEQ &D917
D912   48                PHA                "H"
D913   20 64 C6          JSR &C664
D916   68                PLA                "h"
D917   60                RTS                "`"
D918   A9 BD             LDA #&BD
D91A   20 A8 C5          JSR .L02
D91D   20 51 C9          JSR &C951
D920   A9 0D             LDA #&0D
D922   60                RTS                "`"
D923   AE 55 03          LDX &0355
D926   8A                TXA
D927   29 07             AND #&07
D929   A8                TAY
D92A   BE 40 C4          LDX &C440,Y
D92D   BD 5E C4          LDA &C45E,X
D930   A2 00             LDX #&00
D932   2C 8E 02          BIT &028E
D935   30 07             BMI &D93E
D937   29 3F             AND #&3F           ")?"
D939   C0 04             CPY #&04
D93B   B0 01             BCS &D93E
D93D   8A                TXA
D93E   A8                TAY
D93F   60                RTS                "`"
D940   10 E3             BPL &D925
D942   54                                   "T"
D943   DC
D944   93
D945   DC
D946   89
D947   DE 89 DF          DEC &DF89,X
D94A   72                                   "r"
D94B   E7
D94C   EB
D94D   E7
D94E   A4 E0             LDY &E0
D950   C5 DE             CMP &DE
D952   7D F2 8E          ADC &8EF2,X
D955   F1 C9             SBC (&C9),Y
D957   F4
D958   29 F5             AND #&F5
D95A   A6 FF             LDX &FF
D95C   CA                DEX
D95D   F3
D95E   B1 F1             LDA (&F1),Y
D960   A6 FF             LDX &FF
D962   A6 FF             LDX &FF
D964   A6 FF             LDX &FF
D966   A6 FF             LDX &FF
D968   02
D969   EF
D96A   B3
D96B   E4 64             CPX &64
D96D   E4 D1             CPX &D1
D96F   E1 A6             SBC (&A6,X)
D971   FF
D972   A6 FF             LDX &FF
D974   A6 FF             LDX &FF
D976   90 01             BCC &D979
D978   9F
D979   0D A1 02          ORA &02A1
D97C   2B                                   "+"
D97D   F0 00             BEQ &D97F
D97F   03
D980   00                BRK
D981   00                BRK
D982   FF
D983   00                BRK
D984   00                BRK
D985   01 00             ORA (&00,X)
D987   00                BRK
D988   00                BRK
D989   00                BRK
D98A   00                BRK
D98B   FF
D98C   04
D98D   04
D98E   00                BRK
D98F   FF
D990   56 19             LSR &19,X
D992   19 19 32          ORA &3219,Y
D995   08                PHP
D996   00                BRK
D997   00                BRK
D998   00                BRK
D999   00                BRK
D99A   20 09 00          JSR &0009
D99D   00                BRK
D99E   00                BRK
D99F   00                BRK
D9A0   00                BRK
D9A1   50 00             BVC &D9A3
D9A3   03
D9A4   90 64             BCC &DA0A
D9A6   06 81             ASL &81
D9A8   00                BRK
D9A9   00                BRK
D9AA   00                BRK
D9AB   09 1B             ORA #&1B
D9AD   01 D0             ORA (&D0,X)
D9AF   E0 F0             CPX #&F0
D9B1   01 80             ORA (&80,X)
D9B3   90 00             BCC &D9B5
D9B5   00                BRK
D9B6   00                BRK
D9B7   FF
D9B8   FF
D9B9   FF
D9BA   00                BRK
D9BB   00                BRK
D9BC   00                BRK
D9BD   00                BRK
D9BE   00                BRK
D9BF   00                BRK
D9C0   00                BRK
D9C1   00                BRK
D9C2   64                                   "d"
D9C3   05 FF             ORA &FF
D9C5   01 0A             ORA (&0A,X)
D9C7   00                BRK
D9C8   00                BRK
D9C9   00                BRK
D9CA   00                BRK
D9CB   00                BRK
D9CC   FF
D9CD   A9 40      .      LDA #&40
D9CF   8D 00 0D   .      STA &0D00
D9D2   78         .      SEI
D9D3   D8         .      CLD
D9D4   A2 FF      .      LDX #&FF
D9D6   9A         .      TXS
D9D7   AD 4E FE   .      LDA &FE4E
D9DA   0A         .      ASL A
D9DB   48         .      PHA
D9DC   F0 09      .      BEQ .L74
D9DE   AD 58 02   .      LDA &0258
D9E1   4A         .      LSR A
D9E2   C9 01      .      CMP #&01
D9E4   D0 1D      .      BNE .L77
D9E6   4A         .      LSR A
D9E7   A2 04      .L74   LDX #&04
D9E9   86 01      .      STX &01
D9EB   85 00      .      STA &00
D9ED   A8         .      TAY
D9EE   91 00      .L75   STA (&00),Y
D9F0   C5 01      .      CMP &01
D9F2   F0 09      .      BEQ .L76
D9F4   C8         .      INY
D9F5   D0 F7      .      BNE .L75
D9F7   C8         .      INY
D9F8   E8         .      INX
D9F9   E6 01      .      INC &01
D9FB   10 F1      .      BPL .L75
D9FD   8E 8E 02   .L76   STX &028E
DA00   8E 84 02   .      STX &0284
DA03   A2 0F      .L77   LDX #&0F
DA05   8E 42 FE   .      STX &FE42
DA08   CA         .L78   DEX
DA09   8E 40 FE   .      STX &FE40
DA0C   E0 09      .      CPX #&09
DA0E   B0 F8      .      BCS .L78
DA10   E8         .      INX
DA11   8A         .L79   TXA
DA12   20 2A F0   .      JSR .L177
DA15   E0 80      .      CPX #&80
DA17   66 FC      .      ROR &FC
DA19   AA         .      TAX
DA1A   CA         .      DEX
DA1B   D0 F4      .      BNE .L79
DA1D   8E 8D 02   .      STX &028D
DA20   26 FC      .      ROL &FC
DA22   20 EB EE   .      JSR .L176
DA25   6A         .      ROR A
DA26   A2 9C      .      LDX #&9C
DA28   A0 8D      .      LDY #&8D
DA2A   68         .      PLA
DA2B   F0 09      .      BEQ .L80
DA2D   A0 7E      .      LDY #&7E
DA2F   90 11      .      BCC .L81
DA31   A0 87      .      LDY #&87
DA33   EE 8D 02   .      INC &028D
DA36   EE 8D 02   .L80   INC &028D
DA39   A5 FC      .      LDA &FC
DA3B   49 FF      .      EOR #&FF
DA3D   8D 8F 02   .      STA &028F
DA40   A2 90      .      LDX #&90
DA42   A9 00      .L81   LDA #&00
DA44   E0 CE      .L82   CPX #&CE
DA46   90 02      .      BCC .L83
DA48   A9 FF      .      LDA #&FF
DA4A   9D 00 02   .L83   STA &0200,X
DA4D   E8         .      INX
DA4E   D0 F4      .      BNE .L82
DA50   8D 63 FE   .      STA &FE63
DA53   8A         .      TXA
DA54   A2 E2      .      LDX #&E2
DA56   95 00      .L84   STA &00,X
DA58   E8         .      INX
DA59   D0 FB      .      BNE .L84
DA5B   B9 3F D9   .L85   LDA &D93F,Y
DA5E   99 FF 01   .      STA &01FF,Y
DA61   88         .      DEY
DA62   D0 F7      .      BNE .L85
DA64   A9 62      .      LDA #&62
DA66   85 ED      .      STA &ED
DA68   20 0A FB   .      JSR .L190
DA6B   A9 7F      .      LDA #&7F
DA6D   E8         .      INX
DA6E   9D 4D FE   .L86   STA &FE4D,X
DA71   9D 6D FE   .      STA &FE6D,X
DA74   CA         .      DEX
DA75   10 F7      .      BPL .L86
DA77   58         .      CLI
DA78   78         .      SEI
DA79   24 FC      .      BIT &FC
DA7B   50 03      .      BVC .L87
DA7D   20 55 F0   .      JSR &F055
DA80   A2 F2      .L87   LDX #&F2
DA82   8E 4E FE   .      STX &FE4E
DA85   A2 04      .      LDX #&04
DA87   8E 4C FE   .      STX &FE4C
DA8A   A9 60      .      LDA #&60
DA8C   8D 4B FE   .      STA &FE4B
DA8F   A9 0E      .      LDA #&0E
DA91   8D 46 FE   .      STA &FE46
DA94   8D 6C FE   .      STA &FE6C
DA97   8D C0 FE   .      STA &FEC0
DA9A   CD 6C FE   .      CMP &FE6C
DA9D   F0 03      .      BEQ .L88
DA9F   EE 77 02   .      INC &0277
DAA2   A9 27      .L88   LDA #&27
DAA4   8D 47 FE   .      STA &FE47
DAA7   8D 45 FE   .      STA &FE45
DAAA   20 60 EC   .      JSR .L151
DAAD   AD 82 02   .      LDA &0282
DAB0   29 7F      .      AND #&7F
DAB2   20 A7 E6   .      JSR .L132
DAB5   AE 84 02   .      LDX &0284
DAB8   F0 03      .      BEQ .L89
DABA   20 C8 E9   .      JSR .L135
DABD   20 16 DC   .L89   JSR .L109
DAC0   A2 03      .      LDX #&03
DAC2   AC 07 80   .      LDY &8007
DAC5   B9 00 80   .L90   LDA &8000,Y
DAC8   DD 0C DF   .      CMP &DF0C,X
DACB   D0 2E      .      BNE .L93
DACD   C8         .      INY
DACE   CA         .      DEX
DACF   10 F4      .      BPL .L90
DAD1   A6 F4      .      LDX &F4
DAD3   A4 F4      .      LDY &F4
DAD5   C8         .L91   INY
DAD6   C0 10      .      CPY #&10
DAD8   B0 25      .      BCS .L94
DADA   98         .      TYA
DADB   49 FF      .      EOR #&FF
DADD   85 FA      .      STA &FA
DADF   A9 7F      .      LDA #&7F
DAE1   85 FB      .      STA &FB
DAE3   8C 30 FE   .L92   STY &FE30
DAE6   B1 FA      .      LDA (&FA),Y
DAE8   8E 30 FE   .      STX &FE30
DAEB   D1 FA      .      CMP (&FA),Y
DAED   D0 E6      .      BNE .L91
DAEF   E6 FA      .      INC &FA
DAF1   D0 F0      .      BNE .L92
DAF3   E6 FB      .      INC &FB
DAF5   A5 FB      .      LDA &FB
DAF7   C9 84      .      CMP #&84
DAF9   90 E8      .      BCC .L92
DAFB   A6 F4      .L93   LDX &F4
DAFD   10 0D      .      BPL .L95
DAFF   AD 06 80   .L94   LDA &8006
DB02   9D A1 02   .      STA &02A1,X
DB05   29 8F      .      AND #&8F
DB07   D0 03      .      BNE .L95
DB09   8E 4B 02   .      STX &024B
DB0C   E8         .L95   INX
DB0D   E0 10      .      CPX #&10
DB0F   90 AC      .      BCC .L89
DB11   2C 40 FE   .      BIT &FE40
DB14   30 11      .      BMI .L97
DB16   CE 7B 02   .      DEC &027B
DB19   A0 FF      .L96   LDY #&FF
DB1B   20 7F EE   .      JSR .L171
DB1E   CA         .      DEX
DB1F   D0 F8      .      BNE .L96
DB21   8E 48 FE   .      STX &FE48
DB24   8E 49 FE   .      STX &FE49
DB27   AD 8F 02   .L97   LDA &028F
DB2A   20 00 C3   .      JSR .L01
DB2D   A0 CA      .      LDY #&CA
DB2F   20 F1 E4   .      JSR .L127
DB32   20 D9 EA   .      JSR &EAD9
DB35   20 40 F1   .      JSR .L182
DB38   A9 81      .      LDA #&81
DB3A   8D E0 FE   .      STA &FEE0
DB3D   AD E0 FE   .      LDA &FEE0
DB40   6A         .      ROR A
DB41   90 0A      .      BCC .L98
DB43   A2 FF      .      LDX #&FF
DB45   20 68 F1   .      JSR .L186
DB48   D0 03      .      BNE .L98
DB4A   CE 7A 02   .      DEC &027A
DB4D   A0 0E      .L98   LDY #&0E
DB4F   A2 01      .      LDX #&01
DB51   20 68 F1   .      JSR .L186
DB54   A2 02      .      LDX #&02
DB56   20 68 F1   .      JSR .L186
DB59   8C 43 02   .      STY &0243
DB5C   8C 44 02   .      STY &0244
DB5F   A2 FE      .      LDX #&FE
DB61   AC 7A 02   .      LDY &027A
DB64   20 68 F1   .      JSR .L186
DB67   2D 67 02   .      AND &0267
DB6A   10 1B      .      BPL .L101
DB6C   A0 02      .      LDY #&02
DB6E   20 A9 DE   .      JSR .L111
DB71   AD 8D 02   .      LDA &028D
DB74   F0 0C      .      BEQ .L100
DB76   A0 16      .      LDY #&16
DB78   2C 8E 02   .      BIT &028E
DB7B   30 02      .      BMI .L99
DB7D   A0 11      .      LDY #&11
DB7F   20 A9 DE   .L99   JSR .L111
DB82   A0 1B      .L100  LDY #&1B
DB84   20 A9 DE   .      JSR .L111
DB87   38         .L101  SEC
DB88   20 D9 EA   .      JSR &EAD9
DB8B   20 D9 E9   .      JSR .L137
DB8E   08         .      PHP
DB8F   68         .      PLA
DB90   4A         .      LSR A
DB91   4A         .      LSR A
DB92   4A         .      LSR A
DB93   4A         .      LSR A
DB94   4D 8F 02   .      EOR &028F
DB97   29 08      .      AND #&08
DB99   A8         .      TAY
DB9A   A2 03      .      LDX #&03
DB9C   20 68 F1   .      JSR .L186
DB9F   F0 1D      .      BEQ .L103
DBA1   98         .      TYA
DBA2   D0 14      .      BNE .L102
DBA4   A9 8D      .      LDA #&8D
DBA6   20 35 F1   .      JSR .L180
DBA9   A2 D2      .      LDX #&D2
DBAB   A0 EA      .      LDY #&EA
DBAD   CE 67 02   .      DEC &0267
DBB0   20 F7 FF   .      JSR .L201
DBB3   EE 67 02   .      INC &0267
DBB6   D0 06      .      BNE .L103
DBB8   A9 00      .L102  LDA #&00
DBBA   AA         .      TAX
DBBB   20 37 F1   .      JSR .L181
DBBE   AD 8D 02   .L103  LDA &028D
DBC1   D0 05      .      BNE .L104
DBC3   AE 8C 02   .      LDX &028C
DBC6   10 1E      .      BPL .L106
DBC8   A2 0F      .L104  LDX #&0F
DBCA   BD A1 02   .L105  LDA &02A1,X
DBCD   2A         .      ROL A
DBCE   30 16      .      BMI .L106
DBD0   CA         .      DEX
DBD1   10 F7      .      BPL .L105
DBD3   A9 00      .      LDA #&00
DBD5   2C 7A 02   .      BIT &027A
DBD8   30 2E      .      BMI .L108
DBDA   00         .      BRK
DBDB   F9 4C 61          SBC &614C,Y
DBDE   6E 67 75          ROR &7567          "ngu"
DBE1   61 67             ADC (&67,X)        "ag"
DBE3   65 3F             ADC &3F            "e?"
DBE5   00                BRK
DBE6   18         .L106  CLC
DBE7   08         .L107  PHP
DBE8   8E 8C 02   .      STX &028C
DBEB   20 16 DC   .      JSR .L109
DBEE   A9 80      .      LDA #&80
DBF0   A0 08      .      LDY #&08
DBF2   20 AB DE   .      JSR .L112
DBF5   84 FD      .      STY &FD
DBF7   20 E7 FF   .      JSR .L199
DBFA   20 E7 FF   .      JSR .L199
DBFD   28         .      PLP
DBFE   A9 01      .      LDA #&01
DC00   2C 7A 02   .      BIT &027A
DC03   30 03      .      BMI .L108
DC05   4C 00 80   .      JMP &8000
DC08   4C 00 04   .L108  JMP &0400
DC0B   A6 F4             LDX &F4
DC0D   84 F4             STY &F4
DC0F   8C 30 FE          STY &FE30
DC12   A0 00             LDY #&00
DC14   B1 F6             LDA (&F6),Y
DC16   86 F4      .L109  STX &F4
DC18   8E 30 FE   .      STX &FE30
DC1B   60         .      RTS
DC1C   85 FC      .      STA &FC
DC1E   68         .      PLA
DC1F   48         .      PHA
DC20   29 10      .      AND #&10
DC22   D0 03      .      BNE .L110
DC24   6C 04 02   .      JMP (&0204)
DC27   8A         .L110  TXA
DC28   48         .      PHA
DC29   BA         .      TSX
DC2A   BD 03 01   .      LDA &0103,X
DC2D   D8         .      CLD
DC2E   38         .      SEC
DC2F   E9 01      .      SBC #&01
DC31   85 FD      .      STA &FD
DC33   BD 04 01   .      LDA &0104,X
DC36   E9 00      .      SBC #&00
DC38   85 FE      .      STA &FE
DC3A   A5 F4      .      LDA &F4
DC3C   8D 4A 02   .      STA &024A
DC3F   86 F0      .      STX &F0
DC41   A2 06      .      LDX #&06
DC43   20 68 F1   .      JSR .L186
DC46   AE 8C 02   .      LDX &028C
DC49   20 16 DC   .      JSR .L109
DC4C   68         .      PLA
DC4D   AA         .      TAX
DC4E   A5 FC      .      LDA &FC
DC50   58         .      CLI
DC51   6C 02 02   .      JMP (&0202)
DC54   A0 00             LDY #&00
DC56   20 B1 DE          JSR .L113
DC59   AD 67 02          LDA &0267
DC5C   6A                ROR A              "j"
DC5D   B0 FE             BCS &DC5D
DC5F   20 E7 FF          JSR .L199
DC62   20 E7 FF          JSR .L199
DC65   4C B8 DB          JMP .L102
DC68   38                SEC                "8"
DC69   6E 4F 02          ROR &024F
DC6C   2C 50 02          BIT &0250
DC6F   10 07             BPL &DC78
DC71   20 41 E7          JSR &E741
DC74   A2 00             LDX #&00
DC76   B0 02             BCS &DC7A
DC78   A2 40             LDX #&40
DC7A   4C 7A E1          JMP &E17A
DC7D   AC 09 FE          LDY &FE09
DC80   29 3A             AND #&3A           "):"
DC82   D0 34             BNE &DCB8
DC84   AE 5C 02          LDX &025C
DC87   D0 09             BNE &DC92
DC89   E8                INX
DC8A   20 F3 E4          JSR .L128
DC8D   20 41 E7          JSR &E741
DC90   90 E6             BCC &DC78
DC92   60                RTS                "`"
DC93   D8                CLD
DC94   A5 FC             LDA &FC
DC96   48                PHA                "H"
DC97   8A                TXA
DC98   48                PHA                "H"
DC99   98                TYA
DC9A   48                PHA                "H"
DC9B   A9 DE             LDA #&DE
DC9D   48                PHA                "H"
DC9E   A9 81             LDA #&81
DCA0   48                PHA                "H"
DCA1   B8                CLV
DCA2   AD 08 FE          LDA &FE08
DCA5   70 02             BVS &DCA9
DCA7   10 5D             BPL &DD06
DCA9   A6 EA             LDX &EA
DCAB   CA                DEX
DCAC   30 30             BMI &DCDE          "00"
DCAE   70 2D             BVS &DCDD          "p-"
DCB0   4C 88 F5          JMP &F588
DCB3   AC 09 FE          LDY &FE09
DCB6   2A                ROL A              "*"
DCB7   0A                ASL A
DCB8   AA                TAX
DCB9   98                TYA
DCBA   A0 07             LDY #&07
DCBC   4C 94 E4          JMP .L120
DCBF   A2 02             LDX #&02
DCC1   20 60 E4          JSR .L118
DCC4   90 10             BCC &DCD6
DCC6   AD 85 02          LDA &0285
DCC9   C9 02             CMP #&02
DCCB   D0 9B             BNE &DC68
DCCD   E8                INX
DCCE   20 60 E4          JSR .L118
DCD1   6E D2 02          ROR &02D2
DCD4   30 92             BMI &DC68
DCD6   8D 09 FE          STA &FE09
DCD9   A9 E7             LDA #&E7
DCDB   85 EA             STA &EA
DCDD   60                RTS                "`"
DCDE   2D 78 02          AND &0278
DCE1   4A                LSR A              "J"
DCE2   90 07             BCC &DCEB
DCE4   70 05             BVS &DCEB
DCE6   AC 50 02          LDY &0250
DCE9   30 92             BMI &DC7D
DCEB   4A                LSR A              "J"
DCEC   6A                ROR A              "j"
DCED   B0 C4             BCS &DCB3
DCEF   30 CE             BMI &DCBF
DCF1   70 EA             BVS &DCDD
DCF3   A2 05             LDX #&05
DCF5   20 68 F1          JSR .L186
DCF8   F0 E3             BEQ &DCDD
DCFA   68                PLA                "h"
DCFB   68                PLA                "h"
DCFC   68                PLA                "h"
DCFD   A8                TAY
DCFE   68                PLA                "h"
DCFF   AA                TAX
DD00   68                PLA                "h"
DD01   85 FC             STA &FC
DD03   6C 06 02          JMP (&0206)
DD06   AD 4D FE          LDA &FE4D
DD09   10 3C             BPL &DD47
DD0B   2D 79 02          AND &0279
DD0E   2D 4E FE          AND &FE4E
DD11   6A                ROR A              "j"
DD12   6A                ROR A              "j"
DD13   90 54             BCC &DD69
DD15   CE 40 02          DEC &0240
DD18   A5 EA             LDA &EA
DD1A   10 02             BPL &DD1E
DD1C   E6 EA             INC &EA
DD1E   AD 51 02          LDA &0251
DD21   F0 1A             BEQ &DD3D
DD23   CE 51 02          DEC &0251
DD26   D0 15             BNE &DD3D
DD28   AE 52 02          LDX &0252
DD2B   AD 48 02          LDA &0248
DD2E   4A                LSR A              "J"
DD2F   90 03             BCC &DD34
DD31   AE 53 02          LDX &0253
DD34   2A                ROL A              "*"
DD35   49 01             EOR #&01
DD37   20 00 EA          JSR .L142
DD3A   8E 51 02          STX &0251
DD3D   A0 04             LDY #&04
DD3F   20 94 E4          JSR .L120
DD42   A9 02             LDA #&02
DD44   4C 6E DE          JMP &DE6E
DD47   AD 6D FE          LDA &FE6D
DD4A   10 A7             BPL &DCF3
DD4C   2D 77 02          AND &0277
DD4F   2D 6E FE          AND &FE6E
DD52   6A                ROR A              "j"
DD53   6A                ROR A              "j"
DD54   90 9D             BCC &DCF3
DD56   AC 85 02          LDY &0285
DD59   88                DEY
DD5A   D0 97             BNE &DCF3
DD5C   A9 02             LDA #&02
DD5E   8D 6D FE          STA &FE6D
DD61   8D 6E FE          STA &FE6E
DD64   A2 03             LDX #&03
DD66   4C 3A E1          JMP &E13A
DD69   2A                ROL A              "*"
DD6A   2A                ROL A              "*"
DD6B   2A                ROL A              "*"
DD6C   2A                ROL A              "*"
DD6D   10 5B             BPL &DDCA
DD6F   A9 20             LDA #&20
DD71   A2 00             LDX #&00
DD73   8D 4D FE          STA &FE4D
DD76   8E 49 FE          STX &FE49
DD79   A2 08             LDX #&08
DD7B   86 FB             STX &FB
DD7D   20 5B E4          JSR .L117
DD80   6E D7 02          ROR &02D7
DD83   30 44             BMI &DDC9          "0D"
DD85   A8                TAY
DD86   F0 05             BEQ &DD8D
DD88   20 6D EE          JSR &EE6D
DD8B   30 3C             BMI &DDC9          "0<"
DD8D   20 60 E4          JSR .L118
DD90   85 F5             STA &F5
DD92   20 60 E4          JSR .L118
DD95   85 F7             STA &F7
DD97   20 60 E4          JSR .L118
DD9A   85 F6             STA &F6
DD9C   A4 F5             LDY &F5
DD9E   F0 1B             BEQ &DDBB
DDA0   10 16             BPL &DDB8
DDA2   24 F5             BIT &F5
DDA4   70 05             BVS &DDAB
DDA6   20 BB EE          JSR &EEBB
DDA9   50 07             BVC &DDB2
DDAB   06 F6             ASL &F6
DDAD   26 F7             ROL &F7
DDAF   20 3B EE          JSR &EE3B
DDB2   AC 61 02          LDY &0261
DDB5   4C 7F EE          JMP .L171
DDB8   20 7F EE          JSR .L171
DDBB   A4 F6             LDY &F6
DDBD   20 7F EE          JSR .L171
DDC0   A4 F7             LDY &F7
DDC2   20 7F EE          JSR .L171
DDC5   46 FB             LSR &FB
DDC7   D0 B4             BNE &DD7D
DDC9   60                RTS                "`"
DDCA   90 7B             BCC &DE47
DDCC   A9 40             LDA #&40
DDCE   8D 4D FE          STA &FE4D
DDD1   AD 83 02          LDA &0283
DDD4   AA                TAX
DDD5   49 0F             EOR #&0F
DDD7   48                PHA                "H"
DDD8   A8                TAY
DDD9   BD 91 02          LDA &0291,X
DDDC   69 00             ADC #&00
DDDE   99 91 02          STA &0291,Y
DDE1   CA                DEX
DDE2   F0 03             BEQ &DDE7
DDE4   88                DEY
DDE5   D0 F2             BNE &DDD9
DDE7   68                PLA                "h"
DDE8   8D 83 02          STA &0283
DDEB   A2 05             LDX #&05
DDED   FE 9B 02          INC &029B,X
DDF0   D0 08             BNE &DDFA
DDF2   CA                DEX
DDF3   D0 F8             BNE &DDED
DDF5   A0 05             LDY #&05
DDF7   20 94 E4          JSR .L120
DDFA   AD B1 02          LDA &02B1
DDFD   D0 08             BNE &DE07
DDFF   AD B2 02          LDA &02B2
DE02   F0 06             BEQ &DE0A
DE04   CE B2 02          DEC &02B2
DE07   CE B1 02          DEC &02B1
DE0A   2C CE 02          BIT &02CE
DE0D   10 0B             BPL &DE1A
DE0F   EE CE 02          INC &02CE
DE12   58                CLI                "X"
DE13   20 47 EB          JSR &EB47
DE16   78                SEI                "x"
DE17   CE CE 02          DEC &02CE
DE1A   2C D7 02          BIT &02D7
DE1D   30 0C             BMI &DE2B
DE1F   20 6D EE          JSR &EE6D
DE22   49 A0             EOR #&A0
DE24   C9 60             CMP #&60
DE26   90 03             BCC &DE2B
DE28   20 79 DD          JSR &DD79
DE2B   2C B7 D9          BIT &D9B7
DE2E   20 A2 DC          JSR &DCA2
DE31   A5 EC             LDA &EC
DE33   05 ED             ORA &ED
DE35   2D 42 02          AND &0242
DE38   F0 04             BEQ &DE3E
DE3A   38                SEC                "8"
DE3B   20 65 F0          JSR &F065
DE3E   20 9B E1          JSR &E19B
DE41   2C C0 FE          BIT &FEC0
DE44   70 04             BVS &DE4A
DE46   60                RTS                "`"
DE47   2A                ROL A              "*"
DE48   10 28             BPL &DE72
DE4A   AE 4C 02          LDX &024C
DE4D   F0 1D             BEQ &DE6C
DE4F   AD C2 FE          LDA &FEC2
DE52   9D B5 02          STA &02B5,X
DE55   AD C1 FE          LDA &FEC1
DE58   9D B9 02          STA &02B9,X
DE5B   8E BE 02          STX &02BE
DE5E   A0 03             LDY #&03
DE60   20 94 E4          JSR .L120
DE63   CA                DEX
DE64   D0 03             BNE &DE69
DE66   AE 4D 02          LDX &024D
DE69   20 8F DE          JSR &DE8F
DE6C   A9 10             LDA #&10
DE6E   8D 4D FE          STA &FE4D
DE71   60                RTS                "`"
DE72   2A                ROL A              "*"
DE73   2A                ROL A              "*"
DE74   2A                ROL A              "*"
DE75   2A                ROL A              "*"
DE76   10 07             BPL &DE7F
DE78   20 65 F0          JSR &F065
DE7B   A9 01             LDA #&01
DE7D   D0 EF             BNE &DE6E
DE7F   4C F3 DC          JMP &DCF3
DE82   68                PLA                "h"
DE83   A8                TAY
DE84   68                PLA                "h"
DE85   AA                TAX
DE86   68                PLA                "h"
DE87   85 FC             STA &FC
DE89   A5 FC             LDA &FC
DE8B   40                RTI                "@"
DE8C   8C BE 02          STY &02BE
DE8F   E0 05             CPX #&05
DE91   90 02             BCC &DE95
DE93   A2 04             LDX #&04
DE95   8E 4C 02          STX &024C
DE98   AC 4E 02          LDY &024E
DE9B   88                DEY
DE9C   98                TYA
DE9D   29 08             AND #&08
DE9F   18                CLC
DEA0   6D 4C 02          ADC &024C
DEA3   E9 00             SBC #&00
DEA5   8D C0 FE          STA &FEC0
DEA8   60                RTS                "`"
DEA9   A9 C3      .L111  LDA #&C3
DEAB   85 FE      .L112  STA &FE
DEAD   A9 00      .      LDA #&00
DEAF   85 FD      .      STA &FD
DEB1   C8         .L113  INY
DEB2   B1 FD      .      LDA (&FD),Y
DEB4   20 E3 FF   .      JSR .L198
DEB7   AA         .      TAX
DEB8   D0 F7      .      BNE .L113
DEBA   60         .      RTS
DEBB   8E B1 02          STX &02B1
DEBE   8C B2 02          STY &02B2
DEC1   A9 FF             LDA #&FF
DEC3   D0 02             BNE &DEC7
DEC5   A9 00             LDA #&00
DEC7   85 E6             STA &E6
DEC9   8A                TXA
DECA   48                PHA                "H"
DECB   98                TYA
DECC   48                PHA                "H"
DECD   AC 56 02          LDY &0256
DED0   F0 14             BEQ &DEE6
DED2   38                SEC                "8"
DED3   66 EB             ROR &EB
DED5   20 D7 FF          JSR &FFD7
DED8   08                PHP
DED9   46 EB             LSR &EB
DEDB   28                PLP                "("
DEDC   90 25             BCC &DF03
DEDE   A9 00             LDA #&00
DEE0   8D 56 02          STA &0256
DEE3   20 CE FF          JSR &FFCE
DEE6   24 FF             BIT &FF
DEE8   30 16             BMI &DF00
DEEA   AE 41 02          LDX &0241
DEED   20 77 E5          JSR &E577
DEF0   90 11             BCC &DF03
DEF2   24 E6             BIT &E6
DEF4   50 F0             BVC &DEE6
DEF6   AD B1 02          LDA &02B1
DEF9   0D B2 02          ORA &02B2
DEFC   D0 E8             BNE &DEE6
DEFE   B0 05             BCS &DF05
DF00   38                SEC                "8"
DF01   A9 1B             LDA #&1B
DF03   85 E6             STA &E6
DF05   68                PLA                "h"
DF06   A8                TAY
DF07   68                PLA                "h"
DF08   AA                TAX
DF09   A5 E6             LDA &E6
DF0B   60                RTS                "`"
DF0C   29 43             AND #&43           ")C"
DF0E   28                PLP                "("
DF0F   00                BRK
DF10   2E E0 31          ROL &31E0
DF13   05 46             ORA &46
DF15   58                CLI                "X"
DF16   E3
DF17   42                                   "B"
DF18   FF
DF19   42                                   "B"
DF1A   41 53             EOR (&53,X)        "AS"
DF1C   49 43             EOR #&43           "IC"
DF1E   E0 18             CPX #&18
DF20   00                BRK
DF21   43                                   "C"
DF22   41 54             EOR (&54,X)        "AT"
DF24   E0 31             CPX #&31
DF26   05 43             ORA &43
DF28   4F                                   "O"
DF29   44                                   "D"
DF2A   45 E3             EOR &E3
DF2C   48                PHA                "H"
DF2D   88                DEY
DF2E   45 58             EOR &58            "EX"
DF30   45 43             EOR &43            "EC"
DF32   F6 8D             INC &8D,X
DF34   00                BRK
DF35   48                PHA                "H"
DF36   45 4C             EOR &4C            "EL"
DF38   50 F0             BVC &DF2A
DF3A   B9 FF 4B          LDA &4BFF,Y
DF3D   45 59             EOR &59            "EY"
DF3F   E3
DF40   27                                   "'"
DF41   FF
DF42   4C 4F 41          JMP &414F          "LOA"
DF45   44                                   "D"
DF46   E2
DF47   3C                                   "<"
DF48   00                BRK
DF49   4C 49 4E          JMP &4E49          "LIN"
DF4C   45 E6             EOR &E6
DF4E   59 01 4D          EOR &4D01,Y
DF51   4F                                   "O"
DF52   54                                   "T"
DF53   4F                                   "O"
DF54   52                                   "R"
DF55   E3
DF56   48                PHA                "H"
DF57   89
DF58   4F                                   "O"
DF59   50 54             BVC &DFAF          "PT"
DF5B   E3
DF5C   48                PHA                "H"
DF5D   8B
DF5E   52                                   "R"
DF5F   55 4E             EOR &4E,X          "UN"
DF61   E0 31             CPX #&31
DF63   04
DF64   52                                   "R"
DF65   4F                                   "O"
DF66   4D E3 48          EOR &48E3
DF69   8D 53 41          STA &4153
DF6C   56 45             LSR &45,X          "VE"
DF6E   E2
DF6F   3E 00 53          ROL &5300,X
DF72   50 4F             BVC &DFC3          "PO"
DF74   4F                                   "O"
DF75   4C E2 81          JMP &81E2
DF78   00                BRK
DF79   54                                   "T"
DF7A   41 50             EOR (&50,X)        "AP"
DF7C   45 E3             EOR &E3
DF7E   48                PHA                "H"
DF7F   8C 54 56          STY &5654
DF82   E3
DF83   48                PHA                "H"
DF84   90 E0             BCC &DF66
DF86   31 03             AND (&03),Y
DF88   00                BRK
DF89   86 F2             STX &F2
DF8B   84 F3             STY &F3
DF8D   A9 08             LDA #&08
DF8F   20 31 E0          JSR .L114
DF92   A0 00             LDY #&00
DF94   B1 F2             LDA (&F2),Y
DF96   C9 0D             CMP #&0D
DF98   F0 04             BEQ &DF9E
DF9A   C8                INY
DF9B   D0 F7             BNE &DF94
DF9D   60                RTS                "`"
DF9E   A0 FF             LDY #&FF
DFA0   20 39 E0          JSR &E039
DFA3   F0 72             BEQ &E017
DFA5   C9 2A             CMP #&2A
DFA7   F0 F7             BEQ &DFA0
DFA9   20 3A E0          JSR &E03A
DFAC   F0 69             BEQ &E017
DFAE   C9 7C             CMP #&7C
DFB0   F0 65             BEQ &E017
DFB2   C9 2F             CMP #&2F
DFB4   D0 08             BNE &DFBE
DFB6   C8                INY
DFB7   20 09 E0          JSR &E009
DFBA   A9 02             LDA #&02
DFBC   D0 73             BNE .L114
DFBE   84 E6             STY &E6
DFC0   A2 00             LDX #&00
DFC2   F0 13             BEQ &DFD7
DFC4   5D 10 DF          EOR &DF10,X
DFC7   29 DF             AND #&DF
DFC9   D0 17             BNE &DFE2
DFCB   C8                INY
DFCC   18                CLC
DFCD   B0 25             BCS &DFF4
DFCF   E8                INX
DFD0   B1 F2             LDA (&F2),Y
DFD2   20 E3 E4          JSR &E4E3
DFD5   90 ED             BCC &DFC4
DFD7   BD 10 DF          LDA &DF10,X
DFDA   30 16             BMI &DFF2
DFDC   B1 F2             LDA (&F2),Y
DFDE   C9 2E             CMP #&2E
DFE0   F0 04             BEQ &DFE6
DFE2   18                CLC
DFE3   A4 E6             LDY &E6
DFE5   88                DEY
DFE6   C8                INY
DFE7   E8                INX
DFE8   E8                INX
DFE9   BD 0E DF          LDA &DF0E,X
DFEC   F0 33             BEQ &E021
DFEE   10 F8             BPL &DFE8
DFF0   30 DB             BMI &DFCD
DFF2   E8                INX
DFF3   E8                INX
DFF4   CA                DEX
DFF5   CA                DEX
DFF6   48                PHA                "H"
DFF7   BD 11 DF          LDA &DF11,X
DFFA   48                PHA                "H"
DFFB   20 3A E0          JSR &E03A
DFFE   18                CLC
DFFF   08                PHP
E000   20 04 E0          JSR &E004
E003   40                RTI                "@"
E004   BD 12 DF          LDA &DF12,X
E007   30 0E             BMI &E017
E009   98                TYA
E00A   BC 12 DF          LDY &DF12,X
E00D   18                CLC
E00E   65 F2             ADC &F2
E010   AA                TAX
E011   98                TYA
E012   A4 F3             LDY &F3
E014   90 01             BCC &E017
E016   C8                INY
E017   60                RTS                "`"
E018   AE 4B 02          LDX &024B
E01B   30 04             BMI &E021
E01D   38                SEC                "8"
E01E   4C E7 DB          JMP .L107
E021   A4 E6             LDY &E6
E023   A2 04             LDX #&04
E025   20 68 F1          JSR .L186
E028   F0 ED             BEQ &E017
E02A   A5 E6             LDA &E6
E02C   20 0D E0          JSR &E00D
E02F   A9 03             LDA #&03
E031   6C 1E 02   .L114  JMP (&021E)
E034   0A                ASL A
E035   29 01             AND #&01
E037   10 F8             BPL .L114
E039   C8                INY
E03A   B1 F2             LDA (&F2),Y
E03C   C9 20             CMP #&20
E03E   F0 F9             BEQ &E039
E040   C9 0D             CMP #&0D
E042   60                RTS                "`"
E043   90 F5             BCC &E03A
E045   20 3A E0          JSR &E03A
E048   C9 2C             CMP #&2C
E04A   D0 F4             BNE &E040
E04C   C8                INY
E04D   60                RTS                "`"
E04E   20 3A E0          JSR &E03A
E051   20 7D E0          JSR &E07D
E054   90 37             BCC &E08D
E056   85 E6             STA &E6
E058   20 7C E0          JSR &E07C
E05B   90 19             BCC &E076
E05D   AA                TAX
E05E   A5 E6             LDA &E6
E060   0A                ASL A
E061   B0 2A             BCS &E08D
E063   0A                ASL A
E064   B0 27             BCS &E08D
E066   65 E6             ADC &E6
E068   B0 23             BCS &E08D
E06A   0A                ASL A
E06B   B0 20             BCS &E08D
E06D   85 E6             STA &E6
E06F   8A                TXA
E070   65 E6             ADC &E6
E072   B0 19             BCS &E08D
E074   90 E0             BCC &E056
E076   A6 E6             LDX &E6
E078   C9 0D             CMP #&0D
E07A   38                SEC                "8"
E07B   60                RTS                "`"
E07C   C8                INY
E07D   B1 F2             LDA (&F2),Y
E07F   C9 3A             CMP #&3A
E081   B0 0A             BCS &E08D
E083   C9 30             CMP #&30
E085   90 06             BCC &E08D
E087   29 0F             AND #&0F
E089   60                RTS                "`"
E08A   20 45 E0          JSR &E045
E08D   18                CLC
E08E   60                RTS                "`"
E08F   20 7D E0          JSR &E07D
E092   B0 0E             BCS &E0A2
E094   29 DF             AND #&DF
E096   C9 47             CMP #&47
E098   B0 F0             BCS &E08A
E09A   C9 41             CMP #&41
E09C   90 EC             BCC &E08A
E09E   08                PHP
E09F   E9 37             SBC #&37
E0A1   28                PLP                "("
E0A2   C8                INY
E0A3   60                RTS                "`"
E0A4   48                PHA                "H"
E0A5   8A                TXA
E0A6   48                PHA                "H"
E0A7   98                TYA
E0A8   48                PHA                "H"
E0A9   BA                TSX
E0AA   BD 03 01          LDA &0103,X
E0AD   48                PHA                "H"
E0AE   2C 60 02          BIT &0260
E0B1   10 08             BPL &E0BB
E0B3   A8                TAY
E0B4   A9 04             LDA #&04
E0B6   20 7E E5          JSR &E57E
E0B9   B0 52             BCS &E10D
E0BB   18                CLC
E0BC   A9 02             LDA #&02
E0BE   2C 7C 02          BIT &027C
E0C1   D0 05             BNE &E0C8
E0C3   68                PLA                "h"
E0C4   48                PHA                "H"
E0C5   20 C0 C4          JSR &C4C0
E0C8   A9 08             LDA #&08
E0CA   2C 7C 02          BIT &027C
E0CD   D0 02             BNE &E0D1
E0CF   90 05             BCC &E0D6
E0D1   68                PLA                "h"
E0D2   48                PHA                "H"
E0D3   20 14 E1          JSR &E114
E0D6   AD 7C 02          LDA &027C
E0D9   6A                ROR A              "j"
E0DA   90 1B             BCC &E0F7
E0DC   A4 EA             LDY &EA
E0DE   88                DEY
E0DF   10 16             BPL &E0F7
E0E1   68                PLA                "h"
E0E2   48                PHA                "H"
E0E3   08                PHP
E0E4   78                SEI                "x"
E0E5   A2 02             LDX #&02
E0E7   48                PHA                "H"
E0E8   20 5B E4          JSR .L117
E0EB   90 03             BCC &E0F0
E0ED   20 70 E1          JSR &E170
E0F0   68                PLA                "h"
E0F1   A2 02             LDX #&02
E0F3   20 F8 E1          JSR &E1F8
E0F6   28                PLP                "("
E0F7   A9 10             LDA #&10
E0F9   2C 7C 02          BIT &027C
E0FC   D0 0F             BNE &E10D
E0FE   AC 57 02          LDY &0257
E101   F0 0A             BEQ &E10D
E103   68                PLA                "h"
E104   48                PHA                "H"
E105   38                SEC                "8"
E106   66 EB             ROR &EB
E108   20 D4 FF          JSR &FFD4
E10B   46 EB             LSR &EB
E10D   68                PLA                "h"
E10E   68                PLA                "h"
E10F   A8                TAY
E110   68                PLA                "h"
E111   AA                TAX
E112   68                PLA                "h"
E113   60                RTS                "`"
E114   2C 7C 02          BIT &027C
E117   70 20             BVS &E139          "p "
E119   CD 86 02          CMP &0286
E11C   F0 1B             BEQ &E139
E11E   08                PHP
E11F   78                SEI                "x"
E120   AA                TAX
E121   A9 04             LDA #&04
E123   2C 7C 02          BIT &027C
E126   D0 10             BNE &E138
E128   8A                TXA
E129   A2 03             LDX #&03
E12B   20 F8 E1          JSR &E1F8
E12E   B0 08             BCS &E138
E130   2C D2 02          BIT &02D2
E133   10 03             BPL &E138
E135   20 3A E1          JSR &E13A
E138   28                PLP                "("
E139   60                RTS                "`"
E13A   AD 85 02          LDA &0285
E13D   F0 6E             BEQ &E1AD
E13F   C9 01             CMP #&01
E141   D0 21             BNE &E164
E143   20 60 E4          JSR .L118
E146   6E D2 02          ROR &02D2
E149   30 45             BMI .L116          "0E"
E14B   A0 82             LDY #&82
E14D   8C 6E FE          STY &FE6E
E150   8D 61 FE          STA &FE61
E153   AD 6C FE          LDA &FE6C
E156   29 F1             AND #&F1
E158   09 0C             ORA #&0C
E15A   8D 6C FE          STA &FE6C
E15D   09 0E             ORA #&0E
E15F   8D 6C FE          STA &FE6C
E162   D0 2C             BNE .L116
E164   C9 02             CMP #&02
E166   D0 29             BNE &E191
E168   A4 EA             LDY &EA
E16A   88                DEY
E16B   10 40             BPL &E1AD
E16D   4E D2 02          LSR &02D2
E170   4E 4F 02          LSR &024F
E173   20 41 E7          JSR &E741
E176   90 18             BCC .L116
E178   A2 20             LDX #&20
E17A   A0 9F             LDY #&9F
E17C   08                PHP
E17D   78                SEI                "x"
E17E   98                TYA
E17F   86 FA             STX &FA
E181   2D 50 02          AND &0250
E184   45 FA             EOR &FA
E186   AE 50 02          LDX &0250
E189   8D 50 02   .L115  STA &0250
E18C   8D 08 FE   .      STA &FE08
E18F   28         .      PLP
E190   60         .L116  RTS
E191   18                CLC
E192   A9 01             LDA #&01
E194   20 A2 E1          JSR &E1A2
E197   6E D2 02          ROR &02D2
E19A   60                RTS                "`"
E19B   2C D2 02          BIT &02D2
E19E   30 FA             BMI &E19A
E1A0   A9 00             LDA #&00
E1A2   A2 03             LDX #&03
E1A4   AC 85 02          LDY &0285
E1A7   20 7E E5          JSR &E57E
E1AA   6C 22 02          JMP (&0222)
E1AD   18                CLC
E1AE   48                PHA                "H"
E1AF   08                PHP
E1B0   78                SEI                "x"
E1B1   B0 08             BCS &E1BB
E1B3   BD AD E9          LDA &E9AD,X
E1B6   10 03             BPL &E1BB
E1B8   20 A2 EC          JSR .L154
E1BB   38                SEC                "8"
E1BC   7E CF 02          ROR &02CF,X
E1BF   E0 02             CPX #&02
E1C1   B0 08             BCS &E1CB
E1C3   A9 00             LDA #&00
E1C5   8D 68 02          STA &0268
E1C8   8D 6A 02          STA &026A
E1CB   20 3B E7          JSR &E73B
E1CE   28                PLP                "("
E1CF   68                PLA                "h"
E1D0   60                RTS                "`"
E1D1   50 07             BVC &E1DA
E1D3   BD D8 02          LDA &02D8,X
E1D6   9D E1 02          STA &02E1,X
E1D9   60                RTS                "`"
E1DA   08                PHP
E1DB   78                SEI                "x"
E1DC   08                PHP
E1DD   38                SEC                "8"
E1DE   BD E1 02          LDA &02E1,X
E1E1   FD D8 02          SBC &02D8,X
E1E4   B0 04             BCS &E1EA
E1E6   38                SEC                "8"
E1E7   FD 47 E4          SBC &E447,X
E1EA   28                PLP                "("
E1EB   90 06             BCC &E1F3
E1ED   18                CLC
E1EE   7D 47 E4          ADC &E447,X
E1F1   49 FF             EOR #&FF
E1F3   A0 00             LDY #&00
E1F5   AA                TAX
E1F6   28                PLP                "("
E1F7   60                RTS                "`"
E1F8   78                SEI                "x"
E1F9   20 B0 E4          JSR .L124
E1FC   90 0F             BCC &E20D
E1FE   20 EA E9          JSR .L139
E201   08                PHP
E202   48                PHA                "H"
E203   20 EB EE          JSR .L176
E206   68                PLA                "h"
E207   28                PLP                "("
E208   30 03             BMI &E20D
E20A   58                CLI                "X"
E20B   B0 EB             BCS &E1F8
E20D   60                RTS                "`"
E20E   48                PHA                "H"
E20F   A9 00             LDA #&00
E211   9D EE 02          STA &02EE,X
E214   9D EF 02          STA &02EF,X
E217   9D F0 02          STA &02F0,X
E21A   9D F1 02          STA &02F1,X
E21D   68                PLA                "h"
E21E   60                RTS                "`"
E21F   84 E6             STY &E6
E221   2A                ROL A              "*"
E222   2A                ROL A              "*"
E223   2A                ROL A              "*"
E224   2A                ROL A              "*"
E225   A0 04             LDY #&04
E227   2A                ROL A              "*"
E228   3E EE 02          ROL &02EE,X
E22B   3E EF 02          ROL &02EF,X
E22E   3E F0 02          ROL &02F0,X
E231   3E F1 02          ROL &02F1,X
E234   B0 31             BCS &E267
E236   88                DEY
E237   D0 EE             BNE &E227
E239   A4 E6             LDY &E6
E23B   60                RTS                "`"
E23C   A9 FF             LDA #&FF
E23E   86 F2             STX &F2
E240   84 F3             STY &F3
E242   8E EE 02          STX &02EE
E245   8C EF 02          STY &02EF
E248   48                PHA                "H"
E249   A2 02             LDX #&02
E24B   20 0E E2          JSR &E20E
E24E   A0 FF             LDY #&FF
E250   8C F4 02          STY &02F4
E253   C8                INY
E254   20 1D EA          JSR &EA1D
E257   20 2F EA          JSR &EA2F
E25A   90 FB             BCC &E257
E25C   68                PLA                "h"
E25D   48                PHA                "H"
E25E   F0 62             BEQ &E2C2
E260   20 AD E2          JSR &E2AD
E263   B0 3B             BCS &E2A0
E265   F0 3E             BEQ &E2A5
E267   00                BRK
E268   FC
E269   42                                   "B"
E26A   61 64             ADC (&64,X)        "ad"
E26C   20 61 64          JSR &6461          " ad"
E26F   64                                   "d"
E270   72                                   "r"
E271   65 73             ADC &73            "es"
E273   73                                   "s"
E274   00                BRK
E275   A2 10             LDX #&10
E277   20 68 F1          JSR .L186
E27A   F0 23             BEQ &E29F
E27C   20 8B F6          JSR &F68B
E27F   A9 00             LDA #&00
E281   08                PHP
E282   84 E6             STY &E6
E284   AC 57 02          LDY &0257
E287   8D 57 02          STA &0257
E28A   F0 03             BEQ &E28F
E28C   20 CE FF          JSR &FFCE
E28F   A4 E6             LDY &E6
E291   28                PLP                "("
E292   F0 0B             BEQ &E29F
E294   A9 80             LDA #&80
E296   20 CE FF          JSR &FFCE
E299   A8                TAY
E29A   F0 74             BEQ &E310
E29C   8D 57 02          STA &0257
E29F   60                RTS                "`"
E2A0   D0 6E             BNE &E310
E2A2   EE F4 02          INC &02F4
E2A5   A2 EE             LDX #&EE
E2A7   A0 02             LDY #&02
E2A9   68                PLA                "h"
E2AA   4C DD FF          JMP &FFDD
E2AD   20 3A E0          JSR &E03A
E2B0   20 8F E0          JSR &E08F
E2B3   90 0C             BCC &E2C1
E2B5   20 0E E2          JSR &E20E
E2B8   20 1F E2          JSR &E21F
E2BB   20 8F E0          JSR &E08F
E2BE   B0 F8             BCS &E2B8
E2C0   38                SEC                "8"
E2C1   60                RTS                "`"
E2C2   A2 0A             LDX #&0A
E2C4   20 AD E2          JSR &E2AD
E2C7   90 47             BCC &E310
E2C9   B8                CLV
E2CA   B1 F2             LDA (&F2),Y
E2CC   C9 2B             CMP #&2B
E2CE   D0 04             BNE &E2D4
E2D0   2C B7 D9          BIT &D9B7
E2D3   C8                INY
E2D4   A2 0E             LDX #&0E
E2D6   20 AD E2          JSR &E2AD
E2D9   90 35             BCC &E310
E2DB   08                PHP
E2DC   50 0F             BVC &E2ED
E2DE   A2 FC             LDX #&FC
E2E0   18                CLC
E2E1   BD FC 01          LDA &01FC,X
E2E4   7D 00 02          ADC &0200,X
E2E7   9D 00 02          STA &0200,X
E2EA   E8                INX
E2EB   D0 F4             BNE &E2E1
E2ED   A2 03             LDX #&03
E2EF   BD F8 02          LDA &02F8,X
E2F2   9D F4 02          STA &02F4,X
E2F5   9D F0 02          STA &02F0,X
E2F8   CA                DEX
E2F9   10 F4             BPL &E2EF
E2FB   28                PLP                "("
E2FC   F0 A7             BEQ &E2A5
E2FE   A2 06             LDX #&06
E300   20 AD E2          JSR &E2AD
E303   90 0B             BCC &E310
E305   F0 9E             BEQ &E2A5
E307   A2 02             LDX #&02
E309   20 AD E2          JSR &E2AD
E30C   90 02             BCC &E310
E30E   F0 95             BEQ &E2A5
E310   00                BRK
E311   FE 42 61          INC &6142,X
E314   64                                   "d"
E315   20 63 6F          JSR &6F63          " co"
E318   6D 6D 61          ADC &616D          "mma"
E31B   6E 64 00          ROR &0064
E31E   FB
E31F   42                                   "B"
E320   61 64             ADC (&64,X)        "ad"
E322   20 6B 65          JSR &656B          " ke"
E325   79 00 20          ADC &2000,Y
E328   4E E0 90          LSR &90E0
E32B   F1 E0             SBC (&E0),Y
E32D   10 B0             BPL &E2DF
E32F   ED 20 45          SBC &4520
E332   E0 08             CPX #&08
E334   AE 10 0B          LDX &0B10
E337   98                TYA
E338   48                PHA                "H"
E339   20 D1 E3          JSR &E3D1
E33C   68                PLA                "h"
E33D   A8                TAY
E33E   28                PLP                "("
E33F   D0 36             BNE &E377
E341   60                RTS                "`"
E342   20 4E E0          JSR &E04E
E345   90 C9             BCC &E310
E347   8A                TXA
E348   48                PHA                "H"
E349   A9 00             LDA #&00
E34B   85 E5             STA &E5
E34D   85 E4             STA &E4
E34F   20 43 E0          JSR &E043
E352   F0 18             BEQ &E36C
E354   20 4E E0          JSR &E04E
E357   90 B7             BCC &E310
E359   86 E5             STX &E5
E35B   20 45 E0          JSR &E045
E35E   F0 0C             BEQ &E36C
E360   20 4E E0          JSR &E04E
E363   90 AB             BCC &E310
E365   86 E4             STX &E4
E367   20 3A E0          JSR &E03A
E36A   D0 A4             BNE &E310
E36C   A4 E4             LDY &E4
E36E   A6 E5             LDX &E5
E370   68                PLA                "h"
E371   20 F4 FF          JSR &FFF4
E374   70 9A             BVS &E310
E376   60                RTS                "`"
E377   38                SEC                "8"
E378   20 1E EA          JSR &EA1E
E37B   20 2F EA          JSR &EA2F
E37E   B0 08             BCS &E388
E380   E8                INX
E381   F0 9A             BEQ &E31D
E383   9D 00 0B          STA &0B00,X
E386   90 F3             BCC &E37B
E388   D0 93             BNE &E31D
E38A   08                PHP
E38B   78                SEI                "x"
E38C   20 D1 E3          JSR &E3D1
E38F   A2 10             LDX #&10
E391   E4 E6             CPX &E6
E393   F0 0E             BEQ &E3A3
E395   BD 00 0B          LDA &0B00,X
E398   D9 00 0B          CMP &0B00,Y
E39B   D0 06             BNE &E3A3
E39D   AD 10 0B          LDA &0B10
E3A0   9D 00 0B          STA &0B00,X
E3A3   CA                DEX
E3A4   10 EB             BPL &E391
E3A6   28                PLP                "("
E3A7   60                RTS                "`"
E3A8   08                PHP
E3A9   78                SEI                "x"
E3AA   AD 10 0B          LDA &0B10
E3AD   38                SEC                "8"
E3AE   F9 00 0B          SBC &0B00,Y
E3B1   85 FB             STA &FB
E3B3   8A                TXA
E3B4   48                PHA                "H"
E3B5   A2 10             LDX #&10
E3B7   BD 00 0B          LDA &0B00,X
E3BA   38                SEC                "8"
E3BB   F9 00 0B          SBC &0B00,Y
E3BE   90 08             BCC &E3C8
E3C0   F0 06             BEQ &E3C8
E3C2   C5 FB             CMP &FB
E3C4   B0 02             BCS &E3C8
E3C6   85 FB             STA &FB
E3C8   CA                DEX
E3C9   10 EC             BPL &E3B7
E3CB   68                PLA                "h"
E3CC   AA                TAX
E3CD   A5 FB             LDA &FB
E3CF   28                PLP                "("
E3D0   60                RTS                "`"
E3D1   08                PHP
E3D2   78                SEI                "x"
E3D3   8A                TXA
E3D4   48                PHA                "H"
E3D5   A4 E6             LDY &E6
E3D7   20 A8 E3          JSR &E3A8
E3DA   B9 00 0B          LDA &0B00,Y
E3DD   A8                TAY
E3DE   18                CLC
E3DF   65 FB             ADC &FB
E3E1   AA                TAX
E3E2   85 FA             STA &FA
E3E4   AD 68 02          LDA &0268
E3E7   F0 0D             BEQ &E3F6
E3E9   00                BRK
E3EA   FA
E3EB   4B                                   "K"
E3EC   65 79             ADC &79            "ey"
E3EE   20 69 6E          JSR &6E69          " in"
E3F1   20 75 73          JSR &7375          " us"
E3F4   65 00             ADC &00
E3F6   CE 84 02          DEC &0284
E3F9   68                PLA                "h"
E3FA   38                SEC                "8"
E3FB   E5 FA             SBC &FA
E3FD   85 FA             STA &FA
E3FF   F0 0C             BEQ &E40D
E401   BD 01 0B          LDA &0B01,X
E404   99 01 0B          STA &0B01,Y
E407   C8                INY
E408   E8                INX
E409   C6 FA             DEC &FA
E40B   D0 F4             BNE &E401
E40D   98                TYA
E40E   48                PHA                "H"
E40F   A4 E6             LDY &E6
E411   A2 10             LDX #&10
E413   BD 00 0B          LDA &0B00,X
E416   D9 00 0B          CMP &0B00,Y
E419   90 07             BCC &E422
E41B   F0 05             BEQ &E422
E41D   E5 FB             SBC &FB
E41F   9D 00 0B          STA &0B00,X
E422   CA                DEX
E423   10 EE             BPL &E413
E425   AD 10 0B          LDA &0B10
E428   99 00 0B          STA &0B00,Y
E42B   68                PLA                "h"
E42C   8D 10 0B          STA &0B10
E42F   AA                TAX
E430   EE 84 02          INC &0284
E433   28                PLP                "("
E434   60                RTS                "`"
E435   03
E436   0A                ASL A
E437   08                PHP
E438   07
E439   07
E43A   07
E43B   07
E43C   07
E43D   09 00             ORA #&00
E43F   00                BRK
E440   C0 C0             CPY #&C0
E442   50 60             BVC .L121          "P`"
E444   70 80             BVS &E3C6
E446   00                BRK
E447   E0 00             CPX #&00
E449   40                RTI                "@"
E44A   C0 F0             CPY #&F0
E44C   F0 F0             BEQ &E43E
E44E   F0 C0             BEQ &E410
E450   BD 3E E4          LDA &E43E,X
E453   85 FA             STA &FA
E455   BD 35 E4          LDA &E435,X
E458   85 FB             STA &FB
E45A   60                RTS                "`"
E45B   2C B7 D9   .L117  BIT &D9B7
E45E   70 01      .      BVS .L119
E460   B8         .L118  CLV
E461   6C 2C 02   .L119  JMP (&022C)
E464   08                PHP
E465   78                SEI                "x"
E466   BD D8 02          LDA &02D8,X
E469   DD E1 02          CMP &02E1,X
E46C   F0 72             BEQ .L126
E46E   A8                TAY
E46F   20 50 E4          JSR &E450
E472   B1 FA             LDA (&FA),Y
E474   70 1B             BVS &E491
E476   48                PHA                "H"
E477   C8                INY
E478   98                TYA
E479   D0 03             BNE &E47E
E47B   BD 47 E4          LDA &E447,X
E47E   9D D8 02          STA &02D8,X
E481   E0 02             CPX #&02
E483   90 0A             BCC &E48F
E485   DD E1 02          CMP &02E1,X
E488   D0 05             BNE &E48F
E48A   A0 00             LDY #&00
E48C   20 94 E4          JSR .L120
E48F   68                PLA                "h"
E490   A8                TAY
E491   28                PLP                "("
E492   18                CLC
E493   60                RTS                "`"
E494   08         .L120  PHP
E495   78         .      SEI
E496   48         .      PHA
E497   85 FA      .      STA &FA
E499   B9 BF 02   .      LDA &02BF,Y
E49C   F0 41      .      BEQ .L125
E49E   98         .      TYA
E49F   A4 FA      .      LDY &FA
E4A1   20 A5 F0   .      JSR &F0A5
E4A4   68         .L121  PLA
E4A5   28         .      PLP
E4A6   18         .      CLC
E4A7   60         .      RTS
E4A8   98         .L122  TYA
E4A9   A0 02      .      LDY #&02
E4AB   20 94 E4   .      JSR .L120
E4AE   A8         .      TAY
E4AF   98         .L123  TYA
E4B0   6C 2A 02   .L124  JMP (&022A)
E4B3   08                PHP
E4B4   78                SEI                "x"
E4B5   48                PHA                "H"
E4B6   BC E1 02          LDY &02E1,X
E4B9   C8                INY
E4BA   D0 03             BNE &E4BF
E4BC   BC 47 E4          LDY &E447,X
E4BF   98                TYA
E4C0   DD D8 02          CMP &02D8,X
E4C3   F0 0F             BEQ &E4D4
E4C5   BC E1 02          LDY &02E1,X
E4C8   9D E1 02          STA &02E1,X
E4CB   20 50 E4          JSR &E450
E4CE   68                PLA                "h"
E4CF   91 FA             STA (&FA),Y
E4D1   28                PLP                "("
E4D2   18                CLC
E4D3   60                RTS                "`"
E4D4   68                PLA                "h"
E4D5   E0 02             CPX #&02
E4D7   B0 07             BCS .L126
E4D9   A0 01             LDY #&01
E4DB   20 94 E4          JSR .L120
E4DE   48                PHA                "H"
E4DF   68         .L125  PLA
E4E0   28         .L126  PLP
E4E1   38         .      SEC
E4E2   60         .      RTS
E4E3   48                PHA                "H"
E4E4   29 DF             AND #&DF
E4E6   C9 41             CMP #&41
E4E8   90 04             BCC &E4EE
E4EA   C9 5B             CMP #&5B
E4EC   90 01             BCC &E4EF
E4EE   38                SEC                "8"
E4EF   68                PLA                "h"
E4F0   60                RTS                "`"
E4F1   A2 00      .L127  LDX #&00
E4F3   8A         .L128  TXA
E4F4   2D 45 02   .      AND &0245
E4F7   D0 B6      .      BNE .L123
E4F9   98         .      TYA
E4FA   4D 6C 02   .      EOR &026C
E4FD   0D 75 02   .      ORA &0275
E500   D0 A6      .      BNE .L122
E502   AD 58 02   .      LDA &0258
E505   6A         .      ROR A
E506   98         .      TYA
E507   B0 0A      .      BCS .L129
E509   A0 06      .      LDY #&06
E50B   20 94 E4   .      JSR .L120
E50E   90 03      .      BCC .L129
E510   20 74 E6   .      JSR .L130
E513   18         .L129  CLC
E514   60         .      RTS
E515   6A                ROR A              "j"
E516   68                PLA                "h"
E517   B0 79             BCS &E592
E519   98                TYA
E51A   48                PHA                "H"
E51B   4A                LSR A              "J"
E51C   4A                LSR A              "J"
E51D   4A                LSR A              "J"
E51E   4A                LSR A              "J"
E51F   49 04             EOR #&04
E521   A8                TAY
E522   B9 65 02          LDA &0265,Y
E525   C9 01             CMP #&01
E527   F0 6B             BEQ &E594
E529   68                PLA                "h"
E52A   90 0D             BCC &E539
E52C   29 0F             AND #&0F
E52E   18                CLC
E52F   79 65 02          ADC &0265,Y
E532   18                CLC
E533   60                RTS                "`"
E534   20 6F E8          JSR &E86F
E537   68                PLA                "h"
E538   AA                TAX
E539   20 60 E4          JSR .L118
E53C   B0 55             BCS &E593
E53E   48                PHA                "H"
E53F   E0 01             CPX #&01
E541   D0 06             BNE &E549
E543   20 73 E1          JSR &E173
E546   A2 01             LDX #&01
E548   38                SEC                "8"
E549   68                PLA                "h"
E54A   90 05             BCC &E551
E54C   AC 45 02          LDY &0245
E54F   D0 41             BNE &E592
E551   A8                TAY
E552   10 3E             BPL &E592
E554   29 0F             AND #&0F
E556   C9 0B             CMP #&0B
E558   90 BF             BCC &E519
E55A   69 7B             ADC #&7B           "i{"
E55C   48                PHA                "H"
E55D   AD 7D 02          LDA &027D
E560   D0 B3             BNE &E515
E562   AD 7C 02          LDA &027C
E565   6A                ROR A              "j"
E566   6A                ROR A              "j"
E567   68                PLA                "h"
E568   B0 CF             BCS &E539
E56A   C9 87             CMP #&87
E56C   F0 38             BEQ &E5A6
E56E   A8                TAY
E56F   8A                TXA
E570   48                PHA                "H"
E571   98                TYA
E572   20 CE D8          JSR &D8CE
E575   68                PLA                "h"
E576   AA                TAX
E577   2C 5F 02          BIT &025F
E57A   10 05             BPL &E581
E57C   A9 06             LDA #&06
E57E   6C 24 02          JMP (&0224)
E581   AD 68 02          LDA &0268
E584   F0 B3             BEQ &E539
E586   AC C9 02          LDY &02C9
E589   B9 01 0B          LDA &0B01,Y
E58C   EE C9 02          INC &02C9
E58F   CE 68 02          DEC &0268
E592   18                CLC
E593   60                RTS                "`"
E594   68                PLA                "h"
E595   29 0F             AND #&0F
E597   A8                TAY
E598   20 A8 E3          JSR &E3A8
E59B   8D 68 02          STA &0268
E59E   B9 00 0B          LDA &0B00,Y
E5A1   8D C9 02          STA &02C9
E5A4   D0 D1             BNE &E577
E5A6   8A                TXA
E5A7   48                PHA                "H"
E5A8   20 05 D9          JSR &D905
E5AB   A8                TAY
E5AC   F0 86             BEQ &E534
E5AE   68                PLA                "h"
E5AF   AA                TAX
E5B0   98                TYA
E5B1   18                CLC
E5B2   60                RTS                "`"
E5B3   21 E8             AND (&E8,X)
E5B5   88                DEY
E5B6   E9 D3             SBC #&D3
E5B8   E6 97             INC &97
E5BA   E9 97             SBC #&97
E5BC   E9 76             SBC #&76
E5BE   E9 88             SBC #&88
E5C0   E9 8B             SBC #&8B
E5C2   E6 89             INC &89
E5C4   E6 B0             INC &B0
E5C6   E6 B2             INC &B2
E5C8   E6 95             INC &95
E5CA   E9 8C             SBC #&8C
E5CC   E9 F9             SBC #&F9
E5CE   E6 FA             INC &FA
E5D0   E6 A8             INC &A8
E5D2   F0 06             BEQ &E5DA
E5D4   E7
E5D5   8C DE C8          STY &C8DE
E5D8   E9 B6             SBC #&B6
E5DA   E9 07             SBC #&07
E5DC   CD B4 F0          CMP &F0B4
E5DF   6C E8 D9          JMP (&D9E8)
E5E2   E9 75             SBC #&75
E5E4   E2
E5E5   45 F0             EOR &F0
E5E7   CF
E5E8   F0 CD             BEQ &E5B7
E5EA   F0 97             BEQ &E583
E5EC   E1 73             SBC (&73,X)
E5EE   E6 74             INC &74
E5F0   E6 5C             INC &5C
E5F2   E6 35             INC &35
E5F4   E0 4F             CPX #&4F
E5F6   E7
E5F7   13
E5F8   E7
E5F9   29 E7             AND #&E7
E5FB   85 F0             STA &F0
E5FD   23                                   "#"
E5FE   D9 26 D9          CMP &D926,Y
E601   47                                   "G"
E602   D6 C2             DEC &C2,X
E604   D7
E605   57                                   "W"
E606   E6 7F             INC &7F
E608   E6 AF             INC &AF
E60A   E4 34             CPX &34
E60C   E0 35             CPX #&35
E60E   F1 35             SBC (&35),Y
E610   F1 E7             SBC (&E7),Y
E612   DB
E613   68                PLA                "h"
E614   F1 E3             SBC (&E3),Y
E616   EA                NOP
E617   60                RTS                "`"
E618   E4 AA             CPX &AA
E61A   FF
E61B   F4
E61C   EA                NOP
E61D   AE FF F9          LDX &F9FF
E620   EA                NOP
E621   B2
E622   FF
E623   FE EA 5B          INC &5BEA,X
E626   E4 F3             CPX &F3
E628   E4 FF             CPX &FF
E62A   E9 10             SBC #&10
E62C   EA                NOP
E62D   7C                                   "|"
E62E   E1 A7             SBC (&A7,X)
E630   FF
E631   6D EE 7F          ADC &7FEE
E634   EE C0 E9          INC &E9C0
E637   9C
E638   E9 59             SBC #&59
E63A   E6 02             INC &02
E63C   E9 D5             SBC #&D5
E63E   E8                INX
E63F   E8                INX
E640   E8                INX
E641   D1 E8             CMP (&E8),Y
E643   E4 E8             CPX &E8
E645   03
E646   E8                INX
E647   0B
E648   E8                INX
E649   2D E8 AE          AND &AEE8
E64C   E8                INX
E64D   35 C7             AND &C7,X
E64F   F3
E650   CB
E651   48                PHA                "H"
E652   C7
E653   E0 C8             CPX #&C8
E655   CE D5 A9          DEC &A9D5
E658   00                BRK
E659   6C 00 02          JMP (&0200)
E65C   A2 00             LDX #&00
E65E   24 FF             BIT &FF
E660   10 11             BPL &E673
E662   AD 76 02          LDA &0276
E665   D0 0A             BNE &E671
E667   58                CLI                "X"
E668   8D 69 02          STA &0269
E66B   20 8D F6          JSR &F68D
E66E   20 AA F0          JSR &F0AA
E671   A2 FF             LDX #&FF
E673   18                CLC
E674   66 FF      .L130  ROR &FF
E676   2C 7A 02   .      BIT &027A
E679   30 01      .      BMI .L131
E67B   60         .      RTS
E67C   4C 03 04   .L131  JMP &0403
E67F   AD 82 02          LDA &0282
E682   A8                TAY
E683   2A                ROL A              "*"
E684   E0 01             CPX #&01
E686   6A                ROR A              "j"
E687   50 1E             BVC .L132
E689   A9 38             LDA #&38
E68B   49 3F             EOR #&3F           "I?"
E68D   85 FA             STA &FA
E68F   AC 82 02          LDY &0282
E692   E0 09             CPX #&09
E694   B0 17             BCS .L133
E696   3D AD E9          AND &E9AD,X
E699   85 FB             STA &FB
E69B   98                TYA
E69C   05 FA             ORA &FA
E69E   45 FA             EOR &FA
E6A0   05 FB             ORA &FB
E6A2   09 40             ORA #&40
E6A4   4D 5D 02          EOR &025D
E6A7   8D 82 02   .L132  STA &0282
E6AA   8D 10 FE   .      STA &FE10
E6AD   98         .L133  TYA
E6AE   AA         .L134  TAX
E6AF   60         .      RTS
E6B0   C8                INY
E6B1   18                CLC
E6B2   B9 52 02          LDA &0252,Y
E6B5   48                PHA                "H"
E6B6   8A                TXA
E6B7   99 52 02          STA &0252,Y
E6BA   68                PLA                "h"
E6BB   A8                TAY
E6BC   AD 51 02          LDA &0251
E6BF   D0 10             BNE &E6D1
E6C1   8E 51 02          STX &0251
E6C4   AD 48 02          LDA &0248
E6C7   08                PHP
E6C8   6A                ROR A              "j"
E6C9   28                PLP                "("
E6CA   2A                ROL A              "*"
E6CB   8D 48 02          STA &0248
E6CE   8D 20 FE          STA &FE20
E6D1   50 DA             BVC .L133
E6D3   8A                TXA
E6D4   29 01             AND #&01
E6D6   48                PHA                "H"
E6D7   AD 50 02          LDA &0250
E6DA   2A                ROL A              "*"
E6DB   E0 01             CPX #&01
E6DD   6A                ROR A              "j"
E6DE   CD 50 02          CMP &0250
E6E1   08                PHP
E6E2   8D 50 02          STA &0250
E6E5   8D 08 FE          STA &FE08
E6E8   20 73 E1          JSR &E173
E6EB   28                PLP                "("
E6EC   F0 03             BEQ &E6F1
E6EE   2C 09 FE          BIT &FE09
E6F1   AE 41 02          LDX &0241
E6F4   68                PLA                "h"
E6F5   8D 41 02          STA &0241
E6F8   60                RTS                "`"
E6F9   98                TYA
E6FA   E0 0A             CPX #&0A
E6FC   B0 B0             BCS .L134
E6FE   BC BF 02          LDY &02BF,X
E701   9D BF 02          STA &02BF,X
E704   50 A7             BVC .L133
E706   F0 03             BEQ &E70B
E708   20 8C DE          JSR &DE8C
E70B   AD 4D 02          LDA &024D
E70E   8E 4D 02          STX &024D
E711   AA                TAX
E712   60                RTS                "`"
E713   98                TYA
E714   30 0B             BMI &E721
E716   58                CLI                "X"
E717   20 BB DE          JSR &DEBB
E71A   B0 03             BCS &E71F
E71C   AA                TAX
E71D   A9 00             LDA #&00
E71F   A8                TAY
E720   60                RTS                "`"
E721   8A                TXA
E722   49 7F             EOR #&7F
E724   AA                TAX
E725   20 68 F0          JSR .L178
E728   2A                ROL A              "*"
E729   A2 FF             LDX #&FF
E72B   A0 FF             LDY #&FF
E72D   B0 02             BCS &E731
E72F   E8                INX
E730   C8                INY
E731   60                RTS                "`"
E732   8A                TXA
E733   49 FF             EOR #&FF
E735   AA                TAX
E736   E0 02             CPX #&02
E738   B8                CLV
E739   50 03             BVC &E73E
E73B   2C B7 D9          BIT &D9B7
E73E   6C 2E 02          JMP (&022E)
E741   38                SEC                "8"
E742   A2 01             LDX #&01
E744   20 38 E7          JSR &E738
E747   C0 01             CPY #&01
E749   B0 03             BCS &E74E
E74B   EC 5B 02          CPX &025B
E74E   60                RTS                "`"
E74F   30 E1             BMI &E732
E751   F0 0C             BEQ &E75F
E753   E0 05             CPX #&05
E755   B0 D2             BCS &E729
E757   BC B9 02          LDY &02B9,X
E75A   BD B5 02          LDA &02B5,X
E75D   AA                TAX
E75E   60                RTS                "`"
E75F   AD 40 FE          LDA &FE40
E762   6A                ROR A              "j"
E763   6A                ROR A              "j"
E764   6A                ROR A              "j"
E765   6A                ROR A              "j"
E766   49 FF             EOR #&FF
E768   29 03             AND #&03
E76A   AC BE 02          LDY &02BE
E76D   8E BE 02          STX &02BE
E770   AA                TAX
E771   60                RTS                "`"
E772   48                PHA                "H"
E773   08                PHP
E774   78                SEI                "x"
E775   85 EF             STA &EF
E777   86 F0             STX &F0
E779   84 F1             STY &F1
E77B   A2 07             LDX #&07
E77D   C9 75             CMP #&75
E77F   90 41             BCC &E7C2
E781   C9 A1             CMP #&A1
E783   90 09             BCC &E78E
E785   C9 A6             CMP #&A6
E787   90 3F             BCC &E7C8
E789   18                CLC
E78A   A9 A1             LDA #&A1
E78C   69 00             ADC #&00
E78E   38                SEC                "8"
E78F   E9 5F             SBC #&5F
E791   0A                ASL A
E792   38                SEC                "8"
E793   84 F1             STY &F1
E795   A8                TAY
E796   2C 5E 02          BIT &025E
E799   10 07             BPL &E7A2
E79B   8A                TXA
E79C   B8                CLV
E79D   20 7E E5          JSR &E57E
E7A0   70 1A             BVS &E7BC
E7A2   B9 B4 E5          LDA &E5B4,Y
E7A5   85 FB             STA &FB
E7A7   B9 B3 E5          LDA &E5B3,Y
E7AA   85 FA             STA &FA
E7AC   A5 EF             LDA &EF
E7AE   A4 F1             LDY &F1
E7B0   B0 04             BCS &E7B6
E7B2   A0 00             LDY #&00
E7B4   B1 F0             LDA (&F0),Y
E7B6   38                SEC                "8"
E7B7   A6 F0             LDX &F0
E7B9   20 58 F0          JSR &F058
E7BC   6A                ROR A              "j"
E7BD   28                PLP                "("
E7BE   2A                ROL A              "*"
E7BF   68                PLA                "h"
E7C0   B8                CLV
E7C1   60                RTS                "`"
E7C2   A0 00             LDY #&00
E7C4   C9 16             CMP #&16
E7C6   90 C9             BCC &E791
E7C8   08                PHP
E7C9   08                PHP
E7CA   68                PLA                "h"
E7CB   68                PLA                "h"
E7CC   20 68 F1          JSR .L186
E7CF   D0 05             BNE &E7D6
E7D1   A6 F0             LDX &F0
E7D3   4C BC E7          JMP &E7BC
E7D6   28                PLP                "("
E7D7   68                PLA                "h"
E7D8   2C B7 D9          BIT &D9B7
E7DB   60                RTS                "`"
E7DC   A5 EB             LDA &EB
E7DE   30 32             BMI &E812          "02"
E7E0   A9 08             LDA #&08
E7E2   25 E2             AND &E2
E7E4   D0 04             BNE &E7EA
E7E6   A9 88             LDA #&88
E7E8   25 BB             AND &BB
E7EA   60                RTS                "`"
E7EB   48                PHA                "H"
E7EC   08                PHP
E7ED   78                SEI                "x"
E7EE   85 EF             STA &EF
E7F0   86 F0             STX &F0
E7F2   84 F1             STY &F1
E7F4   A2 08             LDX #&08
E7F6   C9 E0             CMP #&E0
E7F8   B0 90             BCS &E78A
E7FA   C9 0E             CMP #&0E
E7FC   B0 CA             BCS &E7C8
E7FE   69 44             ADC #&44           "iD"
E800   0A                ASL A
E801   90 90             BCC &E793
E803   20 15 E8          JSR &E815
E806   A1 F9             LDA (&F9,X)
E808   91 F0             STA (&F0),Y
E80A   60                RTS                "`"
E80B   20 15 E8          JSR &E815
E80E   B1 F0             LDA (&F0),Y
E810   81 F9             STA (&F9,X)
E812   A9 00             LDA #&00
E814   60                RTS                "`"
E815   85 FA             STA &FA
E817   C8                INY
E818   B1 F0             LDA (&F0),Y
E81A   85 FB             STA &FB
E81C   A0 04             LDY #&04
E81E   A2 01             LDX #&01
E820   60                RTS                "`"
E821   D0 FB             BNE &E81E
E823   00                BRK
E824   F7
E825   4F                                   "O"
E826   53                                   "S"
E827   20 31 2E          JSR &2E31          " 1."
E82A   32                                   "2"
E82B   30 00             BMI &E82D
E82D   C8                INY
E82E   B1 F0             LDA (&F0),Y
E830   C9 FF             CMP #&FF
E832   F0 59             BEQ &E88D
E834   C9 20             CMP #&20
E836   A2 08             LDX #&08
E838   B0 90             BCS &E7CA
E83A   88                DEY
E83B   20 C9 E8          JSR &E8C9
E83E   09 04             ORA #&04
E840   AA                TAX
E841   90 05             BCC &E848
E843   20 AE E1          JSR &E1AE
E846   A0 01             LDY #&01
E848   20 C9 E8          JSR &E8C9
E84B   85 FA             STA &FA
E84D   08                PHP
E84E   A0 06             LDY #&06
E850   B1 F0             LDA (&F0),Y
E852   48                PHA                "H"
E853   A0 04             LDY #&04
E855   B1 F0             LDA (&F0),Y
E857   48                PHA                "H"
E858   A0 02             LDY #&02
E85A   B1 F0             LDA (&F0),Y
E85C   2A                ROL A              "*"
E85D   38                SEC                "8"
E85E   E9 02             SBC #&02
E860   0A                ASL A
E861   0A                ASL A
E862   05 FA             ORA &FA
E864   20 F8 E1          JSR &E1F8
E867   90 1E             BCC &E887
E869   68                PLA                "h"
E86A   68                PLA                "h"
E86B   28                PLP                "("
E86C   A6 D0             LDX &D0
E86E   60                RTS                "`"
E86F   08                PHP
E870   78                SEI                "x"
E871   AD 63 02          LDA &0263
E874   29 07             AND #&07
E876   09 04             ORA #&04
E878   AA                TAX
E879   AD 64 02          LDA &0264
E87C   20 B0 E4          JSR .L124
E87F   AD 66 02          LDA &0266
E882   48                PHA                "H"
E883   AD 65 02          LDA &0265
E886   48                PHA                "H"
E887   38                SEC                "8"
E888   7E 00 08          ROR &0800,X
E88B   30 17             BMI &E8A4
E88D   08                PHP
E88E   C8                INY
E88F   B1 F0             LDA (&F0),Y
E891   48                PHA                "H"
E892   C8                INY
E893   B1 F0             LDA (&F0),Y
E895   48                PHA                "H"
E896   A0 00             LDY #&00
E898   B1 F0             LDA (&F0),Y
E89A   A2 08             LDX #&08
E89C   20 F8 E1          JSR &E1F8
E89F   B0 C8             BCS &E869
E8A1   6E D7 02          ROR &02D7
E8A4   68                PLA                "h"
E8A5   20 B0 E4          JSR .L124
E8A8   68                PLA                "h"
E8A9   20 B0 E4          JSR .L124
E8AC   28                PLP                "("
E8AD   60                RTS                "`"
E8AE   E9 01             SBC #&01
E8B0   0A                ASL A
E8B1   0A                ASL A
E8B2   0A                ASL A
E8B3   0A                ASL A
E8B4   09 0F             ORA #&0F
E8B6   AA                TAX
E8B7   A9 00             LDA #&00
E8B9   A0 10             LDY #&10
E8BB   C0 0E             CPY #&0E
E8BD   B0 02             BCS &E8C1
E8BF   B1 F0             LDA (&F0),Y
E8C1   9D C0 08          STA &08C0,X
E8C4   CA                DEX
E8C5   88                DEY
E8C6   D0 F3             BNE &E8BB
E8C8   60                RTS                "`"
E8C9   B1 F0             LDA (&F0),Y
E8CB   C9 10             CMP #&10
E8CD   29 03             AND #&03
E8CF   C8                INY
E8D0   60                RTS                "`"
E8D1   A2 0F             LDX #&0F
E8D3   D0 03             BNE &E8D8
E8D5   AE 83 02          LDX &0283
E8D8   A0 04             LDY #&04
E8DA   BD 8D 02          LDA &028D,X
E8DD   91 F0             STA (&F0),Y
E8DF   E8                INX
E8E0   88                DEY
E8E1   10 F7             BPL &E8DA
E8E3   60                RTS                "`"
E8E4   A9 0F             LDA #&0F
E8E6   D0 06             BNE &E8EE
E8E8   AD 83 02          LDA &0283
E8EB   49 0F             EOR #&0F
E8ED   18                CLC
E8EE   48                PHA                "H"
E8EF   AA                TAX
E8F0   A0 04             LDY #&04
E8F2   B1 F0             LDA (&F0),Y
E8F4   9D 8D 02          STA &028D,X
E8F7   E8                INX
E8F8   88                DEY
E8F9   10 F7             BPL &E8F2
E8FB   68                PLA                "h"
E8FC   B0 E5             BCS &E8E3
E8FE   8D 83 02          STA &0283
E901   60                RTS                "`"
E902   A0 04             LDY #&04
E904   B1 F0             LDA (&F0),Y
E906   99 B1 02          STA &02B1,Y
E909   88                DEY
E90A   C0 02             CPY #&02
E90C   B0 F6             BCS &E904
E90E   B1 F0             LDA (&F0),Y
E910   85 E9             STA &E9
E912   88                DEY
E913   8C 69 02          STY &0269
E916   B1 F0             LDA (&F0),Y
E918   85 E8             STA &E8
E91A   58                CLI                "X"
E91B   90 07             BCC &E924
E91D   A9 07             LDA #&07
E91F   88                DEY
E920   C8                INY
E921   20 EE FF          JSR .L200
E924   20 E0 FF          JSR &FFE0
E927   B0 49             BCS &E972
E929   AA                TAX
E92A   AD 7C 02          LDA &027C
E92D   6A                ROR A              "j"
E92E   6A                ROR A              "j"
E92F   8A                TXA
E930   B0 05             BCS &E937
E932   AE 6A 02          LDX &026A
E935   D0 EA             BNE &E921
E937   C9 7F             CMP #&7F
E939   D0 07             BNE &E942
E93B   C0 00             CPY #&00
E93D   F0 E5             BEQ &E924
E93F   88                DEY
E940   B0 DF             BCS &E921
E942   C9 15             CMP #&15
E944   D0 0D             BNE &E953
E946   98                TYA
E947   F0 DB             BEQ &E924
E949   A9 7F             LDA #&7F
E94B   20 EE FF          JSR .L200
E94E   88                DEY
E94F   D0 FA             BNE &E94B
E951   F0 D1             BEQ &E924
E953   91 E8             STA (&E8),Y
E955   C9 0D             CMP #&0D
E957   F0 13             BEQ &E96C
E959   CC B3 02          CPY &02B3
E95C   B0 BF             BCS &E91D
E95E   CD B4 02          CMP &02B4
E961   90 BC             BCC &E91F
E963   CD B5 02          CMP &02B5
E966   F0 B8             BEQ &E920
E968   90 B6             BCC &E920
E96A   B0 B3             BCS &E91F
E96C   20 E7 FF          JSR .L199
E96F   20 7E E5          JSR &E57E
E972   A5 FF             LDA &FF
E974   2A                ROL A              "*"
E975   60                RTS                "`"
E976   58                CLI                "X"
E977   78                SEI                "x"
E978   24 FF             BIT &FF
E97A   30 30             BMI &E9AC          "00"
E97C   2C D2 02          BIT &02D2
E97F   10 F5             BPL &E976
E981   20 A4 E1          JSR &E1A4
E984   A0 00             LDY #&00
E986   84 F1             STY &F1
E988   09 F0             ORA #&F0
E98A   D0 0E             BNE &E99A
E98C   D0 07             BNE &E995
E98E   A2 32             LDX #&32
E990   8E 54 02          STX &0254
E993   A2 08             LDX #&08
E995   69 CF             ADC #&CF
E997   18                CLC
E998   69 E9             ADC #&E9
E99A   86 F0             STX &F0
E99C   A8                TAY
E99D   B9 90 01          LDA &0190,Y
E9A0   AA                TAX
E9A1   25 F1             AND &F1
E9A3   45 F0             EOR &F0
E9A5   99 90 01          STA &0190,Y
E9A8   B9 91 01          LDA &0191,Y
E9AB   A8                TAY
E9AC   60                RTS                "`"
E9AD   64                                   "d"
E9AE   7F
E9AF   5B                                   "["
E9B0   6D C9 F6          ADC &F6C9
E9B3   D2
E9B4   E4 40             CPX &40
E9B6   AD 40 02          LDA &0240
E9B9   58                CLI                "X"
E9BA   78                SEI                "x"
E9BB   CD 40 02          CMP &0240
E9BE   F0 F9             BEQ &E9B9
E9C0   BC 01 03          LDY &0301,X
E9C3   BD 00 03          LDA &0300,X
E9C6   AA                TAX
E9C7   60                RTS                "`"
E9C8   A9 10      .L135  LDA #&10
E9CA   8D 84 02   .      STA &0284
E9CD   A2 00      .      LDX #&00
E9CF   9D 00 0B   .L136  STA &0B00,X
E9D2   E8         .      INX
E9D3   D0 FA      .      BNE .L136
E9D5   8E 84 02   .      STX &0284
E9D8   60         .      RTS
E9D9   08         .L137  PHP
E9DA   78         .      SEI
E9DB   A9 40      .      LDA #&40
E9DD   20 EA E9   .      JSR .L139
E9E0   30 05      .      BMI .L138
E9E2   18         .      CLC
E9E3   B8         .      CLV
E9E4   20 68 F0   .      JSR .L178
E9E7   28         .L138  PLP
E9E8   2A         .      ROL A
E9E9   60         .      RTS
E9EA   90 09      .L139  BCC .L140
E9EC   A0 07      .      LDY #&07
E9EE   8C 40 FE   .      STY &FE40
E9F1   88         .      DEY
E9F2   8C 40 FE   .      STY &FE40
E9F5   24 FF      .L140  BIT &FF
E9F7   60         .      RTS
E9F8   08         .L141  PHP
E9F9   78         .      SEI
E9FA   8D 40 FE   .      STA &FE40
E9FD   28         .      PLP
E9FE   60         .      RTS
E9FF   8A                TXA
EA00   08         .L142  PHP
EA01   78         .      SEI
EA02   8D 48 02   .      STA &0248
EA05   8D 20 FE   .      STA &FE20
EA08   AD 53 02   .      LDA &0253
EA0B   8D 51 02   .      STA &0251
EA0E   28         .      PLP
EA0F   60         .      RTS
EA10   8A                TXA
EA11   49 07      .L143  EOR #&07
EA13   08         .      PHP
EA14   78         .      SEI
EA15   8D 49 02   .      STA &0249
EA18   8D 21 FE   .      STA &FE21
EA1B   28         .      PLP
EA1C   60         .      RTS
EA1D   18                CLC
EA1E   66 E4             ROR &E4
EA20   20 3A E0          JSR &E03A
EA23   C8                INY
EA24   C9 22             CMP #&22
EA26   F0 02             BEQ &EA2A
EA28   88                DEY
EA29   18                CLC
EA2A   66 E4             ROR &E4
EA2C   C9 0D             CMP #&0D
EA2E   60                RTS                "`"
EA2F   A9 00             LDA #&00
EA31   85 E5             STA &E5
EA33   B1 F2             LDA (&F2),Y
EA35   C9 0D             CMP #&0D
EA37   D0 06             BNE &EA3F
EA39   24 E4             BIT &E4
EA3B   30 52             BMI &EA8F          "0R"
EA3D   10 1B             BPL &EA5A
EA3F   C9 20             CMP #&20
EA41   90 4C             BCC &EA8F
EA43   D0 06             BNE &EA4B
EA45   24 E4             BIT &E4
EA47   30 40             BMI &EA89          "0@"
EA49   50 0F             BVC &EA5A
EA4B   C9 22             CMP #&22
EA4D   D0 10             BNE &EA5F
EA4F   24 E4             BIT &E4
EA51   10 36             BPL &EA89
EA53   C8                INY
EA54   B1 F2             LDA (&F2),Y
EA56   C9 22             CMP #&22
EA58   F0 2F             BEQ &EA89
EA5A   20 3A E0          JSR &E03A
EA5D   38                SEC                "8"
EA5E   60                RTS                "`"
EA5F   C9 7C             CMP #&7C
EA61   D0 26             BNE &EA89
EA63   C8                INY
EA64   B1 F2             LDA (&F2),Y
EA66   C9 7C             CMP #&7C
EA68   F0 1F             BEQ &EA89
EA6A   C9 22             CMP #&22
EA6C   F0 1B             BEQ &EA89
EA6E   C9 21             CMP #&21
EA70   D0 05             BNE &EA77
EA72   C8                INY
EA73   A9 80             LDA #&80
EA75   D0 BA             BNE &EA31
EA77   C9 20             CMP #&20
EA79   90 14             BCC &EA8F
EA7B   C9 3F             CMP #&3F
EA7D   F0 08             BEQ &EA87
EA7F   20 BF EA          JSR &EABF
EA82   2C B7 D9          BIT &D9B7
EA85   70 03             BVS &EA8A
EA87   A9 7F             LDA #&7F
EA89   B8                CLV
EA8A   C8                INY
EA8B   05 E5             ORA &E5
EA8D   18                CLC
EA8E   60                RTS                "`"
EA8F   00                BRK
EA90   FD 42 61          SBC &6142,X
EA93   64                                   "d"
EA94   20 73 74          JSR &7473          " st"
EA97   72                                   "r"
EA98   69 6E             ADC #&6E           "in"
EA9A   67                                   "g"
EA9B   00                BRK
EA9C   C9 30             CMP #&30
EA9E   F0 1E             BEQ &EABE
EAA0   C9 40             CMP #&40
EAA2   F0 1A             BEQ &EABE
EAA4   90 12             BCC &EAB8
EAA6   C9 7F             CMP #&7F
EAA8   F0 14             BEQ &EABE
EAAA   B0 10             BCS &EABC
EAAC   49 30             EOR #&30           "I0"
EAAE   C9 6F             CMP #&6F
EAB0   F0 04             BEQ &EAB6
EAB2   C9 50             CMP #&50
EAB4   D0 02             BNE &EAB8
EAB6   49 1F             EOR #&1F
EAB8   C9 21             CMP #&21
EABA   90 02             BCC &EABE
EABC   49 10             EOR #&10
EABE   60                RTS                "`"
EABF   C9 7F             CMP #&7F
EAC1   F0 0E             BEQ &EAD1
EAC3   B0 E7             BCS &EAAC
EAC5   C9 60             CMP #&60
EAC7   D0 02             BNE &EACB
EAC9   A9 5F             LDA #&5F
EACB   C9 40             CMP #&40
EACD   90 02             BCC &EAD1
EACF   29 1F             AND #&1F
EAD1   60                RTS                "`"
EAD2   2F                                   "/"
EAD3   21 42             AND (&42,X)        "!B"
EAD5   4F                                   "O"
EAD6   4F                                   "O"
EAD7   54                                   "T"
EAD8   0D AD 87          ORA &87AD
EADB   02
EADC   49 4C             EOR #&4C           "IL"
EADE   D0 13             BNE &EAF3
EAE0   4C 87 02          JMP &0287
EAE3   AD 90 02          LDA &0290
EAE6   8E 90 02          STX &0290
EAE9   AA                TAX
EAEA   98                TYA
EAEB   29 01             AND #&01
EAED   AC 91 02          LDY &0291
EAF0   8D 91 02          STA &0291
EAF3   60                RTS                "`"
EAF4   98                TYA
EAF5   9D 00 FC          STA &FC00,X
EAF8   60                RTS                "`"
EAF9   98                TYA
EAFA   9D 00 FD          STA &FD00,X
EAFD   60                RTS                "`"
EAFE   98                TYA
EAFF   9D 00 FE          STA &FE00,X
EB02   60                RTS                "`"
EB03   A9 04      .L144  LDA #&04
EB05   9D 08 08   .      STA &0808,X
EB08   A9 C0      .      LDA #&C0
EB0A   9D 04 08   .L145  STA &0804,X
EB0D   AC 62 02   .      LDY &0262
EB10   F0 02      .      BEQ .L146
EB12   A9 C0      .      LDA #&C0
EB14   38         .L146  SEC
EB15   E9 40      .      SBC #&40
EB17   4A         .      LSR A
EB18   4A         .      LSR A
EB19   4A         .      LSR A
EB1A   49 0F      .      EOR #&0F
EB1C   1D 3C EB   .      ORA &EB3C,X
EB1F   09 10      .      ORA #&10
EB21   08         .L147  PHP
EB22   78         .L148  SEI
EB23   A0 FF      .      LDY #&FF
EB25   8C 43 FE   .      STY &FE43
EB28   8D 4F FE   .      STA &FE4F
EB2B   C8         .      INY
EB2C   8C 40 FE   .      STY &FE40
EB2F   A0 02      .      LDY #&02
EB31   88         .L149  DEY
EB32   D0 FD      .      BNE .L149
EB34   A0 08      .      LDY #&08
EB36   8C 40 FE   .      STY &FE40
EB39   A0 04      .      LDY #&04
EB3B   88         .L150  DEY
EB3C   D0 FD      .      BNE .L150
EB3E   28         .      PLP
EB3F   60         .      RTS
EB40   E0 C0             CPX #&C0
EB42   A0 80             LDY #&80
EB44   4C 59 EC          JMP &EC59
EB47   A9 00             LDA #&00
EB49   8D 3B 08          STA &083B
EB4C   AD 38 08          LDA &0838
EB4F   D0 06             BNE &EB57
EB51   EE 3B 08          INC &083B
EB54   CE 38 08          DEC &0838
EB57   A2 08             LDX #&08
EB59   CA                DEX
EB5A   BD 00 08          LDA &0800,X
EB5D   F0 E5             BEQ &EB44
EB5F   BD CF 02          LDA &02CF,X
EB62   30 05             BMI &EB69
EB64   BD 18 08          LDA &0818,X
EB67   D0 03             BNE &EB6C
EB69   20 6B EC          JSR &EC6B
EB6C   BD 18 08          LDA &0818,X
EB6F   F0 13             BEQ &EB84
EB71   C9 FF             CMP #&FF
EB73   F0 12             BEQ &EB87
EB75   DE 1C 08          DEC &081C,X
EB78   D0 0D             BNE &EB87
EB7A   A9 05             LDA #&05
EB7C   9D 1C 08          STA &081C,X
EB7F   DE 18 08          DEC &0818,X
EB82   D0 03             BNE &EB87
EB84   20 6B EC          JSR &EC6B
EB87   BD 24 08          LDA &0824,X
EB8A   F0 05             BEQ &EB91
EB8C   DE 24 08          DEC &0824,X
EB8F   D0 B3             BNE &EB44
EB91   BC 20 08          LDY &0820,X
EB94   C0 FF             CPY #&FF
EB96   F0 AC             BEQ &EB44
EB98   B9 C0 08          LDA &08C0,Y
EB9B   29 7F             AND #&7F
EB9D   9D 24 08          STA &0824,X
EBA0   BD 08 08          LDA &0808,X
EBA3   C9 04             CMP #&04
EBA5   F0 60             BEQ &EC07
EBA7   BD 08 08          LDA &0808,X
EBAA   18                CLC
EBAB   7D 20 08          ADC &0820,X
EBAE   A8                TAY
EBAF   B9 CB 08          LDA &08CB,Y
EBB2   38                SEC                "8"
EBB3   E9 3F             SBC #&3F
EBB5   8D 3A 08          STA &083A
EBB8   B9 C7 08          LDA &08C7,Y
EBBB   8D 39 08          STA &0839
EBBE   BD 04 08          LDA &0804,X
EBC1   48                PHA                "H"
EBC2   18                CLC
EBC3   6D 39 08          ADC &0839
EBC6   50 07             BVC &EBCF
EBC8   2A                ROL A              "*"
EBC9   A9 3F             LDA #&3F
EBCB   B0 02             BCS &EBCF
EBCD   49 FF             EOR #&FF
EBCF   9D 04 08          STA &0804,X
EBD2   2A                ROL A              "*"
EBD3   5D 04 08          EOR &0804,X
EBD6   10 09             BPL &EBE1
EBD8   A9 3F             LDA #&3F
EBDA   90 02             BCC &EBDE
EBDC   49 FF             EOR #&FF
EBDE   9D 04 08          STA &0804,X
EBE1   CE 39 08          DEC &0839
EBE4   BD 04 08          LDA &0804,X
EBE7   38                SEC                "8"
EBE8   ED 3A 08          SBC &083A
EBEB   4D 39 08          EOR &0839
EBEE   30 09             BMI &EBF9
EBF0   AD 3A 08          LDA &083A
EBF3   9D 04 08          STA &0804,X
EBF6   FE 08 08          INC &0808,X
EBF9   68                PLA                "h"
EBFA   5D 04 08          EOR &0804,X
EBFD   29 F8             AND #&F8
EBFF   F0 06             BEQ &EC07
EC01   BD 04 08          LDA &0804,X
EC04   20 0A EB          JSR .L145
EC07   BD 10 08          LDA &0810,X
EC0A   C9 03             CMP #&03
EC0C   F0 4B             BEQ &EC59
EC0E   BD 14 08          LDA &0814,X
EC11   D0 2A             BNE &EC3D
EC13   FE 10 08          INC &0810,X
EC16   BD 10 08          LDA &0810,X
EC19   C9 03             CMP #&03
EC1B   D0 10             BNE &EC2D
EC1D   BC 20 08          LDY &0820,X
EC20   B9 C0 08          LDA &08C0,Y
EC23   30 34             BMI &EC59          "04"
EC25   A9 00             LDA #&00
EC27   9D 30 08          STA &0830,X
EC2A   9D 10 08          STA &0810,X
EC2D   BD 10 08          LDA &0810,X
EC30   18                CLC
EC31   7D 20 08          ADC &0820,X
EC34   A8                TAY
EC35   B9 C4 08          LDA &08C4,Y
EC38   9D 14 08          STA &0814,X
EC3B   F0 1C             BEQ &EC59
EC3D   DE 14 08          DEC &0814,X
EC40   BD 20 08          LDA &0820,X
EC43   18                CLC
EC44   7D 10 08          ADC &0810,X
EC47   A8                TAY
EC48   B9 C1 08          LDA &08C1,Y
EC4B   18                CLC
EC4C   7D 30 08          ADC &0830,X
EC4F   9D 30 08          STA &0830,X
EC52   18                CLC
EC53   7D 0C 08          ADC &080C,X
EC56   20 01 ED          JSR &ED01
EC59   E0 04             CPX #&04
EC5B   F0 0D             BEQ .L153
EC5D   4C 59 EB          JMP &EB59
EC60   A2 08      .L151  LDX #&08
EC62   CA         .L152  DEX
EC63   20 A2 EC   .      JSR .L154
EC66   E0 04      .      CPX #&04
EC68   D0 F8      .      BNE .L152
EC6A   60         .L153  RTS
EC6B   BD 08 08          LDA &0808,X
EC6E   C9 04             CMP #&04
EC70   F0 05             BEQ &EC77
EC72   A9 03             LDA #&03
EC74   9D 08 08          STA &0808,X
EC77   BD CF 02          LDA &02CF,X
EC7A   F0 14             BEQ &EC90
EC7C   A9 00             LDA #&00
EC7E   9D CF 02          STA &02CF,X
EC81   A0 04             LDY #&04
EC83   99 2B 08          STA &082B,Y
EC86   88                DEY
EC87   D0 FA             BNE &EC83
EC89   9D 18 08          STA &0818,X
EC8C   88                DEY
EC8D   8C 38 08          STY &0838
EC90   BD 28 08          LDA &0828,X
EC93   F0 46             BEQ &ECDB
EC95   AD 3B 08          LDA &083B
EC98   F0 36             BEQ .L158
EC9A   A9 00             LDA #&00
EC9C   9D 28 08          STA &0828,X
EC9F   4C 98 ED          JMP &ED98
ECA2   20 03 EB   .L154  JSR .L144
ECA5   98         .      TYA
ECA6   9D 18 08   .      STA &0818,X
ECA9   9D CF 02   .      STA &02CF,X
ECAC   9D 00 08   .      STA &0800,X
ECAF   A0 03      .      LDY #&03
ECB1   99 2C 08   .L155  STA &082C,Y
ECB4   88         .      DEY
ECB5   10 FA      .      BPL .L155
ECB7   8C 38 08   .      STY &0838
ECBA   30 4A      .      BMI .L160
ECBC   08         .L156  PHP
ECBD   78         .      SEI
ECBE   BD 08 08   .      LDA &0808,X
ECC1   C9 04      .      CMP #&04
ECC3   D0 0A      .      BNE .L157
ECC5   20 5B E4   .      JSR .L117
ECC8   90 05      .      BCC .L157
ECCA   A9 00      .      LDA #&00
ECCC   9D 00 08   .      STA &0800,X
ECCF   28         .L157  PLP
ECD0   BC 20 08   .L158  LDY &0820,X
ECD3   C0 FF      .      CPY #&FF
ECD5   D0 03      .      BNE .L159
ECD7   20 03 EB   .      JSR .L144
ECDA   60         .L159  RTS
ECDB   20 5B E4          JSR .L117
ECDE   B0 DC             BCS .L156
ECE0   29 03             AND #&03
ECE2   F0 BB             BEQ &EC9F
ECE4   AD 38 08          LDA &0838
ECE7   F0 15             BEQ &ECFE
ECE9   FE 28 08          INC &0828,X
ECEC   2C 38 08          BIT &0838
ECEF   10 0A             BPL &ECFB
ECF1   20 5B E4          JSR .L117
ECF4   29 03             AND #&03
ECF6   8D 38 08          STA &0838
ECF9   10 03             BPL &ECFE
ECFB   CE 38 08          DEC &0838
ECFE   4C D0 EC          JMP .L158
ED01   DD 2C 08          CMP &082C,X
ED04   F0 D4             BEQ .L159
ED06   9D 2C 08   .L160  STA &082C,X
ED09   E0 04      .      CPX #&04
ED0B   D0 09      .      BNE .L161
ED0D   29 0F      .      AND #&0F
ED0F   1D 3C EB   .      ORA &EB3C,X
ED12   08         .      PHP
ED13   4C 95 ED   .      JMP .L170
ED16   48         .L161  PHA
ED17   29 03      .      AND #&03
ED19   8D 3C 08   .      STA &083C
ED1C   A9 00      .      LDA #&00
ED1E   8D 3D 08   .      STA &083D
ED21   68         .      PLA
ED22   4A         .      LSR A
ED23   4A         .      LSR A
ED24   C9 0C      .L162  CMP #&0C
ED26   90 07      .      BCC .L163
ED28   EE 3D 08   .      INC &083D
ED2B   E9 0C      .      SBC #&0C
ED2D   D0 F5      .      BNE .L162
ED2F   A8         .L163  TAY
ED30   AD 3D 08   .      LDA &083D
ED33   48         .      PHA
ED34   B9 FB ED   .      LDA &EDFB,Y
ED37   8D 3D 08   .      STA &083D
ED3A   B9 07 EE   .      LDA &EE07,Y
ED3D   48         .      PHA
ED3E   29 03      .      AND #&03
ED40   8D 3E 08   .      STA &083E
ED43   68         .      PLA
ED44   4A         .      LSR A
ED45   4A         .      LSR A
ED46   4A         .      LSR A
ED47   4A         .      LSR A
ED48   8D 3F 08   .      STA &083F
ED4B   AD 3D 08   .      LDA &083D
ED4E   AC 3C 08   .      LDY &083C
ED51   F0 0C      .      BEQ .L166
ED53   38         .L164  SEC
ED54   ED 3F 08   .      SBC &083F
ED57   B0 03      .      BCS .L165
ED59   CE 3E 08   .      DEC &083E
ED5C   88         .L165  DEY
ED5D   D0 F4      .      BNE .L164
ED5F   8D 3D 08   .L166  STA &083D
ED62   68         .      PLA
ED63   A8         .      TAY
ED64   F0 09      .      BEQ .L168
ED66   4E 3E 08   .L167  LSR &083E
ED69   6E 3D 08   .      ROR &083D
ED6C   88         .      DEY
ED6D   D0 F7      .      BNE .L167
ED6F   AD 3D 08   .L168  LDA &083D
ED72   18         .      CLC
ED73   7D 3D C4   .      ADC &C43D,X
ED76   8D 3D 08   .      STA &083D
ED79   90 03      .      BCC .L169
ED7B   EE 3E 08   .      INC &083E
ED7E   29 0F      .L169  AND #&0F
ED80   1D 3C EB   .      ORA &EB3C,X
ED83   08         .      PHP
ED84   78         .      SEI
ED85   20 21 EB   .      JSR .L147
ED88   AD 3D 08   .      LDA &083D
ED8B   4E 3E 08   .      LSR &083E
ED8E   6A         .      ROR A
ED8F   4E 3E 08   .      LSR &083E
ED92   6A         .      ROR A
ED93   4A         .      LSR A
ED94   4A         .      LSR A
ED95   4C 22 EB   .L170  JMP .L148
ED98   08                PHP
ED99   78                SEI                "x"
ED9A   20 60 E4          JSR .L118
ED9D   48                PHA                "H"
ED9E   29 04             AND #&04
EDA0   F0 15             BEQ &EDB7
EDA2   68                PLA                "h"
EDA3   BC 20 08          LDY &0820,X
EDA6   C0 FF             CPY #&FF
EDA8   D0 03             BNE &EDAD
EDAA   20 03 EB          JSR .L144
EDAD   20 60 E4          JSR .L118
EDB0   20 60 E4          JSR .L118
EDB3   28                PLP                "("
EDB4   4C F7 ED          JMP &EDF7
EDB7   68                PLA                "h"
EDB8   29 F8             AND #&F8
EDBA   0A                ASL A
EDBB   90 0B             BCC &EDC8
EDBD   49 FF             EOR #&FF
EDBF   4A                LSR A              "J"
EDC0   38                SEC                "8"
EDC1   E9 40             SBC #&40
EDC3   20 0A EB          JSR .L145
EDC6   A9 FF             LDA #&FF
EDC8   9D 20 08          STA &0820,X
EDCB   A9 05             LDA #&05
EDCD   9D 1C 08          STA &081C,X
EDD0   A9 01             LDA #&01
EDD2   9D 24 08          STA &0824,X
EDD5   A9 00             LDA #&00
EDD7   9D 14 08          STA &0814,X
EDDA   9D 08 08          STA &0808,X
EDDD   9D 30 08          STA &0830,X
EDE0   A9 FF             LDA #&FF
EDE2   9D 10 08          STA &0810,X
EDE5   20 60 E4          JSR .L118
EDE8   9D 0C 08          STA &080C,X
EDEB   20 60 E4          JSR .L118
EDEE   28                PLP                "("
EDEF   48                PHA                "H"
EDF0   BD 0C 08          LDA &080C,X
EDF3   20 01 ED          JSR &ED01
EDF6   68                PLA                "h"
EDF7   9D 18 08          STA &0818,X
EDFA   60                RTS                "`"
EDFB   F0 B7             BEQ &EDB4
EDFD   82
EDFE   4F                                   "O"
EDFF   20 F3 C8          JSR &C8F3
EE02   A0 7B             LDY #&7B
EE04   57                                   "W"
EE05   35 16             AND &16,X
EE07   E7
EE08   D7
EE09   CB
EE0A   C3
EE0B   B7
EE0C   AA                TAX
EE0D   A2 9A             LDX #&9A
EE0F   92
EE10   8A                TXA
EE11   82
EE12   7A                                   "z"
EE13   A9 EF             LDA #&EF
EE15   85 F5             STA &F5
EE17   60                RTS                "`"
EE18   A2 0D             LDX #&0D
EE1A   E6 F5             INC &F5
EE1C   A4 F5             LDY &F5
EE1E   10 39             BPL &EE59
EE20   A2 00             LDX #&00
EE22   86 F7             STX &F7
EE24   E8                INX
EE25   86 F6             STX &F6
EE27   20 BB EE          JSR &EEBB
EE2A   A2 03             LDX #&03
EE2C   20 62 EE          JSR &EE62
EE2F   DD 0C DF          CMP &DF0C,X
EE32   D0 E4             BNE &EE18
EE34   CA                DEX
EE35   10 F5             BPL &EE2C
EE37   A9 3E             LDA #&3E
EE39   85 F6             STA &F6
EE3B   20 BB EE          JSR &EEBB
EE3E   A2 FF             LDX #&FF
EE40   20 62 EE          JSR &EE62
EE43   A0 08             LDY #&08
EE45   0A                ASL A
EE46   76 F7             ROR &F7,X
EE48   88                DEY
EE49   D0 FA             BNE &EE45
EE4B   E8                INX
EE4C   F0 F2             BEQ &EE40
EE4E   18                CLC
EE4F   90 6A             BCC &EEBB
EE51   A2 0E             LDX #&0E
EE53   A4 F5             LDY &F5
EE55   30 0B             BMI &EE62
EE57   A0 FF             LDY #&FF
EE59   08                PHP
EE5A   20 68 F1          JSR .L186
EE5D   28                PLP                "("
EE5E   C9 01             CMP #&01
EE60   98                TYA
EE61   60                RTS                "`"
EE62   08                PHP
EE63   78                SEI                "x"
EE64   A0 10             LDY #&10
EE66   20 7F EE          JSR .L171
EE69   A0 00             LDY #&00
EE6B   F0 17             BEQ .L173
EE6D   A0 00             LDY #&00
EE6F   F0 11             BEQ .L172
EE71   48                PHA                "H"
EE72   20 7A EE          JSR &EE7A
EE75   68                PLA                "h"
EE76   6A                ROR A              "j"
EE77   6A                ROR A              "j"
EE78   6A                ROR A              "j"
EE79   6A                ROR A              "j"
EE7A   29 0F             AND #&0F
EE7C   09 40             ORA #&40
EE7E   A8                TAY
EE7F   98         .L171  TYA
EE80   A0 01      .      LDY #&01
EE82   08         .L172  PHP
EE83   78         .      SEI
EE84   2C 7B 02   .L173  BIT &027B
EE87   10 21      .      BPL .L175
EE89   48         .      PHA
EE8A   B9 75 F0   .      LDA &F075,Y
EE8D   8D 43 FE   .      STA &FE43
EE90   68         .      PLA
EE91   8D 4F FE   .      STA &FE4F
EE94   B9 77 F0   .      LDA &F077,Y
EE97   8D 40 FE   .      STA &FE40
EE9A   2C 40 FE   .L174  BIT &FE40
EE9D   30 FB      .      BMI .L174
EE9F   AD 4F FE   .      LDA &FE4F
EEA2   48         .      PHA
EEA3   B9 79 F0   .      LDA &F079,Y
EEA6   8D 40 FE   .      STA &FE40
EEA9   68         .      PLA
EEAA   28         .L175  PLP
EEAB   A8         .      TAY
EEAC   60         .      RTS
EEAD   AD CB 03          LDA &03CB
EEB0   85 F6             STA &F6
EEB2   AD CC 03          LDA &03CC
EEB5   85 F7             STA &F7
EEB7   A5 F5             LDA &F5
EEB9   10 1E             BPL &EED9
EEBB   08                PHP
EEBC   78                SEI                "x"
EEBD   A5 F6             LDA &F6
EEBF   20 71 EE          JSR &EE71
EEC2   A5 F5             LDA &F5
EEC4   85 FA             STA &FA
EEC6   A5 F7             LDA &F7
EEC8   2A                ROL A              "*"
EEC9   2A                ROL A              "*"
EECA   46 FA             LSR &FA
EECC   6A                ROR A              "j"
EECD   46 FA             LSR &FA
EECF   6A                ROR A              "j"
EED0   20 71 EE          JSR &EE71
EED3   A5 FA             LDA &FA
EED5   20 7A EE          JSR &EE7A
EED8   28                PLP                "("
EED9   60                RTS                "`"
EEDA   A2 FF             LDX #&FF
EEDC   A5 EC             LDA &EC
EEDE   05 ED             ORA &ED
EEE0   D0 06             BNE &EEE8
EEE2   A9 81             LDA #&81
EEE4   8D 4E FE          STA &FE4E
EEE7   E8                INX
EEE8   8E 42 02          STX &0242
EEEB   08         .L176  PHP
EEEC   AD 5A 02   .      LDA &025A
EEEF   4A         .      LSR A
EEF0   29 18      .      AND #&18
EEF2   09 06      .      ORA #&06
EEF4   8D 40 FE   .      STA &FE40
EEF7   4A         .      LSR A
EEF8   09 07      .      ORA #&07
EEFA   8D 40 FE   .      STA &FE40
EEFD   20 2E F1   .      JSR .L179
EF00   68         .      PLA
EF01   60         .      RTS
EF02   50 0A             BVC &EF0E
EF04   A9 01             LDA #&01
EF06   8D 4E FE          STA &FE4E
EF09   B0 08             BCS &EF13
EF0B   4C 0F F0          JMP &F00F
EF0E   90 06             BCC &EF16
EF10   4C D1 F0          JMP &F0D1
EF13   EE 42 02          INC &0242
EF16   AD 5A 02          LDA &025A
EF19   29 B7             AND #&B7
EF1B   A2 00             LDX #&00
EF1D   20 2A F0          JSR .L177
EF20   86 FA             STX &FA
EF22   B8                CLV
EF23   10 05             BPL &EF2A
EF25   2C B7 D9          BIT &D9B7
EF28   09 08             ORA #&08
EF2A   E8                INX
EF2B   20 2A F0          JSR .L177
EF2E   90 BB             BCC .L176
EF30   10 02             BPL &EF34
EF32   09 40             ORA #&40
EF34   8D 5A 02          STA &025A
EF37   A6 EC             LDX &EC
EF39   F0 12             BEQ &EF4D
EF3B   20 2A F0          JSR .L177
EF3E   30 10             BMI &EF50
EF40   E4 EC             CPX &EC
EF42   86 EC             STX &EC
EF44   D0 07             BNE &EF4D
EF46   A2 00             LDX #&00
EF48   86 EC             STX &EC
EF4A   20 1F F0          JSR &F01F
EF4D   4C E9 EF          JMP &EFE9
EF50   E4 EC             CPX &EC
EF52   D0 EE             BNE &EF42
EF54   A5 E7             LDA &E7
EF56   F0 23             BEQ &EF7B
EF58   C6 E7             DEC &E7
EF5A   D0 1F             BNE &EF7B
EF5C   AD CA 02          LDA &02CA
EF5F   85 E7             STA &E7
EF61   AD 55 02          LDA &0255
EF64   8D CA 02          STA &02CA
EF67   AD 5A 02          LDA &025A
EF6A   A6 EC             LDX &EC
EF6C   E0 D0             CPX #&D0
EF6E   D0 0E             BNE &EF7E
EF70   09 90             ORA #&90
EF72   49 A0             EOR #&A0
EF74   8D 5A 02          STA &025A
EF77   A9 00             LDA #&00
EF79   85 E7             STA &E7
EF7B   4C E9 EF          JMP &EFE9
EF7E   E0 C0             CPX #&C0
EF80   D0 0F             BNE &EF91
EF82   09 A0             ORA #&A0
EF84   24 FA             BIT &FA
EF86   10 04             BPL &EF8C
EF88   09 10             ORA #&10
EF8A   49 80             EOR #&80
EF8C   49 90             EOR #&90
EF8E   4C 74 EF          JMP &EF74
EF91   BD AB EF          LDA &EFAB,X
EF94   D0 03             BNE &EF99
EF96   AD 6B 02          LDA &026B
EF99   AE 5A 02          LDX &025A
EF9C   86 FA             STX &FA
EF9E   26 FA             ROL &FA
EFA0   10 07             BPL &EFA9
EFA2   A6 ED             LDX &ED
EFA4   D0 A4             BNE &EF4A
EFA6   20 BF EA          JSR &EABF
EFA9   26 FA             ROL &FA
EFAB   30 08             BMI &EFB5
EFAD   20 9C EA          JSR &EA9C
EFB0   26 FA             ROL &FA
EFB2   4C C1 EF          JMP &EFC1
EFB5   26 FA             ROL &FA
EFB7   30 0D             BMI &EFC6
EFB9   20 E3 E4          JSR &E4E3
EFBC   B0 08             BCS &EFC6
EFBE   20 9C EA          JSR &EA9C
EFC1   AE 5A 02          LDX &025A
EFC4   10 0B             BPL &EFD1
EFC6   26 FA             ROL &FA
EFC8   10 07             BPL &EFD1
EFCA   A6 ED             LDX &ED
EFCC   D0 D6             BNE &EFA4
EFCE   20 9C EA          JSR &EA9C
EFD1   CD 6C 02          CMP &026C
EFD4   D0 07             BNE &EFDD
EFD6   AE 75 02          LDX &0275
EFD9   D0 02             BNE &EFDD
EFDB   86 E7             STX &E7
EFDD   A8                TAY
EFDE   20 29 F1          JSR &F129
EFE1   AD 59 02          LDA &0259
EFE4   D0 03             BNE &EFE9
EFE6   20 F1 E4          JSR .L127
EFE9   A6 ED             LDX &ED
EFEB   F0 0B             BEQ &EFF8
EFED   20 2A F0          JSR .L177
EFF0   86 ED             STX &ED
EFF2   30 04             BMI &EFF8
EFF4   A2 00             LDX #&00
EFF6   86 ED             STX &ED
EFF8   A6 ED             LDX &ED
EFFA   D0 16             BNE &F012
EFFC   A0 EC             LDY #&EC
EFFE   20 CC F0          JSR &F0CC
F001   30 09             BMI &F00C
F003   A5 EC             LDA &EC
F005   85 ED             STA &ED
F007   86 EC             STX &EC
F009   20 1F F0          JSR &F01F
F00C   4C DA EE          JMP &EEDA
F00F   20 2A F0          JSR .L177
F012   A5 EC             LDA &EC
F014   D0 F6             BNE &F00C
F016   A0 ED             LDY #&ED
F018   20 CC F0          JSR &F0CC
F01B   30 EF             BMI &F00C
F01D   10 E8             BPL &F007
F01F   A2 01             LDX #&01
F021   86 E7             STX &E7
F023   AE 54 02          LDX &0254
F026   8E CA 02          STX &02CA
F029   60                RTS                "`"
F02A   A0 03      .L177  LDY #&03
F02C   8C 40 FE   .      STY &FE40
F02F   A0 7F      .      LDY #&7F
F031   8C 43 FE   .      STY &FE43
F034   8E 4F FE   .      STX &FE4F
F037   AE 4F FE   .      LDX &FE4F
F03A   60         .      RTS
F03B   71 33             ADC (&33),Y        "q3"
F03D   34                                   "4"
F03E   35 84             AND &84,X
F040   38                SEC                "8"
F041   87
F042   2D 5E 8C          AND &8C5E
F045   84 EC             STY &EC
F047   86 ED             STX &ED
F049   60                RTS                "`"
F04A   00                BRK
F04B   80
F04C   77                                   "w"
F04D   65 74             ADC &74            "et"
F04F   37                                   "7"
F050   69 39             ADC #&39           "i9"
F052   30 5F             BMI &F0B3          "0_"
F054   8E 6C FE          STX &FE6C
F057   FD 6C FA          SBC &FA6C,X
F05A   00                BRK
F05B   31 32             AND (&32),Y        "12"
F05D   64                                   "d"
F05E   72                                   "r"
F05F   36 75             ROL &75,X          "6u"
F061   6F                                   "o"
F062   70 5B             BVS &F0BF          "p["
F064   8F
F065   2C B7 D9          BIT &D9B7
F068   6C 28 02   .L178  JMP (&0228)
F06B   01 61             ORA (&61,X)
F06D   78                SEI                "x"
F06E   66 79             ROR &79            "fy"
F070   6A                ROR A              "j"
F071   6B                                   "k"
F072   40                RTI                "@"
F073   3A                                   ":"
F074   0D 00 FF          ORA &FF00
F077   01 02             ORA (&02,X)
F079   09 0A             ORA #&0A
F07B   02
F07C   73                                   "s"
F07D   63                                   "c"
F07E   67                                   "g"
F07F   68                PLA                "h"
F080   6E 6C 3B          ROR &3B6C          "nl;"
F083   5D 7F AC          EOR &AC7F,X
F086   44                                   "D"
F087   02
F088   A2 00             LDX #&00
F08A   60                RTS                "`"
F08B   00                BRK
F08C   7A                                   "z"
F08D   20 76 62          JSR &6276          " vb"
F090   6D 2C 2E          ADC &2E2C          "m,."
F093   2F                                   "/"
F094   8B
F095   AE 41 02          LDX &0241
F098   4C AD E1          JMP &E1AD
F09B   1B
F09C   81 82             STA (&82,X)
F09E   83
F09F   85 86             STA &86
F0A1   88                DEY
F0A2   89
F0A3   5C                                   "\\"
F0A4   8D 6C 20          STA &206C
F0A7   02
F0A8   D0 EB             BNE &F095
F0AA   A2 08             LDX #&08
F0AC   58                CLI                "X"
F0AD   78                SEI                "x"
F0AE   20 B4 F0          JSR &F0B4
F0B1   CA                DEX
F0B2   10 F8             BPL &F0AC
F0B4   E0 09             CPX #&09
F0B6   90 E0             BCC &F098
F0B8   60                RTS                "`"
F0B9   A2 09             LDX #&09
F0BB   20 68 F1          JSR .L186
F0BE   20 4A FA          JSR &FA4A
F0C1   0D 4F 53          ORA &534F
F0C4   20 31 2E          JSR &2E31          " 1."
F0C7   32                                   "2"
F0C8   30 0D             BMI &F0D7
F0CA   00                BRK
F0CB   60                RTS                "`"
F0CC   18                CLC
F0CD   A2 10             LDX #&10
F0CF   B0 97             BCS .L178
F0D1   8A                TXA
F0D2   10 05             BPL &F0D9
F0D4   20 2A F0          JSR .L177
F0D7   B0 55             BCS .L179
F0D9   08                PHP
F0DA   90 02             BCC &F0DE
F0DC   A0 EE             LDY #&EE
F0DE   99 DF 01          STA &01DF,Y
F0E1   A2 09             LDX #&09
F0E3   20 29 F1          JSR &F129
F0E6   A9 7F             LDA #&7F
F0E8   8D 43 FE          STA &FE43
F0EB   A9 03             LDA #&03
F0ED   8D 40 FE          STA &FE40
F0F0   A9 0F             LDA #&0F
F0F2   8D 4F FE          STA &FE4F
F0F5   A9 01             LDA #&01
F0F7   8D 4D FE          STA &FE4D
F0FA   8E 4F FE          STX &FE4F
F0FD   2C 4D FE          BIT &FE4D
F100   F0 21             BEQ &F123
F102   8A                TXA
F103   D9 DF 01          CMP &01DF,Y
F106   90 16             BCC &F11E
F108   8D 4F FE          STA &FE4F
F10B   2C 4F FE          BIT &FE4F
F10E   10 0E             BPL &F11E
F110   28                PLP                "("
F111   08                PHP
F112   B0 13             BCS &F127
F114   48                PHA                "H"
F115   59 00 00          EOR &0000,Y
F118   0A                ASL A
F119   C9 01             CMP #&01
F11B   68                PLA                "h"
F11C   B0 09             BCS &F127
F11E   18                CLC
F11F   69 10             ADC #&10
F121   10 E0             BPL &F103
F123   CA                DEX
F124   10 BD             BPL &F0E3
F126   8A                TXA
F127   AA                TAX
F128   28                PLP                "("
F129   20 2E F1          JSR .L179
F12C   58                CLI                "X"
F12D   78                SEI                "x"
F12E   A9 0B      .L179  LDA #&0B
F130   8D 40 FE   .      STA &FE40
F133   8A         .      TXA
F134   60         .      RTS
F135   49 8C      .L180  EOR #&8C
F137   0A         .L181  ASL A
F138   8D 47 02   .      STA &0247
F13B   E0 03      .      CPX #&03
F13D   4C 4B F1   .      JMP .L183
F140   08         .L182  PHP
F141   A9 A1      .      LDA #&A1
F143   85 E3      .      STA &E3
F145   A9 19      .      LDA #&19
F147   8D D1 03   .      STA &03D1
F14A   28         .      PLP
F14B   08         .L183  PHP
F14C   A9 06      .      LDA #&06
F14E   20 31 E0   .      JSR .L114
F151   A2 06      .      LDX #&06
F153   28         .      PLP
F154   F0 01      .      BEQ .L184
F156   CA         .      DEX
F157   86 C6      .L184  STX &C6
F159   A2 0E      .      LDX #&0E
F15B   BD 51 D9   .L185  LDA &D951,X
F15E   9D 11 02   .      STA &0211,X
F161   CA         .      DEX
F162   D0 F7      .      BNE .L185
F164   86 C2      .      STX &C2
F166   A2 0F      .      LDX #&0F
F168   A5 F4      .L186  LDA &F4
F16A   48         .      PHA
F16B   8A         .      TXA
F16C   A2 0F      .      LDX #&0F
F16E   FE A1 02   .L187  INC &02A1,X
F171   DE A1 02   .      DEC &02A1,X
F174   10 0D      .      BPL .L188
F176   86 F4      .      STX &F4
F178   8E 30 FE   .      STX &FE30
F17B   20 03 80   .      JSR &8003
F17E   AA         .      TAX
F17F   F0 05      .      BEQ .L189
F181   A6 F4      .      LDX &F4
F183   CA         .L188  DEX
F184   10 E8      .      BPL .L187
F186   68         .L189  PLA
F187   85 F4      .      STA &F4
F189   8D 30 FE   .      STA &FE30
F18C   8A         .      TXA
F18D   60         .      RTS
F18E   09 00             ORA #&00
F190   D0 10             BNE &F1A2
F192   C0 00             CPY #&00
F194   D0 0C             BNE &F1A2
F196   A5 C6             LDA &C6
F198   29 FB             AND #&FB
F19A   0D 47 02          ORA &0247
F19D   0A                ASL A
F19E   0D 47 02          ORA &0247
F1A1   4A                LSR A              "J"
F1A2   60                RTS                "`"
F1A3   4C F5 1D          JMP &1DF5
F1A6   F6 04             INC &04,X
F1A8   F3
F1A9   0F
F1AA   E3
F1AB   04
F1AC   F3
F1AD   2A                ROL A              "*"
F1AE   F3
F1AF   74                                   "t"
F1B0   E2
F1B1   C9 07             CMP #&07
F1B3   B0 ED             BCS &F1A2
F1B5   86 BC             STX &BC
F1B7   0A                ASL A
F1B8   AA                TAX
F1B9   BD A4 F1          LDA &F1A4,X
F1BC   48                PHA                "H"
F1BD   BD A3 F1          LDA &F1A3,X
F1C0   48                PHA                "H"
F1C1   A6 BC             LDX &BC
F1C3   60                RTS                "`"
F1C4   08                PHP
F1C5   48                PHA                "H"
F1C6   20 27 FB          JSR &FB27
F1C9   AD C2 03          LDA &03C2
F1CC   48                PHA                "H"
F1CD   20 31 F6          JSR &F631
F1D0   68                PLA                "h"
F1D1   F0 1A             BEQ &F1ED
F1D3   A2 03             LDX #&03
F1D5   A9 FF             LDA #&FF
F1D7   48                PHA                "H"
F1D8   BD BE 03          LDA &03BE,X
F1DB   95 B0             STA &B0,X
F1DD   68                PLA                "h"
F1DE   35 B0             AND &B0,X
F1E0   CA                DEX
F1E1   10 F4             BPL &F1D7
F1E3   C9 FF             CMP #&FF
F1E5   D0 06             BNE &F1ED
F1E7   20 E8 FA          JSR &FAE8
F1EA   4C 67 E2          JMP &E267
F1ED   AD CA 03          LDA &03CA
F1F0   4A                LSR A              "J"
F1F1   68                PLA                "h"
F1F2   F0 0E             BEQ &F202
F1F4   90 13             BCC &F209
F1F6   20 F2 FA          JSR &FAF2
F1F9   00                BRK
F1FA   D5 4C             CMP &4C,X
F1FC   6F                                   "o"
F1FD   63                                   "c"
F1FE   6B                                   "k"
F1FF   65 64             ADC &64            "ed"
F201   00                BRK
F202   90 05             BCC &F209
F204   A9 03             LDA #&03
F206   8D 58 02          STA &0258
F209   A9 30             LDA #&30
F20B   25 BB             AND &BB
F20D   F0 04             BEQ &F213
F20F   A5 C1             LDA &C1
F211   D0 0A             BNE &F21D
F213   98                TYA
F214   48                PHA                "H"
F215   20 BB FB          JSR &FBBB
F218   68                PLA                "h"
F219   A8                TAY
F21A   20 D5 F7          JSR &F7D5
F21D   20 B4 F9          JSR &F9B4
F220   D0 33             BNE &F255
F222   20 69 FB          JSR &FB69
F225   2C CA 03          BIT &03CA
F228   30 08             BMI &F232
F22A   20 6A F9          JSR &F96A
F22D   20 7B F7          JSR &F77B
F230   D0 D7             BNE &F209
F232   A0 0A             LDY #&0A
F234   A5 CC             LDA &CC
F236   91 C8             STA (&C8),Y
F238   C8                INY
F239   A5 CD             LDA &CD
F23B   91 C8             STA (&C8),Y
F23D   A9 00             LDA #&00
F23F   C8                INY
F240   91 C8             STA (&C8),Y
F242   C8                INY
F243   91 C8             STA (&C8),Y
F245   28                PLP                "("
F246   20 E8 FA          JSR &FAE8
F249   24 BA             BIT &BA
F24B   30 07             BMI &F254
F24D   08                PHP
F24E   20 46 FA          JSR &FA46
F251   0D 00 28          ORA &2800
F254   60                RTS                "`"
F255   20 37 F6          JSR &F637
F258   D0 AF             BNE &F209
F25A   86 F2             STX &F2
F25C   84 F3             STY &F3
F25E   A0 00             LDY #&00
F260   20 1D EA          JSR &EA1D
F263   A2 00             LDX #&00
F265   20 2F EA          JSR &EA2F
F268   B0 0D             BCS &F277
F26A   F0 08             BEQ &F274
F26C   9D D2 03          STA &03D2,X
F26F   E8                INX
F270   E0 0B             CPX #&0B
F272   D0 F1             BNE &F265
F274   4C 8F EA          JMP &EA8F
F277   A9 00             LDA #&00
F279   9D D2 03          STA &03D2,X
F27C   60                RTS                "`"
F27D   48                PHA                "H"
F27E   86 C8             STX &C8
F280   84 C9             STY &C9
F282   A0 00             LDY #&00
F284   B1 C8             LDA (&C8),Y
F286   AA                TAX
F287   C8                INY
F288   B1 C8             LDA (&C8),Y
F28A   A8                TAY
F28B   20 5A F2          JSR &F25A
F28E   A0 02             LDY #&02
F290   B1 C8             LDA (&C8),Y
F292   99 BC 03          STA &03BC,Y
F295   99 AE 00          STA &00AE,Y
F298   C8                INY
F299   C0 0A             CPY #&0A
F29B   D0 F3             BNE &F290
F29D   68                PLA                "h"
F29E   F0 07             BEQ &F2A7
F2A0   C9 FF             CMP #&FF
F2A2   D0 B0             BNE &F254
F2A4   4C C4 F1          JMP &F1C4
F2A7   8D C6 03          STA &03C6
F2AA   8D C7 03          STA &03C7
F2AD   B1 C8             LDA (&C8),Y
F2AF   99 A6 00          STA &00A6,Y
F2B2   C8                INY
F2B3   C0 12             CPY #&12
F2B5   D0 F6             BNE &F2AD
F2B7   8A                TXA
F2B8   F0 BA             BEQ &F274
F2BA   20 27 FB          JSR &FB27
F2BD   20 34 F9          JSR &F934
F2C0   A9 00             LDA #&00
F2C2   20 BD FB          JSR &FBBD
F2C5   20 E2 FB          JSR &FBE2
F2C8   38                SEC                "8"
F2C9   A2 FD             LDX #&FD
F2CB   BD B7 FF          LDA &FFB7,X
F2CE   FD B3 FF          SBC &FFB3,X
F2D1   9D CB 02          STA &02CB,X
F2D4   E8                INX
F2D5   D0 F4             BNE &F2CB
F2D7   A8                TAY
F2D8   D0 0E             BNE &F2E8
F2DA   EC C8 03          CPX &03C8
F2DD   A9 01             LDA #&01
F2DF   ED C9 03          SBC &03C9
F2E2   90 04             BCC &F2E8
F2E4   A2 80             LDX #&80
F2E6   D0 08             BNE &F2F0
F2E8   A9 01             LDA #&01
F2EA   8D C9 03          STA &03C9
F2ED   8E C8 03          STX &03C8
F2F0   8E CA 03          STX &03CA
F2F3   20 EC F7          JSR &F7EC
F2F6   30 49             BMI &F341          "0I"
F2F8   20 6A F9          JSR &F96A
F2FB   EE C6 03          INC &03C6
F2FE   D0 C8             BNE &F2C8
F300   EE C7 03          INC &03C7
F303   D0 C3             BNE &F2C8
F305   20 5A F2          JSR &F25A
F308   A2 FF             LDX #&FF
F30A   8E C2 03          STX &03C2
F30D   20 C4 F1          JSR &F1C4
F310   2C 7A 02          BIT &027A
F313   10 0A             BPL &F31F
F315   AD C4 03          LDA &03C4
F318   2D C5 03          AND &03C5
F31B   C9 FF             CMP #&FF
F31D   D0 03             BNE &F322
F31F   6C C2 03          JMP (&03C2)
F322   A2 C2             LDX #&C2
F324   A0 03             LDY #&03
F326   A9 04             LDA #&04
F328   4C C7 FB          JMP &FBC7
F32B   A9 08             LDA #&08
F32D   20 44 F3          JSR &F344
F330   20 27 FB          JSR &FB27
F333   A9 00             LDA #&00
F335   20 48 F3          JSR &F348
F338   20 FC FA          JSR &FAFC
F33B   A9 F7             LDA #&F7
F33D   25 E2             AND &E2
F33F   85 E2             STA &E2
F341   60                RTS                "`"
F342   A9 40             LDA #&40
F344   05 E2             ORA &E2
F346   D0 F7             BNE &F33F
F348   48                PHA                "H"
F349   AD 47 02          LDA &0247
F34C   F0 0B             BEQ &F359
F34E   20 13 EE          JSR &EE13
F351   20 18 EE          JSR &EE18
F354   90 03             BCC &F359
F356   B8                CLV
F357   50 41             BVC &F39A          "PA"
F359   20 7B F7          JSR &F77B
F35C   AD C6 03          LDA &03C6
F35F   85 B4             STA &B4
F361   AD C7 03          LDA &03C7
F364   85 B5             STA &B5
F366   A2 FF             LDX #&FF
F368   8E DF 03          STX &03DF
F36B   E8                INX
F36C   86 BA             STX &BA
F36E   F0 06             BEQ &F376
F370   20 69 FB          JSR &FB69
F373   20 7B F7          JSR &F77B
F376   AD 47 02          LDA &0247
F379   F0 02             BEQ &F37D
F37B   50 1D             BVC &F39A
F37D   68                PLA                "h"
F37E   48                PHA                "H"
F37F   F0 2D             BEQ &F3AE
F381   20 72 FA          JSR &FA72
F384   D0 16             BNE &F39C
F386   A9 30             LDA #&30
F388   25 BB             AND &BB
F38A   F0 0E             BEQ &F39A
F38C   AD C6 03          LDA &03C6
F38F   C5 B6             CMP &B6
F391   D0 09             BNE &F39C
F393   AD C7 03          LDA &03C7
F396   C5 B7             CMP &B7
F398   D0 02             BNE &F39C
F39A   68                PLA                "h"
F39B   60                RTS                "`"
F39C   AD 47 02          LDA &0247
F39F   F0 0D             BEQ &F3AE
F3A1   20 AD EE          JSR &EEAD
F3A4   A9 FF             LDA #&FF
F3A6   8D C6 03          STA &03C6
F3A9   8D C7 03          STA &03C7
F3AC   D0 C2             BNE &F370
F3AE   50 05             BVC &F3B5
F3B0   A9 FF             LDA #&FF
F3B2   20 D7 F7          JSR &F7D7
F3B5   A2 00             LDX #&00
F3B7   20 D9 F9          JSR &F9D9
F3BA   AD 47 02          LDA &0247
F3BD   F0 04             BEQ &F3C3
F3BF   24 BB             BIT &BB
F3C1   50 DE             BVC &F3A1
F3C3   2C CA 03          BIT &03CA
F3C6   30 DC             BMI &F3A4
F3C8   10 A6             BPL &F370
F3CA   85 BC             STA &BC
F3CC   8A                TXA
F3CD   48                PHA                "H"
F3CE   98                TYA
F3CF   48                PHA                "H"
F3D0   A5 BC             LDA &BC
F3D2   D0 1E             BNE &F3F2
F3D4   98                TYA
F3D5   D0 0C             BNE &F3E3
F3D7   20 75 E2          JSR &E275
F3DA   20 78 F4          JSR &F478
F3DD   46 E2             LSR &E2
F3DF   06 E2             ASL &E2
F3E1   90 0C             BCC &F3EF
F3E3   4A                LSR A              "J"
F3E4   B0 F7             BCS &F3DD
F3E6   4A                LSR A              "J"
F3E7   B0 03             BCS &F3EC
F3E9   4C B1 FB          JMP &FBB1
F3EC   20 78 F4          JSR &F478
F3EF   4C 71 F4          JMP &F471
F3F2   20 5A F2          JSR &F25A
F3F5   24 BC             BIT &BC
F3F7   50 3D             BVC &F436          "P="
F3F9   A9 00             LDA #&00
F3FB   8D 9E 03          STA &039E
F3FE   8D DD 03          STA &03DD
F401   8D DE 03          STA &03DE
F404   A9 3E             LDA #&3E
F406   20 3D F3          JSR &F33D
F409   20 1A FB          JSR &FB1A
F40C   08                PHP
F40D   20 31 F6          JSR &F631
F410   20 B4 F6          JSR &F6B4
F413   28                PLP                "("
F414   A2 FF             LDX #&FF
F416   E8                INX
F417   BD B2 03          LDA &03B2,X
F41A   9D A7 03          STA &03A7,X
F41D   D0 F7             BNE &F416
F41F   A9 01             LDA #&01
F421   20 44 F3          JSR &F344
F424   AD EA 02          LDA &02EA
F427   0D EB 02          ORA &02EB
F42A   D0 03             BNE &F42F
F42C   20 42 F3          JSR &F342
F42F   A9 01             LDA #&01
F431   0D 47 02          ORA &0247
F434   D0 39             BNE &F46F
F436   8A                TXA
F437   D0 03             BNE &F43C
F439   4C 8F EA          JMP &EA8F
F43C   A2 FF             LDX #&FF
F43E   E8                INX
F43F   BD D2 03          LDA &03D2,X
F442   9D 80 03          STA &0380,X
F445   D0 F7             BNE &F43E
F447   A9 FF             LDA #&FF
F449   A2 08             LDX #&08
F44B   9D 8B 03          STA &038B,X
F44E   CA                DEX
F44F   D0 FA             BNE &F44B
F451   8A                TXA
F452   A2 14             LDX #&14
F454   9D 80 03          STA &0380,X
F457   E8                INX
F458   E0 1E             CPX #&1E
F45A   D0 F8             BNE &F454
F45C   2E 97 03          ROL &0397
F45F   20 27 FB          JSR &FB27
F462   20 34 F9          JSR &F934
F465   20 F2 FA          JSR &FAF2
F468   A9 02             LDA #&02
F46A   20 44 F3          JSR &F344
F46D   A9 02             LDA #&02
F46F   85 BC             STA &BC
F471   68                PLA                "h"
F472   A8                TAY
F473   68                PLA                "h"
F474   AA                TAX
F475   A5 BC             LDA &BC
F477   60                RTS                "`"
F478   A9 02             LDA #&02
F47A   25 E2             AND &E2
F47C   F0 F9             BEQ &F477
F47E   A9 00             LDA #&00
F480   8D 97 03          STA &0397
F483   A9 80             LDA #&80
F485   AE 9D 03          LDX &039D
F488   8E 96 03          STX &0396
F48B   8D 98 03          STA &0398
F48E   20 96 F4          JSR &F496
F491   A9 FD             LDA #&FD
F493   4C 3D F3          JMP &F33D
F496   20 1A FB          JSR &FB1A
F499   A2 11             LDX #&11
F49B   BD 8C 03          LDA &038C,X
F49E   9D BE 03          STA &03BE,X
F4A1   CA                DEX
F4A2   10 F7             BPL &F49B
F4A4   86 B2             STX &B2
F4A6   86 B3             STX &B3
F4A8   E8                INX
F4A9   86 B0             STX &B0
F4AB   A9 09             LDA #&09
F4AD   85 B1             STA &B1
F4AF   A2 7F             LDX #&7F
F4B1   20 81 FB          JSR &FB81
F4B4   8D DF 03          STA &03DF
F4B7   20 8E FB          JSR &FB8E
F4BA   20 E2 FB          JSR &FBE2
F4BD   20 EC F7          JSR &F7EC
F4C0   EE 94 03          INC &0394
F4C3   D0 03             BNE &F4C8
F4C5   EE 95 03          INC &0395
F4C8   60                RTS                "`"
F4C9   8A                TXA
F4CA   48                PHA                "H"
F4CB   98                TYA
F4CC   48                PHA                "H"
F4CD   A9 01             LDA #&01
F4CF   20 9C FB          JSR &FB9C
F4D2   A5 E2             LDA &E2
F4D4   0A                ASL A
F4D5   B0 4C             BCS &F523
F4D7   0A                ASL A
F4D8   90 09             BCC &F4E3
F4DA   A9 80             LDA #&80
F4DC   20 44 F3          JSR &F344
F4DF   A9 FE             LDA #&FE
F4E1   B0 38             BCS &F51B
F4E3   AE 9E 03          LDX &039E
F4E6   E8                INX
F4E7   EC EA 02          CPX &02EA
F4EA   D0 2A             BNE &F516
F4EC   2C EC 02          BIT &02EC
F4EF   30 22             BMI &F513          "0\""
F4F1   AD ED 02          LDA &02ED
F4F4   48                PHA                "H"
F4F5   20 1A FB          JSR &FB1A
F4F8   08                PHP
F4F9   20 AC F6          JSR &F6AC
F4FC   28                PLP                "("
F4FD   68                PLA                "h"
F4FE   85 BC             STA &BC
F500   18                CLC
F501   2C EC 02          BIT &02EC
F504   10 17             BPL &F51D
F506   AD EA 02          LDA &02EA
F509   0D EB 02          ORA &02EB
F50C   D0 0F             BNE &F51D
F50E   20 42 F3          JSR &F342
F511   D0 0A             BNE &F51D
F513   20 42 F3          JSR &F342
F516   CA                DEX
F517   18                CLC
F518   BD 00 0A          LDA &0A00,X
F51B   85 BC             STA &BC
F51D   EE 9E 03          INC &039E
F520   4C 71 F4          JMP &F471
F523   00                BRK
F524   DF
F525   45 4F             EOR &4F            "EO"
F527   46 00             LSR &00
F529   85 C4             STA &C4
F52B   8A                TXA
F52C   48                PHA                "H"
F52D   98                TYA
F52E   48                PHA                "H"
F52F   A9 02             LDA #&02
F531   20 9C FB          JSR &FB9C
F534   AE 9D 03          LDX &039D
F537   A5 C4             LDA &C4
F539   9D 00 09          STA &0900,X
F53C   E8                INX
F53D   D0 06             BNE &F545
F53F   20 96 F4          JSR &F496
F542   20 F2 FA          JSR &FAF2
F545   EE 9D 03          INC &039D
F548   A5 C4             LDA &C4
F54A   4C 6F F4          JMP &F46F
F54D   8A                TXA
F54E   F0 2E             BEQ &F57E
F550   E0 03             CPX #&03
F552   F0 1F             BEQ &F573
F554   C0 03             CPY #&03
F556   B0 06             BCS &F55E
F558   CA                DEX
F559   F0 06             BEQ &F561
F55B   CA                DEX
F55C   F0 0A             BEQ &F568
F55E   4C 10 E3          JMP &E310
F561   A9 33             LDA #&33
F563   C8                INY
F564   C8                INY
F565   C8                INY
F566   D0 02             BNE &F56A
F568   A9 CC             LDA #&CC
F56A   C8                INY
F56B   25 E3             AND &E3
F56D   19 81 F5          ORA &F581,Y
F570   85 E3             STA &E3
F572   60                RTS                "`"
F573   98                TYA
F574   30 02             BMI &F578
F576   D0 02             BNE &F57A
F578   A9 19             LDA #&19
F57A   8D D1 03          STA &03D1
F57D   60                RTS                "`"
F57E   A8                TAY
F57F   F0 EC             BEQ &F56D
F581   A1 00             LDA (&00,X)
F583   22                                   "\""
F584   11 00             ORA (&00),Y
F586   88                DEY
F587   CC C6 C0          CPY &C0C6
F58A   AD 47 02          LDA &0247
F58D   F0 07             BEQ &F596
F58F   20 51 EE          JSR &EE51
F592   A8                TAY
F593   18                CLC
F594   90 1A             BCC &F5B0
F596   AD 08 FE          LDA &FE08
F599   48                PHA                "H"
F59A   29 02             AND #&02
F59C   F0 0B             BEQ &F5A9
F59E   A4 CA             LDY &CA
F5A0   F0 07             BEQ &F5A9
F5A2   68                PLA                "h"
F5A3   A5 BD             LDA &BD
F5A5   8D 09 FE          STA &FE09
F5A8   60                RTS                "`"
F5A9   AC 09 FE          LDY &FE09
F5AC   68                PLA                "h"
F5AD   4A                LSR A              "J"
F5AE   4A                LSR A              "J"
F5AF   4A                LSR A              "J"
F5B0   A6 C2             LDX &C2
F5B2   F0 69             BEQ &F61D
F5B4   CA                DEX
F5B5   D0 06             BNE &F5BD
F5B7   90 64             BCC &F61D
F5B9   A0 02             LDY #&02
F5BB   D0 5E             BNE &F61B
F5BD   CA                DEX
F5BE   D0 13             BNE &F5D3
F5C0   B0 5B             BCS &F61D
F5C2   98                TYA
F5C3   20 78 FB          JSR &FB78
F5C6   A0 03             LDY #&03
F5C8   C9 2A             CMP #&2A
F5CA   F0 4F             BEQ &F61B
F5CC   20 50 FB          JSR .L194
F5CF   A0 01             LDY #&01
F5D1   D0 48             BNE &F61B
F5D3   CA                DEX
F5D4   D0 0C             BNE &F5E2
F5D6   B0 04             BCS &F5DC
F5D8   84 BD             STY &BD
F5DA   F0 41             BEQ &F61D
F5DC   A9 80             LDA #&80
F5DE   85 C0             STA &C0
F5E0   D0 3B             BNE &F61D
F5E2   CA                DEX
F5E3   D0 29             BNE &F60E
F5E5   B0 2F             BCS &F616
F5E7   98                TYA
F5E8   20 B0 F7          JSR &F7B0
F5EB   A4 BC             LDY &BC
F5ED   E6 BC             INC &BC
F5EF   24 BD             BIT &BD
F5F1   30 0D             BMI &F600
F5F3   20 D3 FB          JSR &FBD3
F5F6   F0 05             BEQ &F5FD
F5F8   8E E5 FE          STX &FEE5
F5FB   D0 03             BNE &F600
F5FD   8A                TXA
F5FE   91 B0             STA (&B0),Y
F600   C8                INY
F601   CC C8 03          CPY &03C8
F604   D0 17             BNE &F61D
F606   A9 01             LDA #&01
F608   85 BC             STA &BC
F60A   A0 05             LDY #&05
F60C   D0 0D             BNE &F61B
F60E   98                TYA
F60F   20 B0 F7          JSR &F7B0
F612   C6 BC             DEC &BC
F614   10 07             BPL &F61D
F616   20 46 FB          JSR .L192
F619   A0 00             LDY #&00
F61B   84 C2             STY &C2
F61D   60                RTS                "`"
F61E   48                PHA                "H"
F61F   98                TYA
F620   48                PHA                "H"
F621   8A                TXA
F622   A8                TAY
F623   A9 03             LDA #&03
F625   20 9C FB          JSR &FB9C
F628   A5 E2             LDA &E2
F62A   29 40             AND #&40           ")@"
F62C   AA                TAX
F62D   68                PLA                "h"
F62E   A8                TAY
F62F   68                PLA                "h"
F630   60                RTS                "`"
F631   A9 00             LDA #&00
F633   85 B4             STA &B4
F635   85 B5             STA &B5
F637   A5 B4             LDA &B4
F639   48                PHA                "H"
F63A   85 B6             STA &B6
F63C   A5 B5             LDA &B5
F63E   48                PHA                "H"
F63F   85 B7             STA &B7
F641   20 46 FA          JSR &FA46
F644   53                                   "S"
F645   65 61             ADC &61            "ea"
F647   72                                   "r"
F648   63                                   "c"
F649   68                PLA                "h"
F64A   69 6E             ADC #&6E           "in"
F64C   67                                   "g"
F64D   0D 00 A9          ORA &A900
F650   FF
F651   20 48 F3          JSR &F348
F654   68                PLA                "h"
F655   85 B5             STA &B5
F657   68                PLA                "h"
F658   85 B4             STA &B4
F65A   A5 B6             LDA &B6
F65C   05 B7             ORA &B7
F65E   D0 0D             BNE &F66D
F660   85 B4             STA &B4
F662   85 B5             STA &B5
F664   A5 C1             LDA &C1
F666   D0 05             BNE &F66D
F668   A2 B1             LDX #&B1
F66A   20 81 FB          JSR &FB81
F66D   AD 47 02          LDA &0247
F670   F0 13             BEQ &F685
F672   70 11             BVS &F685
F674   00                BRK
F675   D6 46             DEC &46,X
F677   69 6C             ADC #&6C           "il"
F679   65 20             ADC &20            "e "
F67B   6E 6F 74          ROR &746F          "not"
F67E   20 66 6F          JSR &6F66          " fo"
F681   75 6E             ADC &6E,X          "un"
F683   64                                   "d"
F684   00                BRK
F685   A0 FF             LDY #&FF
F687   8C DF 03          STY &03DF
F68A   60                RTS                "`"
F68B   A9 00             LDA #&00
F68D   08                PHP
F68E   84 E6             STY &E6
F690   AC 56 02          LDY &0256
F693   8D 56 02          STA &0256
F696   F0 03             BEQ &F69B
F698   20 CE FF          JSR &FFCE
F69B   A4 E6             LDY &E6
F69D   28                PLP                "("
F69E   F0 0B             BEQ &F6AB
F6A0   A9 40             LDA #&40
F6A2   20 CE FF          JSR &FFCE
F6A5   A8                TAY
F6A6   F0 CC             BEQ &F674
F6A8   8D 56 02          STA &0256
F6AB   60                RTS                "`"
F6AC   A2 A6             LDX #&A6
F6AE   20 81 FB          JSR &FB81
F6B1   20 7B F7          JSR &F77B
F6B4   AD CA 03          LDA &03CA
F6B7   4A                LSR A              "J"
F6B8   90 03             BCC &F6BD
F6BA   4C F6 F1          JMP &F1F6
F6BD   AD DD 03          LDA &03DD
F6C0   85 B4             STA &B4
F6C2   AD DE 03          LDA &03DE
F6C5   85 B5             STA &B5
F6C7   A9 00             LDA #&00
F6C9   85 B0             STA &B0
F6CB   A9 0A             LDA #&0A
F6CD   85 B1             STA &B1
F6CF   A9 FF             LDA #&FF
F6D1   85 B2             STA &B2
F6D3   85 B3             STA &B3
F6D5   20 D5 F7          JSR &F7D5
F6D8   20 B4 F9          JSR &F9B4
F6DB   D0 25             BNE &F702
F6DD   AD FF 0A          LDA &0AFF
F6E0   8D ED 02          STA &02ED
F6E3   20 69 FB          JSR &FB69
F6E6   8E DD 03          STX &03DD
F6E9   8C DE 03          STY &03DE
F6EC   A2 02             LDX #&02
F6EE   BD C8 03          LDA &03C8,X
F6F1   9D EA 02          STA &02EA,X
F6F4   CA                DEX
F6F5   10 F7             BPL &F6EE
F6F7   2C EC 02          BIT &02EC
F6FA   10 03             BPL &F6FF
F6FC   20 49 F2          JSR &F249
F6FF   4C F2 FA          JMP &FAF2
F702   20 37 F6          JSR &F637
F705   D0 AD             BNE &F6B4
F707   C9 2A             CMP #&2A
F709   F0 37             BEQ &F742
F70B   C9 23             CMP #&23
F70D   D0 0F             BNE &F71E
F70F   EE C6 03          INC &03C6
F712   D0 03             BNE &F717
F714   EE C7 03          INC &03C7
F717   A2 FF             LDX #&FF
F719   2C B7 D9          BIT &D9B7
F71C   D0 55             BNE &F773
F71E   A9 F7             LDA #&F7
F720   20 3D F3          JSR &F33D
F723   00                BRK
F724   D7
F725   42                                   "B"
F726   61 64             ADC (&64,X)        "ad"
F728   20 52 4F          JSR &4F52          " RO"
F72B   4D 00 A0          EOR &A000
F72E   FF
F72F   20 90 FB          JSR &FB90
F732   A9 01             LDA #&01
F734   85 C2             STA &C2
F736   20 50 FB          JSR .L194
F739   20 95 F9          JSR &F995
F73C   A9 03             LDA #&03
F73E   C5 C2             CMP &C2
F740   D0 F7             BNE &F739
F742   A0 00             LDY #&00
F744   20 7C FB          JSR &FB7C
F747   20 97 F7          JSR &F797
F74A   50 1A             BVC &F766
F74C   99 B2 03          STA &03B2,Y
F74F   F0 06             BEQ &F757
F751   C8                INY
F752   C0 0B             CPY #&0B
F754   D0 F1             BNE &F747
F756   88                DEY
F757   A2 0C             LDX #&0C
F759   20 97 F7          JSR &F797
F75C   50 08             BVC &F766
F75E   9D B2 03          STA &03B2,X
F761   E8                INX
F762   E0 1F             CPX #&1F
F764   D0 F3             BNE &F759
F766   98                TYA
F767   AA                TAX
F768   A9 00             LDA #&00
F76A   99 B2 03          STA &03B2,Y
F76D   A5 BE             LDA &BE
F76F   05 BF             ORA &BF
F771   85 C1             STA &C1
F773   20 78 FB          JSR &FB78
F776   84 C2             STY &C2
F778   8A                TXA
F779   D0 59             BNE &F7D4
F77B   AD 47 02          LDA &0247
F77E   F0 AD             BEQ &F72D
F780   20 51 EE          JSR &EE51
F783   C9 2B             CMP #&2B
F785   D0 80             BNE &F707
F787   A9 08             LDA #&08
F789   25 E2             AND &E2
F78B   F0 03             BEQ &F790
F78D   20 4D F2          JSR &F24D
F790   20 18 EE          JSR &EE18
F793   90 EB             BCC &F780
F795   B8                CLV
F796   60                RTS                "`"
F797   AD 47 02          LDA &0247
F79A   F0 11             BEQ &F7AD
F79C   8A                TXA
F79D   48                PHA                "H"
F79E   98                TYA
F79F   48                PHA                "H"
F7A0   20 51 EE          JSR &EE51
F7A3   85 BD             STA &BD
F7A5   A9 FF             LDA #&FF
F7A7   85 C0             STA &C0
F7A9   68                PLA                "h"
F7AA   A8                TAY
F7AB   68                PLA                "h"
F7AC   AA                TAX
F7AD   20 84 F8          JSR &F884
F7B0   08                PHP
F7B1   48                PHA                "H"
F7B2   38                SEC                "8"
F7B3   66 CB             ROR &CB
F7B5   45 BF             EOR &BF
F7B7   85 BF             STA &BF
F7B9   A5 BF             LDA &BF
F7BB   2A                ROL A              "*"
F7BC   90 0C             BCC &F7CA
F7BE   6A                ROR A              "j"
F7BF   49 08             EOR #&08
F7C1   85 BF             STA &BF
F7C3   A5 BE             LDA &BE
F7C5   49 10             EOR #&10
F7C7   85 BE             STA &BE
F7C9   38                SEC                "8"
F7CA   26 BE             ROL &BE
F7CC   26 BF             ROL &BF
F7CE   46 CB             LSR &CB
F7D0   D0 E7             BNE &F7B9
F7D2   68                PLA                "h"
F7D3   28                PLP                "("
F7D4   60                RTS                "`"
F7D5   A9 00             LDA #&00
F7D7   85 BD             STA &BD
F7D9   A2 00             LDX #&00
F7DB   86 BC             STX &BC
F7DD   50 0A             BVC &F7E9
F7DF   AD C8 03          LDA &03C8
F7E2   0D C9 03          ORA &03C9
F7E5   F0 02             BEQ &F7E9
F7E7   A2 04             LDX #&04
F7E9   86 C2             STX &C2
F7EB   60                RTS                "`"
F7EC   08                PHP
F7ED   A2 03             LDX #&03
F7EF   A9 00             LDA #&00
F7F1   9D CB 03          STA &03CB,X
F7F4   CA                DEX
F7F5   10 FA             BPL &F7F1
F7F7   AD C6 03          LDA &03C6
F7FA   0D C7 03          ORA &03C7
F7FD   D0 05             BNE &F804
F7FF   20 92 F8          JSR &F892
F802   F0 03             BEQ &F807
F804   20 96 F8          JSR &F896
F807   A9 2A             LDA #&2A
F809   85 BD             STA &BD
F80B   20 78 FB          JSR &FB78
F80E   20 4A FB          JSR .L193
F811   20 84 F8          JSR &F884
F814   88                DEY
F815   C8                INY
F816   B9 D2 03          LDA &03D2,Y
F819   99 B2 03          STA &03B2,Y
F81C   20 75 F8          JSR &F875
F81F   D0 F4             BNE &F815
F821   A2 0C             LDX #&0C
F823   BD B2 03          LDA &03B2,X
F826   20 75 F8          JSR &F875
F829   E8                INX
F82A   E0 1D             CPX #&1D
F82C   D0 F5             BNE &F823
F82E   20 7B F8          JSR &F87B
F831   AD C8 03          LDA &03C8
F834   0D C9 03          ORA &03C9
F837   F0 1C             BEQ &F855
F839   A0 00             LDY #&00
F83B   20 7C FB          JSR &FB7C
F83E   B1 B0             LDA (&B0),Y
F840   20 D3 FB          JSR &FBD3
F843   F0 03             BEQ &F848
F845   AE E5 FE          LDX &FEE5
F848   8A                TXA
F849   20 75 F8          JSR &F875
F84C   C8                INY
F84D   CC C8 03          CPY &03C8
F850   D0 EC             BNE &F83E
F852   20 7B F8          JSR &F87B
F855   20 84 F8          JSR &F884
F858   20 84 F8          JSR &F884
F85B   20 46 FB          JSR .L192
F85E   A9 01             LDA #&01
F860   20 98 F8          JSR &F898
F863   28                PLP                "("
F864   20 B9 F8          JSR &F8B9
F867   2C CA 03          BIT &03CA
F86A   10 08             BPL &F874
F86C   08                PHP
F86D   20 92 F8          JSR &F892
F870   20 46 F2          JSR &F246
F873   28                PLP                "("
F874   60                RTS                "`"
F875   20 82 F8          JSR &F882
F878   4C B0 F7          JMP &F7B0
F87B   A5 BF             LDA &BF
F87D   20 82 F8          JSR &F882
F880   A5 BE             LDA &BE
F882   85 BD             STA &BD
F884   20 95 F9          JSR &F995
F887   24 C0             BIT &C0
F889   10 F9             BPL &F884
F88B   A9 00             LDA #&00
F88D   85 C0             STA &C0
F88F   A5 BD             LDA &BD
F891   60                RTS                "`"
F892   A9 32             LDA #&32
F894   D0 02             BNE &F898
F896   A5 C7             LDA &C7
F898   A2 05             LDX #&05
F89A   8D 40 02          STA &0240
F89D   20 95 F9          JSR &F995
F8A0   2C 40 02          BIT &0240
F8A3   10 F8             BPL &F89D
F8A5   CA                DEX
F8A6   D0 F2             BNE &F89A
F8A8   60                RTS                "`"
F8A9   AD C6 03          LDA &03C6
F8AC   0D C7 03          ORA &03C7
F8AF   F0 05             BEQ &F8B6
F8B1   2C DF 03          BIT &03DF
F8B4   10 03             BPL &F8B9
F8B6   20 49 F2          JSR &F249
F8B9   A0 00             LDY #&00
F8BB   84 BA             STY &BA
F8BD   AD CA 03          LDA &03CA
F8C0   8D DF 03          STA &03DF
F8C3   20 DC E7          JSR &E7DC
F8C6   F0 6B             BEQ &F933
F8C8   A9 0D             LDA #&0D
F8CA   20 EE FF          JSR .L200
F8CD   B9 B2 03          LDA &03B2,Y
F8D0   F0 10             BEQ &F8E2
F8D2   C9 20             CMP #&20
F8D4   90 04             BCC &F8DA
F8D6   C9 7F             CMP #&7F
F8D8   90 02             BCC &F8DC
F8DA   A9 3F             LDA #&3F
F8DC   20 EE FF          JSR .L200
F8DF   C8                INY
F8E0   D0 EB             BNE &F8CD
F8E2   AD 47 02          LDA &0247
F8E5   F0 04             BEQ &F8EB
F8E7   24 BB             BIT &BB
F8E9   50 48             BVC &F933          "PH"
F8EB   20 91 F9          JSR &F991
F8EE   C8                INY
F8EF   C0 0B             CPY #&0B
F8F1   90 EF             BCC &F8E2
F8F3   AD C6 03          LDA &03C6
F8F6   AA                TAX
F8F7   20 7A F9          JSR &F97A
F8FA   2C CA 03          BIT &03CA
F8FD   10 34             BPL &F933
F8FF   8A                TXA
F900   18                CLC
F901   6D C9 03          ADC &03C9
F904   85 CD             STA &CD
F906   20 75 F9          JSR &F975
F909   AD C8 03          LDA &03C8
F90C   85 CC             STA &CC
F90E   20 7A F9          JSR &F97A
F911   24 BB             BIT &BB
F913   50 1E             BVC &F933
F915   A2 04             LDX #&04
F917   20 91 F9          JSR &F991
F91A   CA                DEX
F91B   D0 FA             BNE &F917
F91D   A2 0F             LDX #&0F
F91F   20 27 F9          JSR &F927
F922   20 91 F9          JSR &F991
F925   A2 13             LDX #&13
F927   A0 04             LDY #&04
F929   BD B2 03          LDA &03B2,X
F92C   20 7A F9          JSR &F97A
F92F   CA                DEX
F930   88                DEY
F931   D0 F6             BNE &F929
F933   60                RTS                "`"
F934   AD 47 02          LDA &0247
F937   F0 03             BEQ &F93C
F939   4C 10 E3          JMP &E310
F93C   20 8E FB          JSR &FB8E
F93F   20 E2 FB          JSR &FBE2
F942   20 DC E7          JSR &E7DC
F945   F0 EC             BEQ &F933
F947   20 46 FA          JSR &FA46
F94A   52                                   "R"
F94B   45 43             EOR &43            "EC"
F94D   4F                                   "O"
F94E   52                                   "R"
F94F   44                                   "D"
F950   20 74 68          JSR &6874          " th"
F953   65 6E             ADC &6E            "en"
F955   20 52 45          JSR &4552          " RE"
F958   54                                   "T"
F959   55 52             EOR &52,X          "UR"
F95B   4E 00 20          LSR &2000
F95E   95 F9             STA &F9,X
F960   20 E0 FF          JSR &FFE0
F963   C9 0D             CMP #&0D
F965   D0 F6             BNE &F95D
F967   4C E7 FF          JMP .L199
F96A   E6 B1             INC &B1
F96C   D0 06             BNE &F974
F96E   E6 B2             INC &B2
F970   D0 02             BNE &F974
F972   E6 B3             INC &B3
F974   60                RTS                "`"
F975   48                PHA                "H"
F976   20 91 F9          JSR &F991
F979   68                PLA                "h"
F97A   48                PHA                "H"
F97B   4A                LSR A              "J"
F97C   4A                LSR A              "J"
F97D   4A                LSR A              "J"
F97E   4A                LSR A              "J"
F97F   20 83 F9          JSR &F983
F982   68                PLA                "h"
F983   18                CLC
F984   29 0F             AND #&0F
F986   69 30             ADC #&30           "i0"
F988   C9 3A             CMP #&3A
F98A   90 02             BCC &F98E
F98C   69 06             ADC #&06
F98E   4C EE FF          JMP .L200
F991   A9 20             LDA #&20
F993   D0 F9             BNE &F98E
F995   08                PHP
F996   24 EB             BIT &EB
F998   30 04             BMI &F99E
F99A   24 FF             BIT &FF
F99C   30 02             BMI &F9A0
F99E   28                PLP                "("
F99F   60                RTS                "`"
F9A0   20 3B F3          JSR &F33B
F9A3   20 F2 FA          JSR &FAF2
F9A6   A9 7E             LDA #&7E
F9A8   20 F4 FF          JSR &FFF4
F9AB   00                BRK
F9AC   11 45             ORA (&45),Y
F9AE   73                                   "s"
F9AF   63                                   "c"
F9B0   61 70             ADC (&70,X)        "ap"
F9B2   65 00             ADC &00
F9B4   98                TYA
F9B5   F0 0D             BEQ &F9C4
F9B7   20 46 FA          JSR &FA46
F9BA   0D 4C 6F          ORA &6F4C
F9BD   61 64             ADC (&64,X)        "ad"
F9BF   69 6E             ADC #&6E           "in"
F9C1   67                                   "g"
F9C2   0D 00 85          ORA &8500
F9C5   BA                TSX
F9C6   A2 FF             LDX #&FF
F9C8   A5 C1             LDA &C1
F9CA   D0 0D             BNE &F9D9
F9CC   20 72 FA          JSR &FA72
F9CF   08                PHP
F9D0   A2 FF             LDX #&FF
F9D2   A0 99             LDY #&99
F9D4   A9 FA             LDA #&FA
F9D6   28                PLP                "("
F9D7   D0 1C             BNE &F9F5
F9D9   A0 8E             LDY #&8E
F9DB   A5 C1             LDA &C1
F9DD   F0 04             BEQ &F9E3
F9DF   A9 FA             LDA #&FA
F9E1   D0 12             BNE &F9F5
F9E3   AD C6 03          LDA &03C6
F9E6   C5 B4             CMP &B4
F9E8   D0 07             BNE &F9F1
F9EA   AD C7 03          LDA &03C7
F9ED   C5 B5             CMP &B5
F9EF   F0 13             BEQ &FA04
F9F1   A0 A4             LDY #&A4
F9F3   A9 FA             LDA #&FA
F9F5   48                PHA                "H"
F9F6   98                TYA
F9F7   48                PHA                "H"
F9F8   8A                TXA
F9F9   48                PHA                "H"
F9FA   20 B6 F8          JSR &F8B6
F9FD   68                PLA                "h"
F9FE   AA                TAX
F9FF   68                PLA                "h"
FA00   A8                TAY
FA01   68                PLA                "h"
FA02   D0 14             BNE &FA18
FA04   8A                TXA
FA05   48                PHA                "H"
FA06   20 A9 F8          JSR &F8A9
FA09   20 D6 FA          JSR &FAD6
FA0C   68                PLA                "h"
FA0D   AA                TAX
FA0E   A5 BE             LDA &BE
FA10   05 BF             ORA &BF
FA12   F0 79             BEQ &FA8D
FA14   A0 8E             LDY #&8E
FA16   A9 FA             LDA #&FA
FA18   C6 BA             DEC &BA
FA1A   48                PHA                "H"
FA1B   24 EB             BIT &EB
FA1D   30 0D             BMI &FA2C
FA1F   8A                TXA
FA20   2D 47 02          AND &0247
FA23   D0 07             BNE &FA2C
FA25   8A                TXA
FA26   29 11             AND #&11
FA28   25 BB             AND &BB
FA2A   F0 10             BEQ &FA3C
FA2C   68                PLA                "h"
FA2D   85 B9             STA &B9
FA2F   84 B8             STY &B8
FA31   20 8B F6          JSR &F68B
FA34   46 EB             LSR &EB
FA36   20 E8 FA          JSR &FAE8
FA39   6C B8 00          JMP (&00B8)
FA3C   68                PLA                "h"
FA3D   C8                INY
FA3E   D0 03             BNE &FA43
FA40   18                CLC
FA41   69 01             ADC #&01
FA43   48                PHA                "H"
FA44   98                TYA
FA45   48                PHA                "H"
FA46   20 DC E7          JSR &E7DC
FA49   A8                TAY
FA4A   68                PLA                "h"
FA4B   85 B8             STA &B8
FA4D   68                PLA                "h"
FA4E   85 B9             STA &B9
FA50   98                TYA
FA51   08                PHP
FA52   E6 B8             INC &B8
FA54   D0 02             BNE &FA58
FA56   E6 B9             INC &B9
FA58   A0 00             LDY #&00
FA5A   B1 B8             LDA (&B8),Y
FA5C   F0 0A             BEQ &FA68
FA5E   28                PLP                "("
FA5F   08                PHP
FA60   F0 F0             BEQ &FA52
FA62   20 E3 FF          JSR .L198
FA65   4C 52 FA          JMP &FA52
FA68   28                PLP                "("
FA69   E6 B8             INC &B8
FA6B   D0 02             BNE &FA6F
FA6D   E6 B9             INC &B9
FA6F   6C B8 00          JMP (&00B8)
FA72   A2 FF             LDX #&FF
FA74   E8                INX
FA75   BD D2 03          LDA &03D2,X
FA78   D0 07             BNE &FA81
FA7A   8A                TXA
FA7B   F0 03             BEQ &FA80
FA7D   BD B2 03          LDA &03B2,X
FA80   60                RTS                "`"
FA81   20 E3 E4          JSR &E4E3
FA84   5D B2 03          EOR &03B2,X
FA87   B0 02             BCS &FA8B
FA89   29 DF             AND #&DF
FA8B   F0 E7             BEQ &FA74
FA8D   60                RTS                "`"
FA8E   00                BRK
FA8F   D8                CLD
FA90   0D 44 61          ORA &6144
FA93   74                                   "t"
FA94   61 3F             ADC (&3F,X)        "a?"
FA96   00                BRK
FA97   D0 15             BNE &FAAE
FA99   00                BRK
FA9A   DB
FA9B   0D 46 69          ORA &6946
FA9E   6C 65 3F          JMP (&3F65)        "le?"
FAA1   00                BRK
FAA2   D0 0A             BNE &FAAE
FAA4   00                BRK
FAA5   DA
FAA6   0D 42 6C          ORA &6C42
FAA9   6F                                   "o"
FAAA   63                                   "c"
FAAB   6B                                   "k"
FAAC   3F                                   "?"
FAAD   00                BRK
FAAE   A5 BA             LDA &BA
FAB0   F0 21             BEQ &FAD3
FAB2   8A                TXA
FAB3   F0 1E             BEQ &FAD3
FAB5   A9 22             LDA #&22
FAB7   24 BB             BIT &BB
FAB9   F0 18             BEQ &FAD3
FABB   20 46 FB          JSR .L192
FABE   A8                TAY
FABF   20 4A FA          JSR &FA4A
FAC2   0D 07 52          ORA &5207
FAC5   65 77             ADC &77            "ew"
FAC7   69 6E             ADC #&6E           "in"
FAC9   64                                   "d"
FACA   20 74 61          JSR &6174          " ta"
FACD   70 65             BVS &FB34          "pe"
FACF   0D 0D 00          ORA &000D
FAD2   60                RTS                "`"
FAD3   20 4D F2          JSR &F24D
FAD6   A5 C2             LDA &C2
FAD8   F0 F8             BEQ &FAD2
FADA   20 95 F9          JSR &F995
FADD   AD 47 02          LDA &0247
FAE0   F0 F4             BEQ &FAD6
FAE2   20 88 F5          JSR &F588
FAE5   4C D6 FA          JMP &FAD6
FAE8   20 DC E7          JSR &E7DC
FAEB   F0 05             BEQ &FAF2
FAED   A9 07             LDA #&07
FAEF   20 EE FF          JSR .L200
FAF2   A9 80             LDA #&80
FAF4   20 BD FB          JSR &FBBD
FAF7   A2 00             LDX #&00
FAF9   20 95 FB          JSR &FB95
FAFC   08                PHP
FAFD   78                SEI                "x"
FAFE   AD 82 02          LDA &0282
FB01   8D 10 FE          STA &FE10
FB04   A9 00             LDA #&00
FB06   85 EA             STA &EA
FB08   F0 01             BEQ .L191
FB0A   08         .L190  PHP
FB0B   20 46 FB   .L191  JSR .L192
FB0E   AD 50 02   .      LDA &0250
FB11   4C 89 E1   .      JMP .L115
FB14   28                PLP                "("
FB15   24 FF             BIT &FF
FB17   10 18             BPL &FB31
FB19   60                RTS                "`"
FB1A   A5 E3             LDA &E3
FB1C   0A                ASL A
FB1D   0A                ASL A
FB1E   0A                ASL A
FB1F   0A                ASL A
FB20   85 BB             STA &BB
FB22   AD D1 03          LDA &03D1
FB25   D0 08             BNE &FB2F
FB27   A5 E3             LDA &E3
FB29   29 F0             AND #&F0
FB2B   85 BB             STA &BB
FB2D   A9 06             LDA #&06
FB2F   85 C7             STA &C7
FB31   58                CLI                "X"
FB32   08                PHP
FB33   78                SEI                "x"
FB34   2C 4F 02          BIT &024F
FB37   10 DB             BPL &FB14
FB39   A5 EA             LDA &EA
FB3B   30 D7             BMI &FB14
FB3D   A9 01             LDA #&01
FB3F   85 EA             STA &EA
FB41   20 46 FB          JSR .L192
FB44   28                PLP                "("
FB45   60                RTS                "`"
FB46   A9 03      .L192  LDA #&03
FB48   D0 1B      .      BNE .L197
FB4A   A9 30      .L193  LDA #&30
FB4C   85 CA      .      STA &CA
FB4E   D0 13      .      BNE .L196
FB50   A9 05      .L194  LDA #&05
FB52   8D 10 FE   .      STA &FE10
FB55   A2 FF      .      LDX #&FF
FB57   CA         .L195  DEX
FB58   D0 FD      .      BNE .L195
FB5A   86 CA      .      STX &CA
FB5C   A9 85      .      LDA #&85
FB5E   8D 10 FE   .      STA &FE10
FB61   A9 D0      .      LDA #&D0
FB63   05 C6      .L196  ORA &C6
FB65   8D 08 FE   .L197  STA &FE08
FB68   60         .      RTS
FB69   AE C6 03          LDX &03C6
FB6C   AC C7 03          LDY &03C7
FB6F   E8                INX
FB70   86 B4             STX &B4
FB72   D0 01             BNE &FB75
FB74   C8                INY
FB75   84 B5             STY &B5
FB77   60                RTS                "`"
FB78   A0 00             LDY #&00
FB7A   84 C0             STY &C0
FB7C   84 BE             STY &BE
FB7E   84 BF             STY &BF
FB80   60                RTS                "`"
FB81   A0 FF             LDY #&FF
FB83   C8                INY
FB84   E8                INX
FB85   BD 00 03          LDA &0300,X
FB88   99 D2 03          STA &03D2,Y
FB8B   D0 F6             BNE &FB83
FB8D   60                RTS                "`"
FB8E   A0 00             LDY #&00
FB90   58                CLI                "X"
FB91   A2 01             LDX #&01
FB93   84 C3             STY &C3
FB95   A9 89             LDA #&89
FB97   A4 C3             LDY &C3
FB99   4C F4 FF          JMP &FFF4
FB9C   85 BC             STA &BC
FB9E   98                TYA
FB9F   4D 47 02          EOR &0247
FBA2   A8                TAY
FBA3   A5 E2             LDA &E2
FBA5   25 BC             AND &BC
FBA7   4A                LSR A              "J"
FBA8   88                DEY
FBA9   F0 04             BEQ &FBAF
FBAB   4A                LSR A              "J"
FBAC   88                DEY
FBAD   D0 02             BNE &FBB1
FBAF   B0 4D             BCS &FBFE
FBB1   00                BRK
FBB2   DE 43 68          DEC &6843,X
FBB5   61 6E             ADC (&6E,X)        "an"
FBB7   6E 65 6C          ROR &6C65          "nel"
FBBA   00                BRK
FBBB   A9 01             LDA #&01
FBBD   20 D3 FB          JSR &FBD3
FBC0   F0 3C             BEQ &FBFE
FBC2   8A                TXA
FBC3   A2 B0             LDX #&B0
FBC5   A0 00             LDY #&00
FBC7   48                PHA                "H"
FBC8   A9 C0             LDA #&C0
FBCA   20 06 04          JSR &0406
FBCD   90 FB             BCC &FBCA
FBCF   68                PLA                "h"
FBD0   4C 06 04          JMP &0406
FBD3   AA                TAX
FBD4   A5 B2             LDA &B2
FBD6   25 B3             AND &B3
FBD8   C9 FF             CMP #&FF
FBDA   F0 05             BEQ &FBE1
FBDC   AD 7A 02          LDA &027A
FBDF   29 80             AND #&80
FBE1   60                RTS                "`"
FBE2   A9 85             LDA #&85
FBE4   8D 10 FE          STA &FE10
FBE7   20 46 FB          JSR .L192
FBEA   A9 10             LDA #&10
FBEC   20 63 FB          JSR .L196
FBEF   20 95 F9          JSR &F995
FBF2   AD 08 FE          LDA &FE08
FBF5   29 02             AND #&02
FBF7   F0 F6             BEQ &FBEF
FBF9   A9 AA             LDA #&AA
FBFB   8D 09 FE          STA &FE09
FBFE   60                RTS                "`"
FBFF   00                BRK
FC00   28                PLP                "("
FC01   43                                   "C"
FC02   29 20             AND #&20           ") "
FC04   31 39             AND (&39),Y        "19"
FC06   38                SEC                "8"
FC07   31 20             AND (&20),Y        "1 "
FC09   41 63             EOR (&63,X)        "Ac"
FC0B   6F                                   "o"
FC0C   72                                   "r"
FC0D   6E 20 43          ROR &4320          "n C"
FC10   6F                                   "o"
FC11   6D 70 75          ADC &7570          "mpu"
FC14   74                                   "t"
FC15   65 72             ADC &72            "er"
FC17   73                                   "s"
FC18   20 4C 74          JSR &744C          " Lt"
FC1B   64                                   "d"
FC1C   2E 54 68          ROL &6854          ".Th"
FC1F   61 6E             ADC (&6E,X)        "an"
FC21   6B                                   "k"
FC22   73                                   "s"
FC23   20 61 72          JSR &7261          " ar"
FC26   65 20             ADC &20            "e "
FC28   64                                   "d"
FC29   75 65             ADC &65,X          "ue"
FC2B   20 74 6F          JSR &6F74          " to"
FC2E   20 74 68          JSR &6874          " th"
FC31   65 20             ADC &20            "e "
FC33   66 6F             ROR &6F            "fo"
FC35   6C 6C 6F          JMP (&6F6C)        "llo"
FC38   77                                   "w"
FC39   69 6E             ADC #&6E           "in"
FC3B   67                                   "g"
FC3C   20 63 6F          JSR &6F63          " co"
FC3F   6E 74 72          ROR &7274          "ntr"
FC42   69 62             ADC #&62           "ib"
FC44   75 74             ADC &74,X          "ut"
FC46   6F                                   "o"
FC47   72                                   "r"
FC48   73                                   "s"
FC49   20 74 6F          JSR &6F74          " to"
FC4C   20 74 68          JSR &6874          " th"
FC4F   65 20             ADC &20            "e "
FC51   64                                   "d"
FC52   65 76             ADC &76            "ev"
FC54   65 6C             ADC &6C            "el"
FC56   6F                                   "o"
FC57   70 6D             BVS &FCC6          "pm"
FC59   65 6E             ADC &6E            "en"
FC5B   74                                   "t"
FC5C   20 6F 66          JSR &666F          " of"
FC5F   20 74 68          JSR &6874          " th"
FC62   65 20             ADC &20            "e "
FC64   42                                   "B"
FC65   42                                   "B"
FC66   43                                   "C"
FC67   20 43 6F          JSR &6F43          " Co"
FC6A   6D 70 75          ADC &7570          "mpu"
FC6D   74                                   "t"
FC6E   65 72             ADC &72            "er"
FC70   20 28 61          JSR &6128          " (a"
FC73   6D 6F 6E          ADC &6E6F          "mon"
FC76   67                                   "g"
FC77   20 6F 74          JSR &746F          " ot"
FC7A   68                PLA                "h"
FC7B   65 72             ADC &72            "er"
FC7D   73                                   "s"
FC7E   20 74 6F          JSR &6F74          " to"
FC81   6F                                   "o"
FC82   20 6E 75          JSR &756E          " nu"
FC85   6D 65 72          ADC &7265          "mer"
FC88   6F                                   "o"
FC89   75 73             ADC &73,X          "us"
FC8B   20 74 6F          JSR &6F74          " to"
FC8E   20 6D 65          JSR &656D          " me"
FC91   6E 74 69          ROR &6974          "nti"
FC94   6F                                   "o"
FC95   6E 29 3A          ROR &3A29          "n):"
FC98   2D 20 44          AND &4420          "- D"
FC9B   61 76             ADC (&76,X)        "av"
FC9D   69 64             ADC #&64           "id"
FC9F   20 41 6C          JSR &6C41          " Al"
FCA2   6C 65 6E          JMP (&6E65)        "len"
FCA5   2C 42 6F          BIT &6F42          ",Bo"
FCA8   62                                   "b"
FCA9   20 41 75          JSR &7541          " Au"
FCAC   73                                   "s"
FCAD   74                                   "t"
FCAE   69 6E             ADC #&6E           "in"
FCB0   2C 52 61          BIT &6152          ",Ra"
FCB3   6D 20 42          ADC &4220          "m B"
FCB6   61 6E             ADC (&6E,X)        "an"
FCB8   65 72             ADC &72            "er"
FCBA   6A                ROR A              "j"
FCBB   65 65             ADC &65            "ee"
FCBD   2C 50 61          BIT &6150          ",Pa"
FCC0   75 6C             ADC &6C,X          "ul"
FCC2   20 42 6F          JSR &6F42          " Bo"
FCC5   6E 64 2C          ROR &2C64          "nd,"
FCC8   41 6C             EOR (&6C,X)        "Al"
FCCA   6C 65 6E          JMP (&6E65)        "len"
FCCD   20 42 6F          JSR &6F42          " Bo"
FCD0   6F                                   "o"
FCD1   74                                   "t"
FCD2   68                PLA                "h"
FCD3   72                                   "r"
FCD4   6F                                   "o"
FCD5   79 64 2C          ADC &2C64,Y        "yd,"
FCD8   43                                   "C"
FCD9   61 6D             ADC (&6D,X)        "am"
FCDB   62                                   "b"
FCDC   72                                   "r"
FCDD   69 64             ADC #&64           "id"
FCDF   67                                   "g"
FCE0   65 2C             ADC &2C            "e,"
FCE2   43                                   "C"
FCE3   6C 65 61          JMP (&6165)        "lea"
FCE6   72                                   "r"
FCE7   74                                   "t"
FCE8   6F                                   "o"
FCE9   6E 65 2C          ROR &2C65          "ne,"
FCEC   4A                LSR A              "J"
FCED   6F                                   "o"
FCEE   68                PLA                "h"
FCEF   6E 20 43          ROR &4320          "n C"
FCF2   6F                                   "o"
FCF3   6C 6C 2C          JMP (&2C6C)        "ll,"
FCF6   4A                LSR A              "J"
FCF7   6F                                   "o"
FCF8   68                PLA                "h"
FCF9   6E 20 43          ROR &4320          "n C"
FCFC   6F                                   "o"
FCFD   78                SEI                "x"
FCFE   2C 41 6E          BIT &6E41          ",An"
FD01   64                                   "d"
FD02   79 20 43          ADC &4320,Y        "y C"
FD05   72                                   "r"
FD06   69 70             ADC #&70           "ip"
FD08   70 73             BVS &FD7D          "ps"
FD0A   2C 43 68          BIT &6843          ",Ch"
FD0D   72                                   "r"
FD0E   69 73             ADC #&73           "is"
FD10   20 43 75          JSR &7543          " Cu"
FD13   72                                   "r"
FD14   72                                   "r"
FD15   79 2C 36          ADC &362C,Y        "y,6"
FD18   35 30             AND &30,X          "50"
FD1A   32                                   "2"
FD1B   20 64 65          JSR &6564          " de"
FD1E   73                                   "s"
FD1F   69 67             ADC #&67           "ig"
FD21   6E 65 72          ROR &7265          "ner"
FD24   73                                   "s"
FD25   2C 4A 65          BIT &654A          ",Je"
FD28   72                                   "r"
FD29   65 6D             ADC &6D            "em"
FD2B   79 20 44          ADC &4420,Y        "y D"
FD2E   69 6F             ADC #&6F           "io"
FD30   6E 2C 54          ROR &542C          "n,T"
FD33   69 6D             ADC #&6D           "im"
FD35   20 44 6F          JSR &6F44          " Do"
FD38   62                                   "b"
FD39   73                                   "s"
FD3A   6F                                   "o"
FD3B   6E 2C 4A          ROR &4A2C          "n,J"
FD3E   6F                                   "o"
FD3F   65 20             ADC &20            "e "
FD41   44                                   "D"
FD42   75 6E             ADC &6E,X          "un"
FD44   6E 2C 50          ROR &502C          "n,P"
FD47   61 75             ADC (&75,X)        "au"
FD49   6C 20 46          JMP (&4620)        "l F"
FD4C   61 72             ADC (&72,X)        "ar"
FD4E   72                                   "r"
FD4F   65 6C             ADC &6C            "el"
FD51   6C 2C 46          JMP (&462C)        "l,F"
FD54   65 72             ADC &72            "er"
FD56   72                                   "r"
FD57   61 6E             ADC (&6E,X)        "an"
FD59   74                                   "t"
FD5A   69 2C             ADC #&2C           "i,"
FD5C   53                                   "S"
FD5D   74                                   "t"
FD5E   65 76             ADC &76            "ev"
FD60   65 20             ADC &20            "e "
FD62   46 75             LSR &75            "Fu"
FD64   72                                   "r"
FD65   62                                   "b"
FD66   65 72             ADC &72            "er"
FD68   2C 4A 6F          BIT &6F4A          ",Jo"
FD6B   6E 20 47          ROR &4720          "n G"
FD6E   69 62             ADC #&62           "ib"
FD70   62                                   "b"
FD71   6F                                   "o"
FD72   6E 73 2C          ROR &2C73          "ns,"
FD75   41 6E             EOR (&6E,X)        "An"
FD77   64                                   "d"
FD78   72                                   "r"
FD79   65 77             ADC &77            "ew"
FD7B   20 47 6F          JSR &6F47          " Go"
FD7E   72                                   "r"
FD7F   64                                   "d"
FD80   6F                                   "o"
FD81   6E 2C 4C          ROR &4C2C          "n,L"
FD84   61 77             ADC (&77,X)        "aw"
FD86   72                                   "r"
FD87   65 6E             ADC &6E            "en"
FD89   63                                   "c"
FD8A   65 20             ADC &20            "e "
FD8C   48                PHA                "H"
FD8D   61 72             ADC (&72,X)        "ar"
FD8F   64                                   "d"
FD90   77                                   "w"
FD91   69 63             ADC #&63           "ic"
FD93   6B                                   "k"
FD94   2C 44 79          BIT &7944          ",Dy"
FD97   6C 61 6E          JMP (&6E61)        "lan"
FD9A   20 48 61          JSR &6148          " Ha"
FD9D   72                                   "r"
FD9E   72                                   "r"
FD9F   69 73             ADC #&73           "is"
FDA1   2C 48 65          BIT &6548          ",He"
FDA4   72                                   "r"
FDA5   6D 61 6E          ADC &6E61          "man"
FDA8   6E 20 48          ROR &4820          "n H"
FDAB   61 75             ADC (&75,X)        "au"
FDAD   73                                   "s"
FDAE   65 72             ADC &72            "er"
FDB0   2C 48 69          BIT &6948          ",Hi"
FDB3   74                                   "t"
FDB4   61 63             ADC (&63,X)        "ac"
FDB6   68                PLA                "h"
FDB7   69 2C             ADC #&2C           "i,"
FDB9   41 6E             EOR (&6E,X)        "An"
FDBB   64                                   "d"
FDBC   79 20 48          ADC &4820,Y        "y H"
FDBF   6F                                   "o"
FDC0   70 70             BVS &FE32          "pp"
FDC2   65 72             ADC &72            "er"
FDC4   2C 49 43          BIT &4349          ",IC"
FDC7   4C 2C 4D          JMP &4D2C          "L,M"
FDCA   61 72             ADC (&72,X)        "ar"
FDCC   74                                   "t"
FDCD   69 6E             ADC #&6E           "in"
FDCF   20 4A 61          JSR &614A          " Ja"
FDD2   63                                   "c"
FDD3   6B                                   "k"
FDD4   73                                   "s"
FDD5   6F                                   "o"
FDD6   6E 2C 42          ROR &422C          "n,B"
FDD9   72                                   "r"
FDDA   69 61             ADC #&61           "ia"
FDDC   6E 20 4A          ROR &4A20          "n J"
FDDF   6F                                   "o"
FDE0   6E 65 73          ROR &7365          "nes"
FDE3   2C 43 68          BIT &6843          ",Ch"
FDE6   72                                   "r"
FDE7   69 73             ADC #&73           "is"
FDE9   20 4A 6F          JSR &6F4A          " Jo"
FDEC   72                                   "r"
FDED   64                                   "d"
FDEE   61 6E             ADC (&6E,X)        "an"
FDF0   2C 44 61          BIT &6144          ",Da"
FDF3   76 69             ROR &69,X          "vi"
FDF5   64                                   "d"
FDF6   20 4B 69          JSR &694B          " Ki"
FDF9   6E 67 2C          ROR &2C67          "ng,"
FDFC   44                                   "D"
FDFD   61 76             ADC (&76,X)        "av"
FDFF   69 64             ADC #&64           "id"
FE01   20 4B 69          JSR &694B          " Ki"
FE04   74                                   "t"
FE05   73                                   "s"
FE06   6F                                   "o"
FE07   6E 2C 50          ROR &502C          "n,P"
FE0A   61 75             ADC (&75,X)        "au"
FE0C   6C 20 4B          JMP (&4B20)        "l K"
FE0F   72                                   "r"
FE10   69 77             ADC #&77           "iw"
FE12   61 63             ADC (&63,X)        "ac"
FE14   7A                                   "z"
FE15   65 6B             ADC &6B            "ek"
FE17   2C 43 6F          BIT &6F43          ",Co"
FE1A   6D 70 75          ADC &7570          "mpu"
FE1D   74                                   "t"
FE1E   65 72             ADC &72            "er"
FE20   20 4C 61          JSR &614C          " La"
FE23   62                                   "b"
FE24   6F                                   "o"
FE25   72                                   "r"
FE26   61 74             ADC (&74,X)        "at"
FE28   6F                                   "o"
FE29   72                                   "r"
FE2A   79 2C 50          ADC &502C,Y        "y,P"
FE2D   65 74             ADC &74            "et"
FE2F   65 72             ADC &72            "er"
FE31   20 4D 69          JSR &694D          " Mi"
FE34   6C 6C 65          JMP (&656C)        "lle"
FE37   72                                   "r"
FE38   2C 41 72          BIT &7241          ",Ar"
FE3B   74                                   "t"
FE3C   68                PLA                "h"
FE3D   75 72             ADC &72,X          "ur"
FE3F   20 4E 6F          JSR &6F4E          " No"
FE42   72                                   "r"
FE43   6D 61 6E          ADC &6E61          "man"
FE46   2C 47 6C          BIT &6C47          ",Gl"
FE49   79 6E 20          ADC &206E,Y        "yn "
FE4C   50 68             BVC &FEB6          "Ph"
FE4E   69 6C             ADC #&6C           "il"
FE50   6C 69 70          JMP (&7069)        "lip"
FE53   73                                   "s"
FE54   2C 4D 69          BIT &694D          ",Mi"
FE57   6B                                   "k"
FE58   65 20             ADC &20            "e "
FE5A   50 72             BVC &FECE          "Pr"
FE5C   65 65             ADC &65            "ee"
FE5E   73                                   "s"
FE5F   2C 4A 6F          BIT &6F4A          ",Jo"
FE62   68                PLA                "h"
FE63   6E 20 52          ROR &5220          "n R"
FE66   61 64             ADC (&64,X)        "ad"
FE68   63                                   "c"
FE69   6C 69 66          JMP (&6669)        "lif"
FE6C   66 65             ROR &65            "fe"
FE6E   2C 57 69          BIT &6957          ",Wi"
FE71   6C 62 65          JMP (&6562)        "lbe"
FE74   72                                   "r"
FE75   66 6F             ROR &6F            "fo"
FE77   72                                   "r"
FE78   63                                   "c"
FE79   65 20             ADC &20            "e "
FE7B   52                                   "R"
FE7C   6F                                   "o"
FE7D   61 64             ADC (&64,X)        "ad"
FE7F   2C 50 65          BIT &6550          ",Pe"
FE82   74                                   "t"
FE83   65 72             ADC &72            "er"
FE85   20 52 6F          JSR &6F52          " Ro"
FE88   62                                   "b"
FE89   69 6E             ADC #&6E           "in"
FE8B   73                                   "s"
FE8C   6F                                   "o"
FE8D   6E 2C 52          ROR &522C          "n,R"
FE90   69 63             ADC #&63           "ic"
FE92   68                PLA                "h"
FE93   61 72             ADC (&72,X)        "ar"
FE95   64                                   "d"
FE96   20 52 75          JSR &7552          " Ru"
FE99   73                                   "s"
FE9A   73                                   "s"
FE9B   65 6C             ADC &6C            "el"
FE9D   6C 2C 4B          JMP (&4B2C)        "l,K"
FEA0   69 6D             ADC #&6D           "im"
FEA2   20 53 70          JSR &7053          " Sp"
FEA5   65 6E             ADC &6E            "en"
FEA7   63                                   "c"
FEA8   65 2D             ADC &2D            "e-"
FEAA   4A                LSR A              "J"
FEAB   6F                                   "o"
FEAC   6E 65 73          ROR &7365          "nes"
FEAF   2C 47 72          BIT &7247          ",Gr"
FEB2   61 68             ADC (&68,X)        "ah"
FEB4   61 6D             ADC (&6D,X)        "am"
FEB6   20 54 65          JSR &6554          " Te"
FEB9   62                                   "b"
FEBA   62                                   "b"
FEBB   79 2C 4A          ADC &4A2C,Y        "y,J"
FEBE   6F                                   "o"
FEBF   6E 20 54          ROR &5420          "n T"
FEC2   68                PLA                "h"
FEC3   61 63             ADC (&63,X)        "ac"
FEC5   6B                                   "k"
FEC6   72                                   "r"
FEC7   61 79             ADC (&79,X)        "ay"
FEC9   2C 43 68          BIT &6843          ",Ch"
FECC   72                                   "r"
FECD   69 73             ADC #&73           "is"
FECF   20 54 75          JSR &7554          " Tu"
FED2   72                                   "r"
FED3   6E 65 72          ROR &7265          "ner"
FED6   2C 41 64          BIT &6441          ",Ad"
FED9   72                                   "r"
FEDA   69 61             ADC #&61           "ia"
FEDC   6E 20 57          ROR &5720          "n W"
FEDF   61 72             ADC (&72,X)        "ar"
FEE1   6E 65 72          ROR &7265          "ner"
FEE4   2C 52 6F          BIT &6F52          ",Ro"
FEE7   67                                   "g"
FEE8   65 72             ADC &72            "er"
FEEA   20 57 69          JSR &6957          " Wi"
FEED   6C 73 6F          JMP (&6F73)        "lso"
FEF0   6E 2C 41          ROR &412C          "n,A"
FEF3   6C 61 6E          JMP (&6E61)        "lan"
FEF6   20 57 72          JSR &7257          " Wr"
FEF9   69 67             ADC #&67           "ig"
FEFB   68                PLA                "h"
FEFC   74                                   "t"
FEFD   2E CD D9          ROL &D9CD
FF00   20 51 FF          JSR &FF51
FF03   20 51 FF          JSR &FF51
FF06   20 51 FF          JSR &FF51
FF09   20 51 FF          JSR &FF51
FF0C   20 51 FF          JSR &FF51
FF0F   20 51 FF          JSR &FF51
FF12   20 51 FF          JSR &FF51
FF15   20 51 FF          JSR &FF51
FF18   20 51 FF          JSR &FF51
FF1B   20 51 FF          JSR &FF51
FF1E   20 51 FF          JSR &FF51
FF21   20 51 FF          JSR &FF51
FF24   20 51 FF          JSR &FF51
FF27   20 51 FF          JSR &FF51
FF2A   20 51 FF          JSR &FF51
FF2D   20 51 FF          JSR &FF51
FF30   20 51 FF          JSR &FF51
FF33   20 51 FF          JSR &FF51
FF36   20 51 FF          JSR &FF51
FF39   20 51 FF          JSR &FF51
FF3C   20 51 FF          JSR &FF51
FF3F   20 51 FF          JSR &FF51
FF42   20 51 FF          JSR &FF51
FF45   20 51 FF          JSR &FF51
FF48   20 51 FF          JSR &FF51
FF4B   20 51 FF          JSR &FF51
FF4E   20 51 FF          JSR &FF51
FF51   48                PHA                "H"
FF52   48                PHA                "H"
FF53   48                PHA                "H"
FF54   48                PHA                "H"
FF55   48                PHA                "H"
FF56   08                PHP
FF57   48                PHA                "H"
FF58   8A                TXA
FF59   48                PHA                "H"
FF5A   98                TYA
FF5B   48                PHA                "H"
FF5C   BA                TSX
FF5D   A9 FF             LDA #&FF
FF5F   9D 08 01          STA &0108,X
FF62   A9 88             LDA #&88
FF64   9D 07 01          STA &0107,X
FF67   BC 0A 01          LDY &010A,X
FF6A   B9 9D 0D          LDA &0D9D,Y
FF6D   9D 05 01          STA &0105,X
FF70   B9 9E 0D          LDA &0D9E,Y
FF73   9D 06 01          STA &0106,X
FF76   A5 F4             LDA &F4
FF78   9D 09 01          STA &0109,X
FF7B   B9 9F 0D          LDA &0D9F,Y
FF7E   85 F4             STA &F4
FF80   8D 30 FE          STA &FE30
FF83   68                PLA                "h"
FF84   A8                TAY
FF85   68                PLA                "h"
FF86   AA                TAX
FF87   68                PLA                "h"
FF88   40                RTI                "@"
FF89   08                PHP
FF8A   48                PHA                "H"
FF8B   8A                TXA
FF8C   48                PHA                "H"
FF8D   BA                TSX
FF8E   BD 02 01          LDA &0102,X
FF91   9D 05 01          STA &0105,X
FF94   BD 03 01          LDA &0103,X
FF97   9D 06 01          STA &0106,X
FF9A   68                PLA                "h"
FF9B   AA                TAX
FF9C   68                PLA                "h"
FF9D   68                PLA                "h"
FF9E   68                PLA                "h"
FF9F   85 F4             STA &F4
FFA1   8D 30 FE          STA &FE30
FFA4   68                PLA                "h"
FFA5   28                PLP                "("
FFA6   60                RTS                "`"
FFA7   8A                TXA
FFA8   B0 2A             BCS &FFD4
FFAA   BC 00 FC          LDY &FC00,X
FFAD   60                RTS                "`"
FFAE   BC 00 FD          LDY &FD00,X
FFB1   60                RTS                "`"
FFB2   BC 00 FE          LDY &FE00,X
FFB5   60                RTS                "`"
FFB6   36 40             ROL &40,X          "6@"
FFB8   D9 4C 0B          CMP &0B4C,Y
FFBB   DC
FFBC   4C C0 C4          JMP &C4C0
FFBF   4C 94 E4          JMP .L120
FFC2   4C 1E EA          JMP &EA1E
FFC5   4C 2F EA          JMP &EA2F
FFC8   4C C5 DE          JMP &DEC5
FFCB   4C A4 E0          JMP &E0A4
FFCE   6C 1C 02          JMP (&021C)
FFD1   6C 1A 02          JMP (&021A)
FFD4   6C 18 02          JMP (&0218)
FFD7   6C 16 02          JMP (&0216)
FFDA   6C 14 02          JMP (&0214)
FFDD   6C 12 02          JMP (&0212)
FFE0   6C 10 02          JMP (&0210)
FFE3   C9 0D      .L198  CMP #&0D
FFE5   D0 07      .      BNE .L200
FFE7   A9 0A      .L199  LDA #&0A
FFE9   20 EE FF   .      JSR .L200
FFEC   A9 0D      .      LDA #&0D
FFEE   6C 0E 02   .L200  JMP (&020E)
FFF1   6C 0C 02          JMP (&020C)
FFF4   6C 0A 02          JMP (&020A)
FFF7   6C 08 02   .L201  JMP (&0208)
FFFA   00                BRK
FFFB   0D CD D9          ORA &D9CD
FFFE   1C
FFFF   DC
